MSP430 Assembler PC v4.2.1 Fri Mar 21 13:42:29 2014

Tools Copyright (c) 2003-2013 Texas Instruments Incorporated
C:\Users\409010~1\AppData\Local\Temp\0141212                         PAGE    1

       1            ;******************************************************************************
       2            ;* MSP430 C/C++ Codegen                                             PC v4.2.1 *
       3            ;* Date/Time created: Fri Mar 21 13:42:28 2014                                *
       4            ;******************************************************************************
       5                    .compiler_opts --abi=coffabi --hll_source=on --mem_model:code=large --mem_model:data=small --o
       6            
       7            $C$DW$CU        .dwtag  DW_TAG_compile_unit
       8                    .dwattr $C$DW$CU, DW_AT_name("C:/Users/409010855/Documents/GitHub/CHARM/Embedded_Voltmeter/Bas
       9                    .dwattr $C$DW$CU, DW_AT_producer("MSP430 C/C++ Codegen PC v4.2.1 Copyright (c) 2003-2013 Texas
      10                    .dwattr $C$DW$CU, DW_AT_TI_version(0x01)
      11                    .dwattr $C$DW$CU, DW_AT_comp_dir("C:\Users\409010855\Documents\GitHub\CHARM\Embedded_Voltmeter
      12            ;*****************************************************************************
      13            ;* CINIT RECORDS                                                             *
      14            ;*****************************************************************************
      15 000000               .sect   ".cinit"
      16                    .align  2
      17 000000 0004          .field          4,16
      18 000002 0000!         .field          socket_active_status+0,16
      19 000004 FFFF          .bits   65535,32                        ; socket_active_status @ 0
         000006 0000 
      20            
      21            
      22            $C$DW$1 .dwtag  DW_TAG_subprogram, DW_AT_name("memcpy")
      23                    .dwattr $C$DW$1, DW_AT_TI_symbol_name("memcpy")
      24                    .dwattr $C$DW$1, DW_AT_type(*$C$DW$T$3)
      25                    .dwattr $C$DW$1, DW_AT_declaration
      26                    .dwattr $C$DW$1, DW_AT_external
      27            $C$DW$2 .dwtag  DW_TAG_formal_parameter
      28                    .dwattr $C$DW$2, DW_AT_type(*$C$DW$T$3)
      29            $C$DW$3 .dwtag  DW_TAG_formal_parameter
      30                    .dwattr $C$DW$3, DW_AT_type(*$C$DW$T$60)
      31            $C$DW$4 .dwtag  DW_TAG_formal_parameter
      32                    .dwattr $C$DW$4, DW_AT_type(*$C$DW$T$61)
      33                    .dwendtag $C$DW$1
      34            
      35            
      36            $C$DW$5 .dwtag  DW_TAG_subprogram, DW_AT_name("UINT32_TO_STREAM_f")
      37                    .dwattr $C$DW$5, DW_AT_TI_symbol_name("UINT32_TO_STREAM_f")
      38                    .dwattr $C$DW$5, DW_AT_type(*$C$DW$T$21)
      39                    .dwattr $C$DW$5, DW_AT_declaration
      40                    .dwattr $C$DW$5, DW_AT_external
      41            $C$DW$6 .dwtag  DW_TAG_formal_parameter
      42                    .dwattr $C$DW$6, DW_AT_type(*$C$DW$T$21)
      43            $C$DW$7 .dwtag  DW_TAG_formal_parameter
      44                    .dwattr $C$DW$7, DW_AT_type(*$C$DW$T$25)
      45                    .dwendtag $C$DW$5
      46            
      47            
      48            $C$DW$8 .dwtag  DW_TAG_subprogram, DW_AT_name("STREAM_TO_UINT16_f")
      49                    .dwattr $C$DW$8, DW_AT_TI_symbol_name("STREAM_TO_UINT16_f")
      50                    .dwattr $C$DW$8, DW_AT_type(*$C$DW$T$19)
      51                    .dwattr $C$DW$8, DW_AT_declaration
      52                    .dwattr $C$DW$8, DW_AT_external
      53            $C$DW$9 .dwtag  DW_TAG_formal_parameter
      54                    .dwattr $C$DW$9, DW_AT_type(*$C$DW$T$24)
MSP430 Assembler PC v4.2.1 Fri Mar 21 13:42:29 2014

Tools Copyright (c) 2003-2013 Texas Instruments Incorporated
C:\Users\409010~1\AppData\Local\Temp\0141212                         PAGE    2

      55            $C$DW$10        .dwtag  DW_TAG_formal_parameter
      56                    .dwattr $C$DW$10, DW_AT_type(*$C$DW$T$19)
      57                    .dwendtag $C$DW$8
      58            
      59            
      60            $C$DW$11        .dwtag  DW_TAG_subprogram, DW_AT_name("STREAM_TO_UINT32_f")
      61                    .dwattr $C$DW$11, DW_AT_TI_symbol_name("STREAM_TO_UINT32_f")
      62                    .dwattr $C$DW$11, DW_AT_type(*$C$DW$T$25)
      63                    .dwattr $C$DW$11, DW_AT_declaration
      64                    .dwattr $C$DW$11, DW_AT_external
      65            $C$DW$12        .dwtag  DW_TAG_formal_parameter
      66                    .dwattr $C$DW$12, DW_AT_type(*$C$DW$T$24)
      67            $C$DW$13        .dwtag  DW_TAG_formal_parameter
      68                    .dwattr $C$DW$13, DW_AT_type(*$C$DW$T$19)
      69                    .dwendtag $C$DW$11
      70            
      71            
      72            $C$DW$14        .dwtag  DW_TAG_subprogram, DW_AT_name("hci_patch_send")
      73                    .dwattr $C$DW$14, DW_AT_TI_symbol_name("hci_patch_send")
      74                    .dwattr $C$DW$14, DW_AT_declaration
      75                    .dwattr $C$DW$14, DW_AT_external
      76            $C$DW$15        .dwtag  DW_TAG_formal_parameter
      77                    .dwattr $C$DW$15, DW_AT_type(*$C$DW$T$20)
      78            $C$DW$16        .dwtag  DW_TAG_formal_parameter
      79                    .dwattr $C$DW$16, DW_AT_type(*$C$DW$T$21)
      80            $C$DW$17        .dwtag  DW_TAG_formal_parameter
      81                    .dwattr $C$DW$17, DW_AT_type(*$C$DW$T$24)
      82            $C$DW$18        .dwtag  DW_TAG_formal_parameter
      83                    .dwattr $C$DW$18, DW_AT_type(*$C$DW$T$19)
      84                    .dwendtag $C$DW$14
      85            
      86            
      87            $C$DW$19        .dwtag  DW_TAG_subprogram, DW_AT_name("SpiResumeSpi")
      88                    .dwattr $C$DW$19, DW_AT_TI_symbol_name("SpiResumeSpi")
      89                    .dwattr $C$DW$19, DW_AT_declaration
      90                    .dwattr $C$DW$19, DW_AT_external
      91            $C$DW$20        .dwtag  DW_TAG_variable, DW_AT_name("tSLInformation")
      92                    .dwattr $C$DW$20, DW_AT_TI_symbol_name("tSLInformation")
      93                    .dwattr $C$DW$20, DW_AT_type(*$C$DW$T$57)
      94                    .dwattr $C$DW$20, DW_AT_declaration
      95                    .dwattr $C$DW$20, DW_AT_external
      96                    .global socket_active_status
      97 000000               .bss    socket_active_status,4,2
      98            $C$DW$21        .dwtag  DW_TAG_variable, DW_AT_name("socket_active_status")
      99                    .dwattr $C$DW$21, DW_AT_TI_symbol_name("socket_active_status")
     100                    .dwattr $C$DW$21, DW_AT_location[DW_OP_addr socket_active_status]
     101                    .dwattr $C$DW$21, DW_AT_type(*$C$DW$T$25)
     102                    .dwattr $C$DW$21, DW_AT_external
     103            ;       C:\ti\ccsv5\tools\compiler\msp430_4.2.1\bin\opt430.exe C:\\Users\\409010~1\\AppData\\Local\\Te
     104 000000               .sect   ".text:set_socket_active_status"
     105                    .align  2
     106                    .clink
     107                    .global set_socket_active_status
     108            
     109            $C$DW$22        .dwtag  DW_TAG_subprogram, DW_AT_name("set_socket_active_status")
MSP430 Assembler PC v4.2.1 Fri Mar 21 13:42:29 2014

Tools Copyright (c) 2003-2013 Texas Instruments Incorporated
C:\Users\409010~1\AppData\Local\Temp\0141212                         PAGE    3

     110                    .dwattr $C$DW$22, DW_AT_low_pc(set_socket_active_status)
     111                    .dwattr $C$DW$22, DW_AT_high_pc(0x00)
     112                    .dwattr $C$DW$22, DW_AT_TI_symbol_name("set_socket_active_status")
     113                    .dwattr $C$DW$22, DW_AT_external
     114                    .dwattr $C$DW$22, DW_AT_TI_begin_file("C:/Users/409010855/Documents/GitHub/CHARM/Embedded_Volt
     115                    .dwattr $C$DW$22, DW_AT_TI_begin_line(0x2c1)
     116                    .dwattr $C$DW$22, DW_AT_TI_begin_column(0x06)
     117                    .dwattr $C$DW$22, DW_AT_TI_max_frame_size(0x08)
     118                    .dwpsn  file "C:/Users/409010855/Documents/GitHub/CHARM/Embedded_Voltmeter/Basic WiFi Source/S
     119            
     120                    .dwfde $C$DW$CIE, set_socket_active_status
     121            $C$DW$23        .dwtag  DW_TAG_formal_parameter, DW_AT_name("Sd")
     122                    .dwattr $C$DW$23, DW_AT_TI_symbol_name("Sd")
     123                    .dwattr $C$DW$23, DW_AT_type(*$C$DW$T$32)
     124                    .dwattr $C$DW$23, DW_AT_location[DW_OP_reg12 DW_OP_piece 2 DW_OP_reg13 DW_OP_piece 2]
     125            $C$DW$24        .dwtag  DW_TAG_formal_parameter, DW_AT_name("Status")
     126                    .dwattr $C$DW$24, DW_AT_TI_symbol_name("Status")
     127                    .dwattr $C$DW$24, DW_AT_type(*$C$DW$T$32)
     128                    .dwattr $C$DW$24, DW_AT_location[DW_OP_reg14 DW_OP_piece 2 DW_OP_reg15 DW_OP_piece 2]
     129            
     130            ;*****************************************************************************
     131            ;* FUNCTION NAME: set_socket_active_status                                   *
     132            ;*                                                                           *
     133            ;*   Regs Modified     : SP,SR,r10,r11,r12,r13,r14,r15                       *
     134            ;*   Regs Used         : SP,SR,r10,r11,r12,r13,r14,r15                       *
     135            ;*   Local Frame Size  : 0 Args + 0 Auto + 4 Save = 4 byte                   *
     136            ;*****************************************************************************
     137            set_socket_active_status:
     138            ;* --------------------------------------------------------------------------*
     139            ;* r12   assigned to Status
     140            $C$DW$25        .dwtag  DW_TAG_variable, DW_AT_name("Status")
     141                    .dwattr $C$DW$25, DW_AT_TI_symbol_name("Status")
     142                    .dwattr $C$DW$25, DW_AT_type(*$C$DW$T$95)
     143                    .dwattr $C$DW$25, DW_AT_location[DW_OP_reg12 DW_OP_piece 2 DW_OP_reg13 DW_OP_piece 2]
     144            ;* r15   assigned to Sd
     145            $C$DW$26        .dwtag  DW_TAG_variable, DW_AT_name("Sd")
     146                    .dwattr $C$DW$26, DW_AT_TI_symbol_name("Sd")
     147                    .dwattr $C$DW$26, DW_AT_type(*$C$DW$T$95)
     148                    .dwattr $C$DW$26, DW_AT_location[DW_OP_reg15 DW_OP_piece 2 DW_OP_reg16 DW_OP_piece 2]
     149                    .dwcfi  cfa_offset, 4
     150                    .dwcfi  save_reg_to_mem, 16, -4
     151 000000 140A          PUSHM.A   #1,r10                ; [] 
     152                    .dwcfi  save_reg_to_mem, 10, -8
     153                    .dwcfi  cfa_offset, 8
     154 000002 0CCA          MOVA      r12,r10               ; [] |706| 
     155 000004 0DCB          MOVA      r13,r11               ; [] |706| 
     156 000006 0ECC          MOVA      r14,r12               ; [] |706| 
     157 000008 0FCD          MOVA      r15,r13               ; [] |706| 
     158 00000a 0ACF          MOVA      r10,r15               ; [] |706| 
     159                    .dwpsn  file "C:/Users/409010855/Documents/GitHub/CHARM/Embedded_Voltmeter/Basic WiFi Source/S
     160 00000c 930B          TST.W     r11                   ; [] |707| 
     161 00000e 3826          JL        $C$L2                 ; [] |707| 
     162                                                      ; [] |707| 
     163            ;* --------------------------------------------------------------------------*
     164 000010 930B          TST.W     r11                   ; [] |707| 
MSP430 Assembler PC v4.2.1 Fri Mar 21 13:42:29 2014

Tools Copyright (c) 2003-2013 Texas Instruments Incorporated
C:\Users\409010~1\AppData\Local\Temp\0141212                         PAGE    4

     165 000012 3803          JL        $C$L1                 ; [] |707| 
     166                                                      ; [] |707| 
     167            ;* --------------------------------------------------------------------------*
     168 000014 2023          JNE       $C$L2                 ; [] |707| 
     169                                                      ; [] |707| 
     170            ;* --------------------------------------------------------------------------*
     171 000016 923F          CMP.W     #8,r15                ; [] |707| 
     172 000018 2C21          JHS       $C$L2                 ; [] |707| 
     173                                                      ; [] |707| 
     174            ;* --------------------------------------------------------------------------*
     175 00001a       $C$L1:    
     176 00001a 0CCB          MOVA      r12,r11               ; [] |707| 
     177 00001c 0DCE          MOVA      r13,r14               ; [] |707| 
     178 00001e F03B          AND.W     #65534,r11            ; [] |707| 
         000020 FFFE 
     179 000022 F33E          AND.W     #65535,r14            ; [] |707| 
     180 000024 930E          TST.W     r14                   ; [] |707| 
     181 000026 201A          JNE       $C$L2                 ; [] |707| 
     182                                                      ; [] |707| 
     183            ;* --------------------------------------------------------------------------*
     184 000028 930B          TST.W     r11                   ; [] |707| 
     185 00002a 2018          JNE       $C$L2                 ; [] |707| 
     186                                                      ; [] |707| 
     187            ;* --------------------------------------------------------------------------*
     188                    .dwpsn  file "C:/Users/409010855/Documents/GitHub/CHARM/Embedded_Voltmeter/Basic WiFi Source/S
     189 00002c 0FCE          MOVA      r15,r14               ; [] |709| 
     190            $C$DW$27        .dwtag  DW_TAG_TI_branch
     191                    .dwattr $C$DW$27, DW_AT_low_pc(0x00)
     192                    .dwattr $C$DW$27, DW_AT_name("L_LSL")
     193                    .dwattr $C$DW$27, DW_AT_TI_call
     194 00002e 13B0!         CALLA     #L_LSL                ; [] |709| 
         000030 0000 
     195                                                      ; [] |709| 
     196 000032 0CCB          MOVA      r12,r11               ; [] |709| 
     197 000034 0DCE          MOVA      r13,r14               ; [] |709| 
     198 000036 0FCD          MOVA      r15,r13               ; [] |709| 
     199 000038 431C          MOV.W     #1,r12                ; [] |709| 
     200            $C$DW$28        .dwtag  DW_TAG_TI_branch
     201                    .dwattr $C$DW$28, DW_AT_low_pc(0x00)
     202                    .dwattr $C$DW$28, DW_AT_name("I_LSL")
     203                    .dwattr $C$DW$28, DW_AT_TI_call
     204 00003a 13B0!         CALLA     #I_LSL                ; [] |709| 
         00003c 0000 
     205                                                      ; [] |709| 
     206 00003e E33C          INV.W     r12                   ; [] |709| 
     207 000040 B03C          BIT.W     #32768,r12            ; [] |709| 
         000042 8000 
     208 000044 7F0F          SUBC.W    r15,r15               ; [] |709| 
     209 000046 E33F          INV.W     r15                   ; [] |709| 
     210 000048 F21C          AND.W     &socket_active_status+0,r12 ; [] |709| 
         00004a 0000!
     211 00004c F21F          AND.W     &socket_active_status+2,r15 ; [] |709| 
         00004e 0002!
     212 000050 DB0C          OR.W      r11,r12               ; [] |709| 
     213 000052 DE0F          OR.W      r14,r15               ; [] |709| 
MSP430 Assembler PC v4.2.1 Fri Mar 21 13:42:29 2014

Tools Copyright (c) 2003-2013 Texas Instruments Incorporated
C:\Users\409010~1\AppData\Local\Temp\0141212                         PAGE    5

     214 000054 4C82          MOV.W     r12,&socket_active_status+0 ; [] |709| 
         000056 0000!
     215 000058 4F82          MOV.W     r15,&socket_active_status+2 ; [] |709| 
         00005a 0002!
     216            ;* --------------------------------------------------------------------------*
     217 00005c       $C$L2:    
     218 00005c 160A          POPM.A    #1,r10                ; [] 
     219                    .dwcfi  restore_reg, 10
     220                    .dwcfi  cfa_offset, 4
     221            $C$DW$29        .dwtag  DW_TAG_TI_branch
     222                    .dwattr $C$DW$29, DW_AT_low_pc(0x00)
     223                    .dwattr $C$DW$29, DW_AT_TI_return
     224 00005e 0110          RETA      ; [] 
     225                    ; [] 
     226                    .dwattr $C$DW$22, DW_AT_TI_end_file("C:/Users/409010855/Documents/GitHub/CHARM/Embedded_Voltme
     227                    .dwattr $C$DW$22, DW_AT_TI_end_line(0x2c8)
     228                    .dwattr $C$DW$22, DW_AT_TI_end_column(0x01)
     229                    .dwendentry
     230                    .dwendtag $C$DW$22
     231            
     232 000000               .sect   ".text:hci_unsol_event_handler"
     233                    .align  2
     234                    .clink
     235                    .global hci_unsol_event_handler
     236            
     237            $C$DW$30        .dwtag  DW_TAG_subprogram, DW_AT_name("hci_unsol_event_handler")
     238                    .dwattr $C$DW$30, DW_AT_low_pc(hci_unsol_event_handler)
     239                    .dwattr $C$DW$30, DW_AT_high_pc(0x00)
     240                    .dwattr $C$DW$30, DW_AT_TI_symbol_name("hci_unsol_event_handler")
     241                    .dwattr $C$DW$30, DW_AT_external
     242                    .dwattr $C$DW$30, DW_AT_type(*$C$DW$T$32)
     243                    .dwattr $C$DW$30, DW_AT_TI_begin_file("C:/Users/409010855/Documents/GitHub/CHARM/Embedded_Volt
     244                    .dwattr $C$DW$30, DW_AT_TI_begin_line(0x1f6)
     245                    .dwattr $C$DW$30, DW_AT_TI_begin_column(0x07)
     246                    .dwattr $C$DW$30, DW_AT_TI_max_frame_size(0x2e)
     247                    .dwpsn  file "C:/Users/409010855/Documents/GitHub/CHARM/Embedded_Voltmeter/Basic WiFi Source/S
     248            
     249                    .dwfde $C$DW$CIE, hci_unsol_event_handler
     250            $C$DW$31        .dwtag  DW_TAG_formal_parameter, DW_AT_name("event_hdr")
     251                    .dwattr $C$DW$31, DW_AT_TI_symbol_name("event_hdr")
     252                    .dwattr $C$DW$31, DW_AT_type(*$C$DW$T$24)
     253                    .dwattr $C$DW$31, DW_AT_location[DW_OP_reg12]
     254            
     255            ;*****************************************************************************
     256            ;* FUNCTION NAME: hci_unsol_event_handler                                    *
     257            ;*                                                                           *
     258            ;*   Regs Modified     : SP,SR,r6,r7,r8,r9,r10,r11,r12,r13,r14,r15           *
     259            ;*   Regs Used         : SP,SR,r6,r7,r8,r9,r10,r11,r12,r13,r14,r15           *
     260            ;*   Local Frame Size  : 0 Args + 22 Auto + 20 Save = 42 byte                *
     261            ;*****************************************************************************
     262            hci_unsol_event_handler:
     263            ;* --------------------------------------------------------------------------*
     264            ;* r12   assigned to pusNumberOfHandles
     265            $C$DW$32        .dwtag  DW_TAG_variable, DW_AT_name("pusNumberOfHandles")
     266                    .dwattr $C$DW$32, DW_AT_TI_symbol_name("pusNumberOfHandles")
MSP430 Assembler PC v4.2.1 Fri Mar 21 13:42:29 2014

Tools Copyright (c) 2003-2013 Texas Instruments Incorporated
C:\Users\409010~1\AppData\Local\Temp\0141212                         PAGE    6

     267                    .dwattr $C$DW$32, DW_AT_type(*$C$DW$T$19)
     268                    .dwattr $C$DW$32, DW_AT_location[DW_OP_reg12]
     269            ;* r10   assigned to event_hdr
     270            $C$DW$33        .dwtag  DW_TAG_variable, DW_AT_name("event_hdr")
     271                    .dwattr $C$DW$33, DW_AT_TI_symbol_name("event_hdr")
     272                    .dwattr $C$DW$33, DW_AT_type(*$C$DW$T$109)
     273                    .dwattr $C$DW$33, DW_AT_location[DW_OP_reg10]
     274            ;* r15   assigned to data
     275            $C$DW$34        .dwtag  DW_TAG_variable, DW_AT_name("data")
     276                    .dwattr $C$DW$34, DW_AT_TI_symbol_name("data")
     277                    .dwattr $C$DW$34, DW_AT_type(*$C$DW$T$24)
     278                    .dwattr $C$DW$34, DW_AT_location[DW_OP_reg15]
     279            ;* r12   assigned to event_type
     280            $C$DW$35        .dwtag  DW_TAG_variable, DW_AT_name("event_type")
     281                    .dwattr $C$DW$35, DW_AT_TI_symbol_name("event_type")
     282                    .dwattr $C$DW$35, DW_AT_type(*$C$DW$T$32)
     283                    .dwattr $C$DW$35, DW_AT_location[DW_OP_reg12 DW_OP_piece 2 DW_OP_reg13 DW_OP_piece 2]
     284            ;* r13   assigned to NumberOfReleasedPackets
     285            $C$DW$36        .dwtag  DW_TAG_variable, DW_AT_name("NumberOfReleasedPackets")
     286                    .dwattr $C$DW$36, DW_AT_TI_symbol_name("NumberOfReleasedPackets")
     287                    .dwattr $C$DW$36, DW_AT_type(*$C$DW$T$25)
     288                    .dwattr $C$DW$36, DW_AT_location[DW_OP_reg13 DW_OP_piece 2 DW_OP_reg14 DW_OP_piece 2]
     289            ;* r15   assigned to NumberOfSentPackets
     290            $C$DW$37        .dwtag  DW_TAG_variable, DW_AT_name("NumberOfSentPackets")
     291                    .dwattr $C$DW$37, DW_AT_TI_symbol_name("NumberOfSentPackets")
     292                    .dwattr $C$DW$37, DW_AT_type(*$C$DW$T$25)
     293                    .dwattr $C$DW$37, DW_AT_location[DW_OP_reg15 DW_OP_piece 2 DW_OP_reg16 DW_OP_piece 2]
     294            ;* r14   assigned to recParams
     295            $C$DW$38        .dwtag  DW_TAG_variable, DW_AT_name("recParams")
     296                    .dwattr $C$DW$38, DW_AT_TI_symbol_name("recParams")
     297                    .dwattr $C$DW$38, DW_AT_type(*$C$DW$T$21)
     298                    .dwattr $C$DW$38, DW_AT_location[DW_OP_reg14]
     299            ;* r8    assigned to sd
     300            $C$DW$39        .dwtag  DW_TAG_variable, DW_AT_name("sd")
     301                    .dwattr $C$DW$39, DW_AT_TI_symbol_name("sd")
     302                    .dwattr $C$DW$39, DW_AT_type(*$C$DW$T$32)
     303                    .dwattr $C$DW$39, DW_AT_location[DW_OP_reg8 DW_OP_piece 2 DW_OP_reg9 DW_OP_piece 2]
     304            ;* r10   assigned to pReadPayload
     305            $C$DW$40        .dwtag  DW_TAG_variable, DW_AT_name("pReadPayload")
     306                    .dwattr $C$DW$40, DW_AT_TI_symbol_name("pReadPayload")
     307                    .dwattr $C$DW$40, DW_AT_type(*$C$DW$T$24)
     308                    .dwattr $C$DW$40, DW_AT_location[DW_OP_reg10]
     309            ;* r15   assigned to value
     310            $C$DW$41        .dwtag  DW_TAG_variable, DW_AT_name("value")
     311                    .dwattr $C$DW$41, DW_AT_TI_symbol_name("value")
     312                    .dwattr $C$DW$41, DW_AT_type(*$C$DW$T$32)
     313                    .dwattr $C$DW$41, DW_AT_location[DW_OP_reg15 DW_OP_piece 2 DW_OP_reg16 DW_OP_piece 2]
     314            ;* r9    assigned to temp
     315            $C$DW$42        .dwtag  DW_TAG_variable, DW_AT_name("temp")
     316                    .dwattr $C$DW$42, DW_AT_TI_symbol_name("temp")
     317                    .dwattr $C$DW$42, DW_AT_type(*$C$DW$T$32)
     318                    .dwattr $C$DW$42, DW_AT_location[DW_OP_reg9 DW_OP_piece 2 DW_OP_reg10 DW_OP_piece 2]
     319            ;* r13   assigned to $O$L6
     320            ;* r13   assigned to $O$L5
     321            ;* r13   assigned to $O$L4
MSP430 Assembler PC v4.2.1 Fri Mar 21 13:42:29 2014

Tools Copyright (c) 2003-2013 Texas Instruments Incorporated
C:\Users\409010~1\AppData\Local\Temp\0141212                         PAGE    7

     322            ;* r13   assigned to $O$L3
     323            ;* r13   assigned to $O$L2
     324            ;* r7    assigned to $O$L1
     325            ;* r15   assigned to $O$U110
     326            ;* r12   assigned to $O$U104
     327            ;* r12   assigned to $O$U98
     328            ;* r12   assigned to $O$U92
     329            ;* r12   assigned to $O$U83
     330            ;* r9    assigned to $O$K49
     331                    .dwcfi  cfa_offset, 4
     332                    .dwcfi  save_reg_to_mem, 16, -4
     333 000000 144A          PUSHM.A   #5,r10                ; [] 
     334                    .dwcfi  save_reg_to_mem, 10, -8
     335                    .dwcfi  save_reg_to_mem, 9, -12
     336                    .dwcfi  save_reg_to_mem, 8, -16
     337                    .dwcfi  save_reg_to_mem, 7, -20
     338                    .dwcfi  save_reg_to_mem, 6, -24
     339                    .dwcfi  cfa_offset, 24
     340 000002 8031          SUB.W     #22,SP                ; [] 
         000004 0016 
     341                    .dwcfi  cfa_offset, 46
     342 000006 0CCA          MOVA      r12,r10               ; [] |503| 
     343                    .dwpsn  file "C:/Users/409010855/Documents/GitHub/CHARM/Embedded_Voltmeter/Basic WiFi Source/S
     344 000008 431D          MOV.W     #1,r13                ; [] |509| 
     345            $C$DW$43        .dwtag  DW_TAG_TI_branch
     346                    .dwattr $C$DW$43, DW_AT_low_pc(0x00)
     347                    .dwattr $C$DW$43, DW_AT_name("STREAM_TO_UINT16_f")
     348                    .dwattr $C$DW$43, DW_AT_TI_call
     349 00000a 13B0!         CALLA     #STREAM_TO_UINT16_f   ; [] |509| 
         00000c 0000 
     350                                                      ; [] |509| 
     351 00000e 430D          MOV.W     #0,r13                ; [] |509| 
     352                    .dwpsn  file "C:/Users/409010855/Documents/GitHub/CHARM/Embedded_Voltmeter/Basic WiFi Source/S
     353 000010 B03C          BIT.W     #16384,r12            ; [] |513| 
         000012 4000 
     354 000014 2434          JEQ       $C$L5                 ; [] |513| 
     355                                                      ; [] |513| 
     356            ;* --------------------------------------------------------------------------*
     357 000016 930D          TST.W     r13                   ; [] |513| 
     358 000018 2032          JNE       $C$L5                 ; [] |513| 
     359                                                      ; [] |513| 
     360            ;* --------------------------------------------------------------------------*
     361 00001a 903C          CMP.W     #16640,r12            ; [] |513| 
         00001c 4100 
     362 00001e 202F          JNE       $C$L5                 ; [] |513| 
     363                                                      ; [] |513| 
     364            ;* --------------------------------------------------------------------------*
     365                    .dwpsn  file "C:/Users/409010855/Documents/GitHub/CHARM/Embedded_Voltmeter/Basic WiFi Source/S
     366 000020 0ACC          MOVA      r10,r12               ; [] |736| 
     367 000022 403D          MOV.W     #5,r13                ; [] |736| 
         000024 0005 
     368            $C$DW$44        .dwtag  DW_TAG_TI_branch
     369                    .dwattr $C$DW$44, DW_AT_low_pc(0x00)
     370                    .dwattr $C$DW$44, DW_AT_name("STREAM_TO_UINT16_f")
     371                    .dwattr $C$DW$44, DW_AT_TI_call
MSP430 Assembler PC v4.2.1 Fri Mar 21 13:42:29 2014

Tools Copyright (c) 2003-2013 Texas Instruments Incorporated
C:\Users\409010~1\AppData\Local\Temp\0141212                         PAGE    8

     372 000026 13B0!         CALLA     #STREAM_TO_UINT16_f   ; [] |736| 
         000028 0000 
     373                                                      ; [] |736| 
     374                    .dwpsn  file "C:/Users/409010855/Documents/GitHub/CHARM/Embedded_Voltmeter/Basic WiFi Source/S
     375 00002a 503A          ADD.W     #7,r10                ; [] |737| 
         00002c 0007 
     376                    .dwpsn  file "C:/Users/409010855/Documents/GitHub/CHARM/Embedded_Voltmeter/Basic WiFi Source/S
     377 00002e 4309          MOV.W     #0,r9                 ; [] |739| 
     378 000030 4308          MOV.W     #0,r8                 ; [] |739| 
     379                    .dwpsn  file "C:/Users/409010855/Documents/GitHub/CHARM/Embedded_Voltmeter/Basic WiFi Source/S
     380 000032 930C          TST.W     r12                   ; [] |741| 
     381 000034 240B          JEQ       $C$L4                 ; [] |741| 
     382                                                      ; [] |741| 
     383            ;* --------------------------------------------------------------------------*
     384                    .dwpsn  file "C:/Users/409010855/Documents/GitHub/CHARM/Embedded_Voltmeter/Basic WiFi Source/S
     385 000036 0CC7          MOVA      r12,r7                ; [] |743| 
     386 000038 4306          MOV.W     #0,r6                 ; [] |743| 
     387            ;* --------------------------------------------------------------------------*
     388            ;*   BEGIN LOOP $C$L3
     389            ;*
     390            ;*   Loop source line                : 741
     391            ;*   Loop closing brace source line  : 746
     392            ;*   Known Minimum Trip Count        : 1
     393            ;*   Known Maximum Trip Count        : 65535
     394            ;*   Known Max Trip Count Factor     : 1
     395            ;* --------------------------------------------------------------------------*
     396 00003a       $C$L3:    
     397 00003a 0ACC          MOVA      r10,r12               ; [] |743| 
     398 00003c 432D          MOV.W     #2,r13                ; [] |743| 
     399            $C$DW$45        .dwtag  DW_TAG_TI_branch
     400                    .dwattr $C$DW$45, DW_AT_low_pc(0x00)
     401                    .dwattr $C$DW$45, DW_AT_name("STREAM_TO_UINT16_f")
     402                    .dwattr $C$DW$45, DW_AT_TI_call
     403 00003e 13B0!         CALLA     #STREAM_TO_UINT16_f   ; [] |743| 
         000040 0000 
     404                                                      ; [] |743| 
     405                    .dwpsn  file "C:/Users/409010855/Documents/GitHub/CHARM/Embedded_Voltmeter/Basic WiFi Source/S
     406 000042 5C09          ADD.W     r12,r9                ; [] |744| 
     407 000044 6608          ADDC.W    r6,r8                 ; [] |744| 
     408                    .dwpsn  file "C:/Users/409010855/Documents/GitHub/CHARM/Embedded_Voltmeter/Basic WiFi Source/S
     409 000046 522A          ADD.W     #4,r10                ; [] |745| 
     410                    .dwpsn  file "C:/Users/409010855/Documents/GitHub/CHARM/Embedded_Voltmeter/Basic WiFi Source/S
     411 000048 8317          SUB.W     #1,r7                 ; [] |741| 
     412 00004a 23F7          JNE       $C$L3                 ; [] |741| 
     413                                                      ; [] |741| 
     414            ;* --------------------------------------------------------------------------*
     415 00004c       $C$L4:    
     416                    .dwpsn  file "C:/Users/409010855/Documents/GitHub/CHARM/Embedded_Voltmeter/Basic WiFi Source/S
     417 00004c 5982          ADD.W     r9,&tSLInformation+44 ; [] |748| 
         00004e 002C!
     418                    .dwpsn  file "C:/Users/409010855/Documents/GitHub/CHARM/Embedded_Voltmeter/Basic WiFi Source/S
     419 000050 5982          ADD.W     r9,&tSLInformation+56 ; [] |749| 
         000052 0038!
     420 000054 6882          ADDC.W    r8,&tSLInformation+58 ; [] |749| 
         000056 003A!
MSP430 Assembler PC v4.2.1 Fri Mar 21 13:42:29 2014

Tools Copyright (c) 2003-2013 Texas Instruments Incorporated
C:\Users\409010~1\AppData\Local\Temp\0141212                         PAGE    9

     421                    .dwpsn  file "C:/Users/409010855/Documents/GitHub/CHARM/Embedded_Voltmeter/Basic WiFi Source/S
     422 000058 421D          MOV.W     &tSLInformation+56,r13 ; [] |520| 
         00005a 0038!
     423 00005c 421E          MOV.W     &tSLInformation+58,r14 ; [] |520| 
         00005e 003A!
     424                    .dwpsn  file "C:/Users/409010855/Documents/GitHub/CHARM/Embedded_Voltmeter/Basic WiFi Source/S
     425 000060 421F          MOV.W     &tSLInformation+52,r15 ; [] |521| 
         000062 0034!
     426                    .dwpsn  file "C:/Users/409010855/Documents/GitHub/CHARM/Embedded_Voltmeter/Basic WiFi Source/S
     427 000064 921E          CMP.W     &tSLInformation+54,r14 ; [] |523| 
         000066 0036!
     428 000068 20F6          JNE       $C$L31                ; [] |523| 
     429                                                      ; [] |523| 
     430            ;* --------------------------------------------------------------------------*
     431 00006a 9F0D          CMP.W     r15,r13               ; [] |523| 
     432 00006c 20F4          JNE       $C$L31                ; [] |523| 
     433                                                      ; [] |523| 
     434            ;* --------------------------------------------------------------------------*
     435                    .dwpsn  file "C:/Users/409010855/Documents/GitHub/CHARM/Embedded_Voltmeter/Basic WiFi Source/S
     436 00006e 93C2          TST.B     &tSLInformation+60    ; [] |525| 
         000070 003C!
     437 000072 24F1          JEQ       $C$L31                ; [] |525| 
     438                                                      ; [] |525| 
     439            ;* --------------------------------------------------------------------------*
     440                    .dwpsn  file "C:/Users/409010855/Documents/GitHub/CHARM/Embedded_Voltmeter/Basic WiFi Source/S
     441 000074 403C          MOV.W     #153,r12              ; [] |527| 
         000076 0099 
     442 000078 430E          MOV.W     #0,r14                ; [] |527| 
     443 00007a 434F          MOV.B     #0,r15                ; [] |527| 
     444 00007c 3CE9          JMP       $C$L29                ; [] |527| 
     445                                                      ; [] |527| 
     446            ;* --------------------------------------------------------------------------*
     447 00007e       $C$L5:    
     448                    .dwpsn  file "C:/Users/409010855/Documents/GitHub/CHARM/Embedded_Voltmeter/Basic WiFi Source/S
     449 00007e B03C          BIT.W     #32768,r12            ; [] |538| 
         000080 8000 
     450 000082 2040          JNE       $C$L11                ; [] |538| 
     451                                                      ; [] |538| 
     452            ;* --------------------------------------------------------------------------*
     453                    .dwpsn  file "C:/Users/409010855/Documents/GitHub/CHARM/Embedded_Voltmeter/Basic WiFi Source/S
     454 000084 930D          TST.W     r13                   ; [] |620| 
     455 000086 2003          JNE       $C$L6                 ; [] |620| 
     456                                                      ; [] |620| 
     457            ;* --------------------------------------------------------------------------*
     458 000088 903C          CMP.W     #4099,r12             ; [] |620| 
         00008a 1003 
     459 00008c 2415          JEQ       $C$L10                ; [] |620| 
     460                                                      ; [] |620| 
     461            ;* --------------------------------------------------------------------------*
     462 00008e       $C$L6:    
     463 00008e 930D          TST.W     r13                   ; [] |620| 
     464 000090 2003          JNE       $C$L7                 ; [] |620| 
     465                                                      ; [] |620| 
     466            ;* --------------------------------------------------------------------------*
     467 000092 903C          CMP.W     #4111,r12             ; [] |620| 
MSP430 Assembler PC v4.2.1 Fri Mar 21 13:42:29 2014

Tools Copyright (c) 2003-2013 Texas Instruments Incorporated
C:\Users\409010~1\AppData\Local\Temp\0141212                         PAGE   10

         000094 100F 
     468 000096 2410          JEQ       $C$L10                ; [] |620| 
     469                                                      ; [] |620| 
     470            ;* --------------------------------------------------------------------------*
     471 000098       $C$L7:    
     472 000098 930D          TST.W     r13                   ; [] |620| 
     473 00009a 2003          JNE       $C$L8                 ; [] |620| 
     474                                                      ; [] |620| 
     475            ;* --------------------------------------------------------------------------*
     476 00009c 903C          CMP.W     #4110,r12             ; [] |620| 
         00009e 100E 
     477 0000a0 240B          JEQ       $C$L10                ; [] |620| 
     478                                                      ; [] |620| 
     479            ;* --------------------------------------------------------------------------*
     480 0000a2       $C$L8:    
     481                    .dwpsn  file "C:/Users/409010855/Documents/GitHub/CHARM/Embedded_Voltmeter/Basic WiFi Source/S
     482 0000a2 930D          TST.W     r13                   ; [] |644| 
     483 0000a4 2003          JNE       $C$L9                 ; [] |644| 
     484                                                      ; [] |644| 
     485            ;* --------------------------------------------------------------------------*
     486 0000a6 921C          CMP.W     &tSLInformation+0,r12 ; [] |644| 
         0000a8 0000!
     487 0000aa 2458          JEQ       $C$L18                ; [] |644| 
     488                                                      ; [] |644| 
     489            ;* --------------------------------------------------------------------------*
     490 0000ac       $C$L9:    
     491 0000ac 930D          TST.W     r13                   ; [] |644| 
     492 0000ae 20D3          JNE       $C$L31                ; [] |644| 
     493                                                      ; [] |644| 
     494            ;* --------------------------------------------------------------------------*
     495 0000b0 903C          CMP.W     #4096,r12             ; [] |644| 
         0000b2 1000 
     496 0000b4 2453          JEQ       $C$L18                ; [] |644| 
     497                                                      ; [] |644| 
     498            ;* --------------------------------------------------------------------------*
     499 0000b6 3CCF          JMP       $C$L31                ; [] |644| 
     500                                                      ; [] |644| 
     501            ;* --------------------------------------------------------------------------*
     502 0000b8       $C$L10:    
     503                    .dwpsn  file "C:/Users/409010855/Documents/GitHub/CHARM/Embedded_Voltmeter/Basic WiFi Source/S
     504 0000b8 4039          MOV.W     #5,r9                 ; [] |627| 
         0000ba 0005 
     505 0000bc 5A09          ADD.W     r10,r9                ; [] |627| 
     506 0000be 09CC          MOVA      r9,r12                ; [] |627| 
     507 0000c0 422D          MOV.W     #4,r13                ; [] |627| 
     508            $C$DW$46        .dwtag  DW_TAG_TI_branch
     509                    .dwattr $C$DW$46, DW_AT_low_pc(0x00)
     510                    .dwattr $C$DW$46, DW_AT_name("STREAM_TO_UINT32_f")
     511                    .dwattr $C$DW$46, DW_AT_TI_call
     512 0000c2 13B0!         CALLA     #STREAM_TO_UINT32_f   ; [] |627| 
         0000c4 0000 
     513                                                      ; [] |627| 
     514 0000c6 933D          CMP.W     #65535,r13            ; [] |627| 
     515 0000c8 2049          JNE       $C$L18                ; [] |627| 
     516                                                      ; [] |627| 
MSP430 Assembler PC v4.2.1 Fri Mar 21 13:42:29 2014

Tools Copyright (c) 2003-2013 Texas Instruments Incorporated
C:\Users\409010~1\AppData\Local\Temp\0141212                         PAGE   11

     517            ;* --------------------------------------------------------------------------*
     518 0000ca 903C          CMP.W     #65479,r12            ; [] |627| 
         0000cc FFC7 
     519 0000ce 2046          JNE       $C$L18                ; [] |627| 
     520                                                      ; [] |627| 
     521            ;* --------------------------------------------------------------------------*
     522                    .dwpsn  file "C:/Users/409010855/Documents/GitHub/CHARM/Embedded_Voltmeter/Basic WiFi Source/S
     523 0000d0 4A5F          MOV.B     4(r10),r15            ; [] |634| 
         0000d2 0004 
     524 0000d4 0F60!         MOVX.A    r15,&tSLInformation+40 ; [] |634| 
         0000d6 0028 
     525                    .dwpsn  file "C:/Users/409010855/Documents/GitHub/CHARM/Embedded_Voltmeter/Basic WiFi Source/S
     526 0000d8 09CC          MOVA      r9,r12                ; [] |788| 
     527 0000da 430D          MOV.W     #0,r13                ; [] |788| 
     528            $C$DW$47        .dwtag  DW_TAG_TI_branch
     529                    .dwattr $C$DW$47, DW_AT_low_pc(0x00)
     530                    .dwattr $C$DW$47, DW_AT_name("STREAM_TO_UINT32_f")
     531                    .dwattr $C$DW$47, DW_AT_TI_call
     532 0000dc 13B0!         CALLA     #STREAM_TO_UINT32_f   ; [] |788| 
         0000de 0000 
     533                                                      ; [] |788| 
     534 0000e0 0CC8          MOVA      r12,r8                ; [] |788| 
     535 0000e2 0DCA          MOVA      r13,r10               ; [] |788| 
     536                    .dwpsn  file "C:/Users/409010855/Documents/GitHub/CHARM/Embedded_Voltmeter/Basic WiFi Source/S
     537 0000e4 09CC          MOVA      r9,r12                ; [] |789| 
     538 0000e6 422D          MOV.W     #4,r13                ; [] |789| 
     539            $C$DW$48        .dwtag  DW_TAG_TI_branch
     540                    .dwattr $C$DW$48, DW_AT_low_pc(0x00)
     541                    .dwattr $C$DW$48, DW_AT_name("STREAM_TO_UINT32_f")
     542                    .dwattr $C$DW$48, DW_AT_TI_call
     543 0000e8 13B0!         CALLA     #STREAM_TO_UINT32_f   ; [] |789| 
         0000ea 0000 
     544                                                      ; [] |789| 
     545 0000ec 933D          CMP.W     #65535,r13            ; [] |789| 
     546 0000ee 20B3          JNE       $C$L31                ; [] |789| 
     547                                                      ; [] |789| 
     548            ;* --------------------------------------------------------------------------*
     549 0000f0 903C          CMP.W     #65479,r12            ; [] |789| 
         0000f2 FFC7 
     550 0000f4 20B0          JNE       $C$L31                ; [] |789| 
     551                                                      ; [] |789| 
     552            ;* --------------------------------------------------------------------------*
     553                    .dwpsn  file "C:/Users/409010855/Documents/GitHub/CHARM/Embedded_Voltmeter/Basic WiFi Source/S
     554 0000f6 08CC          MOVA      r8,r12                ; [] |793| 
     555 0000f8 0ACD          MOVA      r10,r13               ; [] |793| 
     556 0000fa 431E          MOV.W     #1,r14                ; [] |793| 
     557 0000fc 430F          MOV.W     #0,r15                ; [] |793| 
     558            $C$DW$49        .dwtag  DW_TAG_TI_branch
     559                    .dwattr $C$DW$49, DW_AT_low_pc(0x00)
     560                    .dwattr $C$DW$49, DW_AT_name("set_socket_active_status")
     561                    .dwattr $C$DW$49, DW_AT_TI_call
     562 0000fe 13B0!         CALLA     #set_socket_active_status ; [] |793| 
         000100 0000 
     563                                                      ; [] |793| 
     564 000102 3CA9          JMP       $C$L31                ; [] |793| 
MSP430 Assembler PC v4.2.1 Fri Mar 21 13:42:29 2014

Tools Copyright (c) 2003-2013 Texas Instruments Incorporated
C:\Users\409010~1\AppData\Local\Temp\0141212                         PAGE   12

     565                                                      ; [] |793| 
     566            ;* --------------------------------------------------------------------------*
     567 000104       $C$L11:    
     568                    .dwpsn  file "C:/Users/409010855/Documents/GitHub/CHARM/Embedded_Voltmeter/Basic WiFi Source/S
     569 000104 0CCF          MOVA      r12,r15               ; [] |538| 
     570 000106 0DCE          MOVA      r13,r14               ; [] |538| 
     571 000108 803F          SUB.W     #32769,r15            ; [] |538| 
         00010a 8001 
     572 00010c 730E          SUBC.W    #0,r14                ; [] |538| 
     573 00010e 2002          JNE       $C$L12                ; [] |538| 
     574                                                      ; [] |538| 
     575            ;* --------------------------------------------------------------------------*
     576 000110 932F          CMP.W     #2,r15                ; [] |538| 
     577 000112 2831          JLO       $C$L20                ; [] |538| 
     578                                                      ; [] |538| 
     579            ;* --------------------------------------------------------------------------*
     580 000114       $C$L12:    
     581 000114 803F          SUB.W     #3,r15                ; [] |538| 
         000116 0003 
     582 000118 730E          SUBC.W    #0,r14                ; [] |538| 
     583 00011a 2002          JNE       $C$L13                ; [] |538| 
     584                                                      ; [] |538| 
     585            ;* --------------------------------------------------------------------------*
     586 00011c 930F          TST.W     r15                   ; [] |538| 
     587 00011e 242B          JEQ       $C$L20                ; [] |538| 
     588                                                      ; [] |538| 
     589            ;* --------------------------------------------------------------------------*
     590 000120       $C$L13:    
     591 000120 803F          SUB.W     #12,r15               ; [] |538| 
         000122 000C 
     592 000124 730E          SUBC.W    #0,r14                ; [] |538| 
     593 000126 2002          JNE       $C$L14                ; [] |538| 
     594                                                      ; [] |538| 
     595            ;* --------------------------------------------------------------------------*
     596 000128 930F          TST.W     r15                   ; [] |538| 
     597 00012a 2464          JEQ       $C$L22                ; [] |538| 
     598                                                      ; [] |538| 
     599            ;* --------------------------------------------------------------------------*
     600 00012c       $C$L14:    
     601 00012c 803F          SUB.W     #48,r15               ; [] |538| 
         00012e 0030 
     602 000130 730E          SUBC.W    #0,r14                ; [] |538| 
     603 000132 2002          JNE       $C$L15                ; [] |538| 
     604                                                      ; [] |538| 
     605            ;* --------------------------------------------------------------------------*
     606 000134 930F          TST.W     r15                   ; [] |538| 
     607 000136 2426          JEQ       $C$L21                ; [] |538| 
     608                                                      ; [] |538| 
     609            ;* --------------------------------------------------------------------------*
     610 000138       $C$L15:    
     611 000138 803F          SUB.W     #64,r15               ; [] |538| 
         00013a 0040 
     612 00013c 730E          SUBC.W    #0,r14                ; [] |538| 
     613 00013e 2002          JNE       $C$L16                ; [] |538| 
     614                                                      ; [] |538| 
MSP430 Assembler PC v4.2.1 Fri Mar 21 13:42:29 2014

Tools Copyright (c) 2003-2013 Texas Instruments Incorporated
C:\Users\409010~1\AppData\Local\Temp\0141212                         PAGE   13

     615            ;* --------------------------------------------------------------------------*
     616 000140 930F          TST.W     r15                   ; [] |538| 
     617 000142 2419          JEQ       $C$L20                ; [] |538| 
     618                                                      ; [] |538| 
     619            ;* --------------------------------------------------------------------------*
     620 000144       $C$L16:    
     621 000144 803F          SUB.W     #384,r15              ; [] |538| 
         000146 0180 
     622 000148 730E          SUBC.W    #0,r14                ; [] |538| 
     623 00014a 2002          JNE       $C$L17                ; [] |538| 
     624                                                      ; [] |538| 
     625            ;* --------------------------------------------------------------------------*
     626 00014c 930F          TST.W     r15                   ; [] |538| 
     627 00014e 2413          JEQ       $C$L20                ; [] |538| 
     628                                                      ; [] |538| 
     629            ;* --------------------------------------------------------------------------*
     630 000150       $C$L17:    
     631 000150 803F          SUB.W     #1536,r15             ; [] |538| 
         000152 0600 
     632 000154 730E          SUBC.W    #0,r14                ; [] |538| 
     633 000156 2002          JNE       $C$L18                ; [] |538| 
     634                                                      ; [] |538| 
     635            ;* --------------------------------------------------------------------------*
     636 000158 930F          TST.W     r15                   ; [] |538| 
     637 00015a 2402          JEQ       $C$L19                ; [] |538| 
     638                                                      ; [] |538| 
     639            ;* --------------------------------------------------------------------------*
     640 00015c       $C$L18:    
     641                    .dwpsn  file "C:/Users/409010855/Documents/GitHub/CHARM/Embedded_Voltmeter/Basic WiFi Source/S
     642 00015c 430C          MOV.W     #0,r12                ; [] |615| 
     643 00015e 3C7C          JMP       $C$L32                ; [] |615| 
     644                                                      ; [] |615| 
     645            ;* --------------------------------------------------------------------------*
     646 000160       $C$L19:    
     647                    .dwpsn  file "C:/Users/409010855/Documents/GitHub/CHARM/Embedded_Voltmeter/Basic WiFi Source/S
     648 000160 1800!         TSTX.A    &tSLInformation+20    ; [] |603| 
         000162 93C2 
         000164 0014 
     649 000166 2477          JEQ       $C$L31                ; [] |603| 
     650                                                      ; [] |603| 
     651            ;* --------------------------------------------------------------------------*
     652                    .dwpsn  file "C:/Users/409010855/Documents/GitHub/CHARM/Embedded_Voltmeter/Basic WiFi Source/S
     653 000168 403E          MOV.W     #5,r14                ; [] |608| 
         00016a 0005 
     654 00016c 5A0E          ADD.W     r10,r14               ; [] |608| 
     655 00016e 403C          MOV.W     #34816,r12            ; [] |608| 
         000170 8800 
     656 000172 435F          MOV.B     #1,r15                ; [] |608| 
     657 000174 3C6D          JMP       $C$L29                ; [] |608| 
     658                                                      ; [] |608| 
     659            ;* --------------------------------------------------------------------------*
     660 000176       $C$L20:    
     661                    .dwpsn  file "C:/Users/409010855/Documents/GitHub/CHARM/Embedded_Voltmeter/Basic WiFi Source/S
     662 000176 1800!         TSTX.A    &tSLInformation+20    ; [] |546| 
         000178 93C2 
MSP430 Assembler PC v4.2.1 Fri Mar 21 13:42:29 2014

Tools Copyright (c) 2003-2013 Texas Instruments Incorporated
C:\Users\409010~1\AppData\Local\Temp\0141212                         PAGE   14

         00017a 0014 
     663 00017c 246C          JEQ       $C$L31                ; [] |546| 
     664                                                      ; [] |546| 
     665            ;* --------------------------------------------------------------------------*
     666                    .dwpsn  file "C:/Users/409010855/Documents/GitHub/CHARM/Embedded_Voltmeter/Basic WiFi Source/S
     667 00017e 430E          MOV.W     #0,r14                ; [] |548| 
     668 000180 434F          MOV.B     #0,r15                ; [] |548| 
     669 000182 3C67          JMP       $C$L30                ; [] |548| 
     670                                                      ; [] |548| 
     671            ;* --------------------------------------------------------------------------*
     672            $C$L21:    
     673            $C$DW$50        .dwtag  DW_TAG_TI_branch
     674                    .dwattr $C$DW$50, DW_AT_low_pc(0x00)
     675                    .dwattr $C$DW$50, DW_AT_name("$abproc1")
     676                    .dwattr $C$DW$50, DW_AT_TI_call
     677 000184 13B0!         CALLA     #$abproc1             ; [] 
         000186 026C 
     678                                                      ; [] 
     679                    .dwpsn  file "C:/Users/409010855/Documents/GitHub/CHARM/Embedded_Voltmeter/Basic WiFi Source/S
     680 000188 430D          MOV.W     #0,r13                ; [] |588| 
     681            $C$DW$51        .dwtag  DW_TAG_TI_branch
     682                    .dwattr $C$DW$51, DW_AT_low_pc(0x00)
     683                    .dwattr $C$DW$51, DW_AT_name("STREAM_TO_UINT32_f")
     684                    .dwattr $C$DW$51, DW_AT_TI_call
     685 00018a 13B0!         CALLA     #STREAM_TO_UINT32_f   ; [] |588| 
         00018c 0000 
     686                                                      ; [] |588| 
     687 00018e 4C81          MOV.W     r12,0(SP)             ; [] |588| 
         000190 0000 
     688 000192 4D81          MOV.W     r13,2(SP)             ; [] |588| 
         000194 0002 
     689            $C$DW$52        .dwtag  DW_TAG_TI_branch
     690                    .dwattr $C$DW$52, DW_AT_low_pc(0x00)
     691                    .dwattr $C$DW$52, DW_AT_name("$abproc1")
     692                    .dwattr $C$DW$52, DW_AT_TI_call
     693 000196 13B0!         CALLA     #$abproc1             ; [] 
         000198 026C 
     694                                                      ; [] 
     695                    .dwpsn  file "C:/Users/409010855/Documents/GitHub/CHARM/Embedded_Voltmeter/Basic WiFi Source/S
     696 00019a 422D          MOV.W     #4,r13                ; [] |589| 
     697            $C$DW$53        .dwtag  DW_TAG_TI_branch
     698                    .dwattr $C$DW$53, DW_AT_low_pc(0x00)
     699                    .dwattr $C$DW$53, DW_AT_name("STREAM_TO_UINT32_f")
     700                    .dwattr $C$DW$53, DW_AT_TI_call
     701 00019c 13B0!         CALLA     #STREAM_TO_UINT32_f   ; [] |589| 
         00019e 0000 
     702                                                      ; [] |589| 
     703 0001a0 4C81          MOV.W     r12,4(SP)             ; [] |589| 
         0001a2 0004 
     704 0001a4 4D81          MOV.W     r13,6(SP)             ; [] |589| 
         0001a6 0006 
     705            $C$DW$54        .dwtag  DW_TAG_TI_branch
     706                    .dwattr $C$DW$54, DW_AT_low_pc(0x00)
     707                    .dwattr $C$DW$54, DW_AT_name("$abproc1")
     708                    .dwattr $C$DW$54, DW_AT_TI_call
MSP430 Assembler PC v4.2.1 Fri Mar 21 13:42:29 2014

Tools Copyright (c) 2003-2013 Texas Instruments Incorporated
C:\Users\409010~1\AppData\Local\Temp\0141212                         PAGE   15

     709 0001a8 13B0!         CALLA     #$abproc1             ; [] 
         0001aa 026C 
     710                                                      ; [] 
     711                    .dwpsn  file "C:/Users/409010855/Documents/GitHub/CHARM/Embedded_Voltmeter/Basic WiFi Source/S
     712 0001ac 423D          MOV.W     #8,r13                ; [] |590| 
     713            $C$DW$55        .dwtag  DW_TAG_TI_branch
     714                    .dwattr $C$DW$55, DW_AT_low_pc(0x00)
     715                    .dwattr $C$DW$55, DW_AT_name("STREAM_TO_UINT32_f")
     716                    .dwattr $C$DW$55, DW_AT_TI_call
     717 0001ae 13B0!         CALLA     #STREAM_TO_UINT32_f   ; [] |590| 
         0001b0 0000 
     718                                                      ; [] |590| 
     719 0001b2 4C81          MOV.W     r12,8(SP)             ; [] |590| 
         0001b4 0008 
     720 0001b6 4D81          MOV.W     r13,10(SP)            ; [] |590| 
         0001b8 000A 
     721            $C$DW$56        .dwtag  DW_TAG_TI_branch
     722                    .dwattr $C$DW$56, DW_AT_low_pc(0x00)
     723                    .dwattr $C$DW$56, DW_AT_name("$abproc1")
     724                    .dwattr $C$DW$56, DW_AT_TI_call
     725 0001ba 13B0!         CALLA     #$abproc1             ; [] 
         0001bc 026C 
     726                                                      ; [] 
     727                    .dwpsn  file "C:/Users/409010855/Documents/GitHub/CHARM/Embedded_Voltmeter/Basic WiFi Source/S
     728 0001be 403D          MOV.W     #12,r13               ; [] |591| 
         0001c0 000C 
     729            $C$DW$57        .dwtag  DW_TAG_TI_branch
     730                    .dwattr $C$DW$57, DW_AT_low_pc(0x00)
     731                    .dwattr $C$DW$57, DW_AT_name("STREAM_TO_UINT32_f")
     732                    .dwattr $C$DW$57, DW_AT_TI_call
     733 0001c2 13B0!         CALLA     #STREAM_TO_UINT32_f   ; [] |591| 
         0001c4 0000 
     734                                                      ; [] |591| 
     735 0001c6 4C81          MOV.W     r12,12(SP)            ; [] |591| 
         0001c8 000C 
     736 0001ca 4D81          MOV.W     r13,14(SP)            ; [] |591| 
         0001cc 000E 
     737            $C$DW$58        .dwtag  DW_TAG_TI_branch
     738                    .dwattr $C$DW$58, DW_AT_low_pc(0x00)
     739                    .dwattr $C$DW$58, DW_AT_name("$abproc1")
     740                    .dwattr $C$DW$58, DW_AT_TI_call
     741 0001ce 13B0!         CALLA     #$abproc1             ; [] 
         0001d0 026C 
     742                                                      ; [] 
     743                    .dwpsn  file "C:/Users/409010855/Documents/GitHub/CHARM/Embedded_Voltmeter/Basic WiFi Source/S
     744 0001d2 403D          MOV.W     #16,r13               ; [] |592| 
         0001d4 0010 
     745            $C$DW$59        .dwtag  DW_TAG_TI_branch
     746                    .dwattr $C$DW$59, DW_AT_low_pc(0x00)
     747                    .dwattr $C$DW$59, DW_AT_name("STREAM_TO_UINT32_f")
     748                    .dwattr $C$DW$59, DW_AT_TI_call
     749 0001d6 13B0!         CALLA     #STREAM_TO_UINT32_f   ; [] |592| 
         0001d8 0000 
     750                                                      ; [] |592| 
     751 0001da 4C81          MOV.W     r12,16(SP)            ; [] |592| 
MSP430 Assembler PC v4.2.1 Fri Mar 21 13:42:29 2014

Tools Copyright (c) 2003-2013 Texas Instruments Incorporated
C:\Users\409010~1\AppData\Local\Temp\0141212                         PAGE   16

         0001dc 0010 
     752 0001de 4D81          MOV.W     r13,18(SP)            ; [] |592| 
         0001e0 0012 
     753                    .dwpsn  file "C:/Users/409010855/Documents/GitHub/CHARM/Embedded_Voltmeter/Basic WiFi Source/S
     754 0001e2 1800!         TSTX.A    &tSLInformation+20    ; [] |594| 
         0001e4 93C2 
         0001e6 0014 
     755 0001e8 2436          JEQ       $C$L31                ; [] |594| 
     756                                                      ; [] |594| 
     757            ;* --------------------------------------------------------------------------*
     758                    .dwpsn  file "C:/Users/409010855/Documents/GitHub/CHARM/Embedded_Voltmeter/Basic WiFi Source/S
     759 0001ea 403C          MOV.W     #32832,r12            ; [] |596| 
         0001ec 8040 
     760 0001ee 407F          MOV.B     #20,r15               ; [] |596| 
         0001f0 0014 
     761 0001f2 3C2D          JMP       $C$L28                ; [] |596| 
     762                                                      ; [] |596| 
     763            ;* --------------------------------------------------------------------------*
     764 0001f4       $C$L22:    
     765                    .dwpsn  file "C:/Users/409010855/Documents/GitHub/CHARM/Embedded_Voltmeter/Basic WiFi Source/S
     766 0001f4 403F          MOV.W     #5,r15                ; [] |557| 
         0001f6 0005 
     767 0001f8 5A0F          ADD.W     r10,r15               ; [] |557| 
     768 0001fa 0FCC          MOVA      r15,r12               ; [] 
     769                    .dwpsn  file "C:/Users/409010855/Documents/GitHub/CHARM/Embedded_Voltmeter/Basic WiFi Source/S
     770 0001fc 422D          MOV.W     #4,r13                ; [] |560| 
     771                    .dwpsn  file "C:/Users/409010855/Documents/GitHub/CHARM/Embedded_Voltmeter/Basic WiFi Source/S
     772 0001fe 01CE          MOVA      SP,r14                ; [] |555| 
     773            ;* --------------------------------------------------------------------------*
     774            ;*   BEGIN LOOP $C$L23
     775            ;*
     776            ;*   Loop source line                : 560
     777            ;*   Loop closing brace source line  : 560
     778            ;*   Known Minimum Trip Count        : 4
     779            ;*   Known Maximum Trip Count        : 4
     780            ;*   Known Max Trip Count Factor     : 4
     781            ;* --------------------------------------------------------------------------*
     782            $C$L23:    
     783            $C$DW$60        .dwtag  DW_TAG_TI_branch
     784                    .dwattr $C$DW$60, DW_AT_low_pc(0x00)
     785                    .dwattr $C$DW$60, DW_AT_name("$abproc0")
     786                    .dwattr $C$DW$60, DW_AT_TI_call
     787 000200 13B0!         CALLA     #$abproc0             ; [] 
         000202 0262 
     788                                                      ; [] 
     789                    .dwpsn  file "C:/Users/409010855/Documents/GitHub/CHARM/Embedded_Voltmeter/Basic WiFi Source/S
     790 000204 23FD          JNE       $C$L23                ; [] |560| 
     791                                                      ; [] |560| 
     792            ;* --------------------------------------------------------------------------*
     793 000206 522F          ADD.W     #4,r15                ; [] 
     794 000208 0FCC          MOVA      r15,r12               ; [] 
     795                    .dwpsn  file "C:/Users/409010855/Documents/GitHub/CHARM/Embedded_Voltmeter/Basic WiFi Source/S
     796 00020a 422D          MOV.W     #4,r13                ; [] |563| 
     797            ;* --------------------------------------------------------------------------*
     798            ;*   BEGIN LOOP $C$L24
MSP430 Assembler PC v4.2.1 Fri Mar 21 13:42:29 2014

Tools Copyright (c) 2003-2013 Texas Instruments Incorporated
C:\Users\409010~1\AppData\Local\Temp\0141212                         PAGE   17

     799            ;*
     800            ;*   Loop source line                : 563
     801            ;*   Loop closing brace source line  : 563
     802            ;*   Known Minimum Trip Count        : 4
     803            ;*   Known Maximum Trip Count        : 4
     804            ;*   Known Max Trip Count Factor     : 4
     805            ;* --------------------------------------------------------------------------*
     806            $C$L24:    
     807            $C$DW$61        .dwtag  DW_TAG_TI_branch
     808                    .dwattr $C$DW$61, DW_AT_low_pc(0x00)
     809                    .dwattr $C$DW$61, DW_AT_name("$abproc0")
     810                    .dwattr $C$DW$61, DW_AT_TI_call
     811 00020c 13B0!         CALLA     #$abproc0             ; [] 
         00020e 0262 
     812                                                      ; [] 
     813 000210 23FD          JNE       $C$L24                ; [] |563| 
     814                                                      ; [] |563| 
     815            ;* --------------------------------------------------------------------------*
     816 000212 522F          ADD.W     #4,r15                ; [] 
     817 000214 0FCC          MOVA      r15,r12               ; [] 
     818                    .dwpsn  file "C:/Users/409010855/Documents/GitHub/CHARM/Embedded_Voltmeter/Basic WiFi Source/S
     819 000216 422D          MOV.W     #4,r13                ; [] |566| 
     820            ;* --------------------------------------------------------------------------*
     821            ;*   BEGIN LOOP $C$L25
     822            ;*
     823            ;*   Loop source line                : 566
     824            ;*   Loop closing brace source line  : 566
     825            ;*   Known Minimum Trip Count        : 4
     826            ;*   Known Maximum Trip Count        : 4
     827            ;*   Known Max Trip Count Factor     : 4
     828            ;* --------------------------------------------------------------------------*
     829            $C$L25:    
     830            $C$DW$62        .dwtag  DW_TAG_TI_branch
     831                    .dwattr $C$DW$62, DW_AT_low_pc(0x00)
     832                    .dwattr $C$DW$62, DW_AT_name("$abproc0")
     833                    .dwattr $C$DW$62, DW_AT_TI_call
     834 000218 13B0!         CALLA     #$abproc0             ; [] 
         00021a 0262 
     835                                                      ; [] 
     836 00021c 23FD          JNE       $C$L25                ; [] |566| 
     837                                                      ; [] |566| 
     838            ;* --------------------------------------------------------------------------*
     839 00021e 522F          ADD.W     #4,r15                ; [] 
     840 000220 0FCC          MOVA      r15,r12               ; [] 
     841                    .dwpsn  file "C:/Users/409010855/Documents/GitHub/CHARM/Embedded_Voltmeter/Basic WiFi Source/S
     842 000222 422D          MOV.W     #4,r13                ; [] |569| 
     843            ;* --------------------------------------------------------------------------*
     844            ;*   BEGIN LOOP $C$L26
     845            ;*
     846            ;*   Loop source line                : 569
     847            ;*   Loop closing brace source line  : 569
     848            ;*   Known Minimum Trip Count        : 4
     849            ;*   Known Maximum Trip Count        : 4
     850            ;*   Known Max Trip Count Factor     : 4
     851            ;* --------------------------------------------------------------------------*
MSP430 Assembler PC v4.2.1 Fri Mar 21 13:42:29 2014

Tools Copyright (c) 2003-2013 Texas Instruments Incorporated
C:\Users\409010~1\AppData\Local\Temp\0141212                         PAGE   18

     852            $C$L26:    
     853            $C$DW$63        .dwtag  DW_TAG_TI_branch
     854                    .dwattr $C$DW$63, DW_AT_low_pc(0x00)
     855                    .dwattr $C$DW$63, DW_AT_name("$abproc0")
     856                    .dwattr $C$DW$63, DW_AT_TI_call
     857 000224 13B0!         CALLA     #$abproc0             ; [] 
         000226 0262 
     858                                                      ; [] 
     859 000228 23FD          JNE       $C$L26                ; [] |569| 
     860                                                      ; [] |569| 
     861            ;* --------------------------------------------------------------------------*
     862 00022a 522F          ADD.W     #4,r15                ; [] 
     863                    .dwpsn  file "C:/Users/409010855/Documents/GitHub/CHARM/Embedded_Voltmeter/Basic WiFi Source/S
     864 00022c 422D          MOV.W     #4,r13                ; [] |572| 
     865            ;* --------------------------------------------------------------------------*
     866            ;*   BEGIN LOOP $C$L27
     867            ;*
     868            ;*   Loop source line                : 572
     869            ;*   Loop closing brace source line  : 572
     870            ;*   Known Minimum Trip Count        : 4
     871            ;*   Known Maximum Trip Count        : 4
     872            ;*   Known Max Trip Count Factor     : 4
     873            ;* --------------------------------------------------------------------------*
     874 00022e       $C$L27:    
     875 00022e 531E          ADD.W     #1,r14                ; [] |572| 
     876 000230 4FFE          MOV.B     @r15+,-1(r14)         ; [] |572| 
         000232 FFFF 
     877 000234 831D          SUB.W     #1,r13                ; [] |572| 
     878 000236 23FB          JNE       $C$L27                ; [] |572| 
     879                                                      ; [] |572| 
     880            ;* --------------------------------------------------------------------------*
     881                    .dwpsn  file "C:/Users/409010855/Documents/GitHub/CHARM/Embedded_Voltmeter/Basic WiFi Source/S
     882 000238 4ADE          MOV.B     4(r10),0(r14)         ; [] |574| 
         00023a 0004 
         00023c 0000 
     883                    .dwpsn  file "C:/Users/409010855/Documents/GitHub/CHARM/Embedded_Voltmeter/Basic WiFi Source/S
     884 00023e 1800!         TSTX.A    &tSLInformation+20    ; [] |577| 
         000240 93C2 
         000242 0014 
     885 000244 2408          JEQ       $C$L31                ; [] |577| 
     886                                                      ; [] |577| 
     887            ;* --------------------------------------------------------------------------*
     888                    .dwpsn  file "C:/Users/409010855/Documents/GitHub/CHARM/Embedded_Voltmeter/Basic WiFi Source/S
     889 000246 403C          MOV.W     #32784,r12            ; [] |579| 
         000248 8010 
     890 00024a 407F          MOV.B     #21,r15               ; [] |579| 
         00024c 0015 
     891            ;* --------------------------------------------------------------------------*
     892 00024e       $C$L28:    
     893 00024e 01CE          MOVA      SP,r14                ; [] |579| 
     894            ;* --------------------------------------------------------------------------*
     895 000250       $C$L29:    
     896 000250 430D          MOV.W     #0,r13                ; [] |579| 
     897            ;* --------------------------------------------------------------------------*
     898            $C$L30:    
MSP430 Assembler PC v4.2.1 Fri Mar 21 13:42:29 2014

Tools Copyright (c) 2003-2013 Texas Instruments Incorporated
C:\Users\409010~1\AppData\Local\Temp\0141212                         PAGE   19

     899            $C$DW$64        .dwtag  DW_TAG_TI_branch
     900                    .dwattr $C$DW$64, DW_AT_low_pc(0x00)
     901                    .dwattr $C$DW$64, DW_AT_TI_call
     902                    .dwattr $C$DW$64, DW_AT_TI_indirect
     903 000252 1380!         CALLA     &tSLInformation+20    ; [] |579| 
         000254 0014 
     904                                                      ; [] |579| 
     905            ;* --------------------------------------------------------------------------*
     906 000256       $C$L31:    
     907                    .dwpsn  file "C:/Users/409010855/Documents/GitHub/CHARM/Embedded_Voltmeter/Basic WiFi Source/S
     908 000256 431C          MOV.W     #1,r12                ; [] |617| 
     909            ;* --------------------------------------------------------------------------*
     910 000258       $C$L32:    
     911 000258 430D          MOV.W     #0,r13                ; [] |617| 
     912 00025a 5031          ADD.W     #22,SP                ; [] 
         00025c 0016 
     913                    .dwcfi  cfa_offset, 24
     914 00025e 1646          POPM.A    #5,r10                ; [] 
     915                    .dwcfi  restore_reg, 6
     916                    .dwcfi  restore_reg, 7
     917                    .dwcfi  restore_reg, 8
     918                    .dwcfi  restore_reg, 9
     919                    .dwcfi  restore_reg, 10
     920                    .dwcfi  cfa_offset, 4
     921            $C$DW$65        .dwtag  DW_TAG_TI_branch
     922                    .dwattr $C$DW$65, DW_AT_low_pc(0x00)
     923                    .dwattr $C$DW$65, DW_AT_TI_return
     924 000260 0110          RETA      ; [] 
     925                    ; [] 
     926                    .dwattr $C$DW$30, DW_AT_TI_end_file("C:/Users/409010855/Documents/GitHub/CHARM/Embedded_Voltme
     927                    .dwattr $C$DW$30, DW_AT_TI_end_line(0x28a)
     928                    .dwattr $C$DW$30, DW_AT_TI_end_column(0x01)
     929                    .dwendentry
     930                    .dwendtag $C$DW$30
     931            
     932 000262               .sect   ".text:hci_unsol_event_handler"
     933            
     934            $C$DW$66        .dwtag  DW_TAG_subprogram, DW_AT_name("")
     935                    .dwattr $C$DW$66, DW_AT_low_pc($abproc0)
     936                    .dwattr $C$DW$66, DW_AT_high_pc(0x00)
     937                    .dwattr $C$DW$66, DW_AT_TI_symbol_name("$abproc0")
     938            
     939                    .dwfde $C$DW$CIE, $abproc0
     940            
     941            ;*****************************************************************************
     942            ;* ABSTRACTED PROCEDURE: $abproc0                                            *
     943            ;*****************************************************************************
     944 000262       $abproc0:
     945                    .dwcfi  cfa_offset, 4
     946 000262 531E          ADD.W     #1,r14                ; [] |560| 
     947 000264 4CFE          MOV.B     @r12+,-1(r14)         ; [] |560| 
         000266 FFFF 
     948 000268 831D          SUB.W     #1,r13                ; [] |560| 
     949 00026a 0110          RETA      ; [] 
     950                    ; [] 
MSP430 Assembler PC v4.2.1 Fri Mar 21 13:42:29 2014

Tools Copyright (c) 2003-2013 Texas Instruments Incorporated
C:\Users\409010~1\AppData\Local\Temp\0141212                         PAGE   20

     951                    .dwendentry
     952                    .dwendtag $C$DW$66
     953            
     954 00026c               .sect   ".text:hci_unsol_event_handler"
     955            
     956            $C$DW$67        .dwtag  DW_TAG_subprogram, DW_AT_name("")
     957                    .dwattr $C$DW$67, DW_AT_low_pc($abproc1)
     958                    .dwattr $C$DW$67, DW_AT_high_pc(0x00)
     959                    .dwattr $C$DW$67, DW_AT_TI_symbol_name("$abproc1")
     960            
     961                    .dwfde $C$DW$CIE, $abproc1
     962            
     963            ;*****************************************************************************
     964            ;* ABSTRACTED PROCEDURE: $abproc1                                            *
     965            ;*****************************************************************************
     966 00026c       $abproc1:
     967                    .dwcfi  cfa_offset, 4
     968 00026c 403C          MOV.W     #5,r12                ; [] |588| 
         00026e 0005 
     969 000270 5A0C          ADD.W     r10,r12               ; [] |588| 
     970 000272 0110          RETA      ; [] 
     971                    ; [] 
     972                    .dwendentry
     973                    .dwendtag $C$DW$67
     974            
     975 000000               .sect   ".text:hci_unsolicited_event_handler"
     976                    .align  2
     977                    .clink
     978                    .global hci_unsolicited_event_handler
     979            
     980            $C$DW$68        .dwtag  DW_TAG_subprogram, DW_AT_name("hci_unsolicited_event_handler")
     981                    .dwattr $C$DW$68, DW_AT_low_pc(hci_unsolicited_event_handler)
     982                    .dwattr $C$DW$68, DW_AT_high_pc(0x00)
     983                    .dwattr $C$DW$68, DW_AT_TI_symbol_name("hci_unsolicited_event_handler")
     984                    .dwattr $C$DW$68, DW_AT_external
     985                    .dwattr $C$DW$68, DW_AT_type(*$C$DW$T$32)
     986                    .dwattr $C$DW$68, DW_AT_TI_begin_file("C:/Users/409010855/Documents/GitHub/CHARM/Embedded_Volt
     987                    .dwattr $C$DW$68, DW_AT_TI_begin_line(0x298)
     988                    .dwattr $C$DW$68, DW_AT_TI_begin_column(0x07)
     989                    .dwattr $C$DW$68, DW_AT_TI_max_frame_size(0x0c)
     990                    .dwpsn  file "C:/Users/409010855/Documents/GitHub/CHARM/Embedded_Voltmeter/Basic WiFi Source/S
     991            
     992                    .dwfde $C$DW$CIE, hci_unsolicited_event_handler
     993            
     994            ;*****************************************************************************
     995            ;* FUNCTION NAME: hci_unsolicited_event_handler                              *
     996            ;*                                                                           *
     997            ;*   Regs Modified     : SP,SR,r9,r10,r11,r12,r13,r14,r15                    *
     998            ;*   Regs Used         : SP,SR,r9,r10,r11,r12,r13,r14,r15                    *
     999            ;*   Local Frame Size  : 0 Args + 0 Auto + 8 Save = 8 byte                   *
    1000            ;*****************************************************************************
    1001            hci_unsolicited_event_handler:
    1002            ;* --------------------------------------------------------------------------*
    1003            ;* r12   assigned to pucReceivedData
    1004            $C$DW$69        .dwtag  DW_TAG_variable, DW_AT_name("pucReceivedData")
MSP430 Assembler PC v4.2.1 Fri Mar 21 13:42:29 2014

Tools Copyright (c) 2003-2013 Texas Instruments Incorporated
C:\Users\409010~1\AppData\Local\Temp\0141212                         PAGE   21

    1005                    .dwattr $C$DW$69, DW_AT_TI_symbol_name("pucReceivedData")
    1006                    .dwattr $C$DW$69, DW_AT_type(*$C$DW$T$21)
    1007                    .dwattr $C$DW$69, DW_AT_location[DW_OP_reg12]
    1008            ;* r10   assigned to res
    1009            $C$DW$70        .dwtag  DW_TAG_variable, DW_AT_name("res")
    1010                    .dwattr $C$DW$70, DW_AT_TI_symbol_name("res")
    1011                    .dwattr $C$DW$70, DW_AT_type(*$C$DW$T$25)
    1012                    .dwattr $C$DW$70, DW_AT_location[DW_OP_reg10 DW_OP_piece 2 DW_OP_reg11 DW_OP_piece 2]
    1013                    .dwcfi  cfa_offset, 4
    1014                    .dwcfi  save_reg_to_mem, 16, -4
    1015 000000 141A          PUSHM.A   #2,r10                ; [] 
    1016                    .dwcfi  save_reg_to_mem, 10, -8
    1017                    .dwcfi  save_reg_to_mem, 9, -12
    1018                    .dwcfi  cfa_offset, 12
    1019                    .dwpsn  file "C:/Users/409010855/Documents/GitHub/CHARM/Embedded_Voltmeter/Basic WiFi Source/S
    1020 000002 430A          MOV.W     #0,r10                ; [] |666| 
    1021 000004 4309          MOV.W     #0,r9                 ; [] |666| 
    1022                    .dwpsn  file "C:/Users/409010855/Documents/GitHub/CHARM/Embedded_Voltmeter/Basic WiFi Source/S
    1023 000006 9382          TST.W     &tSLInformation+2     ; [] |669| 
         000008 0002!
    1024 00000a 2410          JEQ       $C$L33                ; [] |669| 
    1025                                                      ; [] |669| 
    1026            ;* --------------------------------------------------------------------------*
    1027                    .dwpsn  file "C:/Users/409010855/Documents/GitHub/CHARM/Embedded_Voltmeter/Basic WiFi Source/S
    1028 00000c 421C          MOV.W     &tSLInformation+4,r12 ; [] |671| 
         00000e 0004!
    1029                    .dwpsn  file "C:/Users/409010855/Documents/GitHub/CHARM/Embedded_Voltmeter/Basic WiFi Source/S
    1030 000010 422F          MOV.W     #4,r15                ; [] |673| 
    1031 000012 9C6F          CMP.B     @r12,r15              ; [] |673| 
    1032 000014 200B          JNE       $C$L33                ; [] |673| 
    1033                                                      ; [] |673| 
    1034            ;* --------------------------------------------------------------------------*
    1035                    .dwpsn  file "C:/Users/409010855/Documents/GitHub/CHARM/Embedded_Voltmeter/Basic WiFi Source/S
    1036            $C$DW$71        .dwtag  DW_TAG_TI_branch
    1037                    .dwattr $C$DW$71, DW_AT_low_pc(0x00)
    1038                    .dwattr $C$DW$71, DW_AT_name("hci_unsol_event_handler")
    1039                    .dwattr $C$DW$71, DW_AT_TI_call
    1040 000016 13B0!         CALLA     #hci_unsol_event_handler ; [] |677| 
         000018 0000 
    1041                                                      ; [] |677| 
    1042 00001a 930D          TST.W     r13                   ; [] |677| 
    1043 00001c 2007          JNE       $C$L33                ; [] |677| 
    1044                                                      ; [] |677| 
    1045            ;* --------------------------------------------------------------------------*
    1046 00001e 931C          CMP.W     #1,r12                ; [] |677| 
    1047 000020 2005          JNE       $C$L33                ; [] |677| 
    1048                                                      ; [] |677| 
    1049            ;* --------------------------------------------------------------------------*
    1050                    .dwpsn  file "C:/Users/409010855/Documents/GitHub/CHARM/Embedded_Voltmeter/Basic WiFi Source/S
    1051 000022 4382          MOV.W     #0,&tSLInformation+2  ; [] |682| 
         000024 0002!
    1052                    .dwpsn  file "C:/Users/409010855/Documents/GitHub/CHARM/Embedded_Voltmeter/Basic WiFi Source/S
    1053            $C$DW$72        .dwtag  DW_TAG_TI_branch
    1054                    .dwattr $C$DW$72, DW_AT_low_pc(0x00)
    1055                    .dwattr $C$DW$72, DW_AT_name("SpiResumeSpi")
MSP430 Assembler PC v4.2.1 Fri Mar 21 13:42:29 2014

Tools Copyright (c) 2003-2013 Texas Instruments Incorporated
C:\Users\409010~1\AppData\Local\Temp\0141212                         PAGE   22

    1056                    .dwattr $C$DW$72, DW_AT_TI_call
    1057 000026 13B0!         CALLA     #SpiResumeSpi         ; [] |685| 
         000028 0000 
    1058                                                      ; [] |685| 
    1059                    .dwpsn  file "C:/Users/409010855/Documents/GitHub/CHARM/Embedded_Voltmeter/Basic WiFi Source/S
    1060 00002a 431A          MOV.W     #1,r10                ; [] |684| 
    1061            ;* --------------------------------------------------------------------------*
    1062 00002c       $C$L33:    
    1063                    .dwpsn  file "C:/Users/409010855/Documents/GitHub/CHARM/Embedded_Voltmeter/Basic WiFi Source/S
    1064 00002c 0ACC          MOVA      r10,r12               ; [] |690| 
    1065 00002e 09CD          MOVA      r9,r13                ; [] |690| 
    1066 000030 1619          POPM.A    #2,r10                ; [] 
    1067                    .dwcfi  restore_reg, 9
    1068                    .dwcfi  restore_reg, 10
    1069                    .dwcfi  cfa_offset, 4
    1070            $C$DW$73        .dwtag  DW_TAG_TI_branch
    1071                    .dwattr $C$DW$73, DW_AT_low_pc(0x00)
    1072                    .dwattr $C$DW$73, DW_AT_TI_return
    1073 000032 0110          RETA      ; [] 
    1074                    ; [] 
    1075                    .dwattr $C$DW$68, DW_AT_TI_end_file("C:/Users/409010855/Documents/GitHub/CHARM/Embedded_Voltme
    1076                    .dwattr $C$DW$68, DW_AT_TI_end_line(0x2b3)
    1077                    .dwattr $C$DW$68, DW_AT_TI_end_column(0x01)
    1078                    .dwendentry
    1079                    .dwendtag $C$DW$68
    1080            
    1081 000000               .sect   ".text:hci_unsol_handle_patch_request"
    1082                    .align  2
    1083                    .clink
    1084                    .global hci_unsol_handle_patch_request
    1085            
    1086            $C$DW$74        .dwtag  DW_TAG_subprogram, DW_AT_name("hci_unsol_handle_patch_request")
    1087                    .dwattr $C$DW$74, DW_AT_low_pc(hci_unsol_handle_patch_request)
    1088                    .dwattr $C$DW$74, DW_AT_high_pc(0x00)
    1089                    .dwattr $C$DW$74, DW_AT_TI_symbol_name("hci_unsol_handle_patch_request")
    1090                    .dwattr $C$DW$74, DW_AT_external
    1091                    .dwattr $C$DW$74, DW_AT_TI_begin_file("C:/Users/409010855/Documents/GitHub/CHARM/Embedded_Volt
    1092                    .dwattr $C$DW$74, DW_AT_TI_begin_line(0x8d)
    1093                    .dwattr $C$DW$74, DW_AT_TI_begin_column(0x06)
    1094                    .dwattr $C$DW$74, DW_AT_TI_max_frame_size(0x08)
    1095                    .dwpsn  file "C:/Users/409010855/Documents/GitHub/CHARM/Embedded_Voltmeter/Basic WiFi Source/S
    1096            
    1097                    .dwfde $C$DW$CIE, hci_unsol_handle_patch_request
    1098            $C$DW$75        .dwtag  DW_TAG_formal_parameter, DW_AT_name("event_hdr")
    1099                    .dwattr $C$DW$75, DW_AT_TI_symbol_name("event_hdr")
    1100                    .dwattr $C$DW$75, DW_AT_type(*$C$DW$T$24)
    1101                    .dwattr $C$DW$75, DW_AT_location[DW_OP_reg12]
    1102            
    1103            ;*****************************************************************************
    1104            ;* FUNCTION NAME: hci_unsol_handle_patch_request                             *
    1105            ;*                                                                           *
    1106            ;*   Regs Modified     : SP,SR,r11,r12,r13,r14,r15                           *
    1107            ;*   Regs Used         : SP,SR,r11,r12,r13,r14,r15                           *
    1108            ;*   Local Frame Size  : 0 Args + 4 Auto + 0 Save = 4 byte                   *
    1109            ;*****************************************************************************
MSP430 Assembler PC v4.2.1 Fri Mar 21 13:42:29 2014

Tools Copyright (c) 2003-2013 Texas Instruments Incorporated
C:\Users\409010~1\AppData\Local\Temp\0141212                         PAGE   23

    1110            hci_unsol_handle_patch_request:
    1111            ;* --------------------------------------------------------------------------*
    1112            ;* r12   assigned to event_hdr
    1113            $C$DW$76        .dwtag  DW_TAG_variable, DW_AT_name("event_hdr")
    1114                    .dwattr $C$DW$76, DW_AT_TI_symbol_name("event_hdr")
    1115                    .dwattr $C$DW$76, DW_AT_type(*$C$DW$T$109)
    1116                    .dwattr $C$DW$76, DW_AT_location[DW_OP_reg12]
    1117            $C$DW$77        .dwtag  DW_TAG_variable, DW_AT_name("ucLength")
    1118                    .dwattr $C$DW$77, DW_AT_TI_symbol_name("ucLength")
    1119                    .dwattr $C$DW$77, DW_AT_type(*$C$DW$T$25)
    1120                    .dwattr $C$DW$77, DW_AT_location[DW_OP_breg1 0]
    1121            ;* r14   assigned to patch
    1122            $C$DW$78        .dwtag  DW_TAG_variable, DW_AT_name("patch")
    1123                    .dwattr $C$DW$78, DW_AT_TI_symbol_name("patch")
    1124                    .dwattr $C$DW$78, DW_AT_type(*$C$DW$T$24)
    1125                    .dwattr $C$DW$78, DW_AT_location[DW_OP_reg14]
    1126            ;* r14   assigned to patch
    1127            $C$DW$79        .dwtag  DW_TAG_variable, DW_AT_name("patch")
    1128                    .dwattr $C$DW$79, DW_AT_TI_symbol_name("patch")
    1129                    .dwattr $C$DW$79, DW_AT_type(*$C$DW$T$24)
    1130                    .dwattr $C$DW$79, DW_AT_location[DW_OP_reg14]
    1131            ;* r12   assigned to patch
    1132            $C$DW$80        .dwtag  DW_TAG_variable, DW_AT_name("patch")
    1133                    .dwattr $C$DW$80, DW_AT_TI_symbol_name("patch")
    1134                    .dwattr $C$DW$80, DW_AT_type(*$C$DW$T$24)
    1135                    .dwattr $C$DW$80, DW_AT_location[DW_OP_reg12]
    1136                    .dwcfi  cfa_offset, 4
    1137                    .dwcfi  save_reg_to_mem, 16, -4
    1138 000000 8221          SUB.W     #4,SP                 ; [] 
    1139                    .dwcfi  cfa_offset, 8
    1140                    .dwpsn  file "C:/Users/409010855/Documents/GitHub/CHARM/Embedded_Voltmeter/Basic WiFi Source/S
    1141 000002 1800          MOVX.A    #0,0(SP)              ; [] |144| 
         000004 43C1 
         000006 0000 
    1142                    .dwpsn  file "C:/Users/409010855/Documents/GitHub/CHARM/Embedded_Voltmeter/Basic WiFi Source/S
    1143 000008 4C5F          MOV.B     5(r12),r15            ; [] |147| 
         00000a 0005 
    1144 00000c 831F          SUB.W     #1,r15                ; [] |147| 
    1145 00000e 2425          JEQ       $C$L39                ; [] |147| 
    1146                                                      ; [] |147| 
    1147            ;* --------------------------------------------------------------------------*
    1148 000010 831F          SUB.W     #1,r15                ; [] |147| 
    1149 000012 2412          JEQ       $C$L35                ; [] |147| 
    1150                                                      ; [] |147| 
    1151            ;* --------------------------------------------------------------------------*
    1152 000014 831F          SUB.W     #1,r15                ; [] |147| 
    1153 000016 2034          JNE       $C$L43                ; [] |147| 
    1154                                                      ; [] |147| 
    1155            ;* --------------------------------------------------------------------------*
    1156                    .dwpsn  file "C:/Users/409010855/Documents/GitHub/CHARM/Embedded_Voltmeter/Basic WiFi Source/S
    1157 000018 1800!         TSTX.A    &tSLInformation+16    ; [] |190| 
         00001a 93C2 
         00001c 0010 
    1158 00001e 2409          JEQ       $C$L34                ; [] |190| 
    1159                                                      ; [] |190| 
MSP430 Assembler PC v4.2.1 Fri Mar 21 13:42:29 2014

Tools Copyright (c) 2003-2013 Texas Instruments Incorporated
C:\Users\409010~1\AppData\Local\Temp\0141212                         PAGE   24

    1160            ;* --------------------------------------------------------------------------*
    1161                    .dwpsn  file "C:/Users/409010855/Documents/GitHub/CHARM/Embedded_Voltmeter/Basic WiFi Source/S
    1162 000020 01CC          MOVA      SP,r12                ; [] |192| 
    1163            $C$DW$81        .dwtag  DW_TAG_TI_branch
    1164                    .dwattr $C$DW$81, DW_AT_low_pc(0x00)
    1165                    .dwattr $C$DW$81, DW_AT_TI_call
    1166                    .dwattr $C$DW$81, DW_AT_TI_indirect
    1167 000022 1380!         CALLA     &tSLInformation+16    ; [] |192| 
         000024 0010 
    1168                                                      ; [] |192| 
    1169 000026 0CCE          MOVA      r12,r14               ; [] |192| 
    1170                    .dwpsn  file "C:/Users/409010855/Documents/GitHub/CHARM/Embedded_Voltmeter/Basic WiFi Source/S
    1171 000028 930E          TST.W     r14                   ; [] |194| 
    1172 00002a 2403          JEQ       $C$L34                ; [] |194| 
    1173                                                      ; [] |194| 
    1174            ;* --------------------------------------------------------------------------*
    1175                    .dwpsn  file "C:/Users/409010855/Documents/GitHub/CHARM/Embedded_Voltmeter/Basic WiFi Source/S
    1176 00002c 407C          MOV.B     #3,r12                ; [] |196| 
         00002e 0003 
    1177                    .dwpsn  file "C:/Users/409010855/Documents/GitHub/CHARM/Embedded_Voltmeter/Basic WiFi Source/S
    1178 000030 3C0E          JMP       $C$L36                ; [] |198| 
    1179                                                      ; [] |198| 
    1180            ;* --------------------------------------------------------------------------*
    1181 000032       $C$L34:    
    1182                    .dwpsn  file "C:/Users/409010855/Documents/GitHub/CHARM/Embedded_Voltmeter/Basic WiFi Source/S
    1183 000032 407C          MOV.B     #3,r12                ; [] |203| 
         000034 0003 
    1184                    .dwpsn  file "C:/Users/409010855/Documents/GitHub/CHARM/Embedded_Voltmeter/Basic WiFi Source/S
    1185 000036 3C0E          JMP       $C$L38                ; [] |205| 
    1186                                                      ; [] |205| 
    1187            ;* --------------------------------------------------------------------------*
    1188 000038       $C$L35:    
    1189                    .dwpsn  file "C:/Users/409010855/Documents/GitHub/CHARM/Embedded_Voltmeter/Basic WiFi Source/S
    1190 000038 1800!         TSTX.A    &tSLInformation+8     ; [] |170| 
         00003a 93C2 
         00003c 0008 
    1191 00003e 2409          JEQ       $C$L37                ; [] |170| 
    1192                                                      ; [] |170| 
    1193            ;* --------------------------------------------------------------------------*
    1194                    .dwpsn  file "C:/Users/409010855/Documents/GitHub/CHARM/Embedded_Voltmeter/Basic WiFi Source/S
    1195 000040 01CC          MOVA      SP,r12                ; [] |172| 
    1196            $C$DW$82        .dwtag  DW_TAG_TI_branch
    1197                    .dwattr $C$DW$82, DW_AT_low_pc(0x00)
    1198                    .dwattr $C$DW$82, DW_AT_TI_call
    1199                    .dwattr $C$DW$82, DW_AT_TI_indirect
    1200 000042 1380!         CALLA     &tSLInformation+8     ; [] |172| 
         000044 0008 
    1201                                                      ; [] |172| 
    1202 000046 0CCE          MOVA      r12,r14               ; [] |172| 
    1203                    .dwpsn  file "C:/Users/409010855/Documents/GitHub/CHARM/Embedded_Voltmeter/Basic WiFi Source/S
    1204 000048 930E          TST.W     r14                   ; [] |175| 
    1205 00004a 2403          JEQ       $C$L37                ; [] |175| 
    1206                                                      ; [] |175| 
    1207            ;* --------------------------------------------------------------------------*
    1208                    .dwpsn  file "C:/Users/409010855/Documents/GitHub/CHARM/Embedded_Voltmeter/Basic WiFi Source/S
MSP430 Assembler PC v4.2.1 Fri Mar 21 13:42:29 2014

Tools Copyright (c) 2003-2013 Texas Instruments Incorporated
C:\Users\409010~1\AppData\Local\Temp\0141212                         PAGE   25

    1209 00004c 436C          MOV.B     #2,r12                ; [] |177| 
    1210            ;* --------------------------------------------------------------------------*
    1211 00004e       $C$L36:    
    1212 00004e 412F          MOV.W     0(SP),r15             ; [] |177| 
    1213                    .dwpsn  file "C:/Users/409010855/Documents/GitHub/CHARM/Embedded_Voltmeter/Basic WiFi Source/S
    1214 000050 3C13          JMP       $C$L42                ; [] |179| 
    1215                                                      ; [] |179| 
    1216            ;* --------------------------------------------------------------------------*
    1217 000052       $C$L37:    
    1218                    .dwpsn  file "C:/Users/409010855/Documents/GitHub/CHARM/Embedded_Voltmeter/Basic WiFi Source/S
    1219 000052 436C          MOV.B     #2,r12                ; [] |184| 
    1220            ;* --------------------------------------------------------------------------*
    1221 000054       $C$L38:    
    1222 000054 430E          MOV.W     #0,r14                ; [] |184| 
    1223 000056 430F          MOV.W     #0,r15                ; [] |184| 
    1224                    .dwpsn  file "C:/Users/409010855/Documents/GitHub/CHARM/Embedded_Voltmeter/Basic WiFi Source/S
    1225 000058 3C0F          JMP       $C$L42                ; [] |186| 
    1226                                                      ; [] |186| 
    1227            ;* --------------------------------------------------------------------------*
    1228 00005a       $C$L39:    
    1229                    .dwpsn  file "C:/Users/409010855/Documents/GitHub/CHARM/Embedded_Voltmeter/Basic WiFi Source/S
    1230 00005a 1800!         TSTX.A    &tSLInformation+12    ; [] |151| 
         00005c 93C2 
         00005e 000C 
    1231 000060 2408          JEQ       $C$L40                ; [] |151| 
    1232                                                      ; [] |151| 
    1233            ;* --------------------------------------------------------------------------*
    1234                    .dwpsn  file "C:/Users/409010855/Documents/GitHub/CHARM/Embedded_Voltmeter/Basic WiFi Source/S
    1235 000062 01CC          MOVA      SP,r12                ; [] |153| 
    1236            $C$DW$83        .dwtag  DW_TAG_TI_branch
    1237                    .dwattr $C$DW$83, DW_AT_low_pc(0x00)
    1238                    .dwattr $C$DW$83, DW_AT_TI_call
    1239                    .dwattr $C$DW$83, DW_AT_TI_indirect
    1240 000064 1380!         CALLA     &tSLInformation+12    ; [] |153| 
         000066 000C 
    1241                                                      ; [] |153| 
    1242                    .dwpsn  file "C:/Users/409010855/Documents/GitHub/CHARM/Embedded_Voltmeter/Basic WiFi Source/S
    1243 000068 930C          TST.W     r12                   ; [] |155| 
    1244 00006a 2403          JEQ       $C$L40                ; [] |155| 
    1245                                                      ; [] |155| 
    1246            ;* --------------------------------------------------------------------------*
    1247                    .dwpsn  file "C:/Users/409010855/Documents/GitHub/CHARM/Embedded_Voltmeter/Basic WiFi Source/S
    1248 00006c 412F          MOV.W     0(SP),r15             ; [] |157| 
    1249 00006e 0CCE          MOVA      r12,r14               ; [] |157| 
    1250                    .dwpsn  file "C:/Users/409010855/Documents/GitHub/CHARM/Embedded_Voltmeter/Basic WiFi Source/S
    1251 000070 3C02          JMP       $C$L41                ; [] |159| 
    1252                                                      ; [] |159| 
    1253            ;* --------------------------------------------------------------------------*
    1254 000072       $C$L40:    
    1255                    .dwpsn  file "C:/Users/409010855/Documents/GitHub/CHARM/Embedded_Voltmeter/Basic WiFi Source/S
    1256 000072 430E          MOV.W     #0,r14                ; [] |164| 
    1257 000074 430F          MOV.W     #0,r15                ; [] |164| 
    1258            ;* --------------------------------------------------------------------------*
    1259 000076       $C$L41:    
    1260 000076 435C          MOV.B     #1,r12                ; [] |164| 
MSP430 Assembler PC v4.2.1 Fri Mar 21 13:42:29 2014

Tools Copyright (c) 2003-2013 Texas Instruments Incorporated
C:\Users\409010~1\AppData\Local\Temp\0141212                         PAGE   26

    1261            ;* --------------------------------------------------------------------------*
    1262 000078       $C$L42:    
    1263 000078 421D          MOV.W     &tSLInformation+6,r13 ; [] |164| 
         00007a 0006!
    1264            $C$DW$84        .dwtag  DW_TAG_TI_branch
    1265                    .dwattr $C$DW$84, DW_AT_low_pc(0x00)
    1266                    .dwattr $C$DW$84, DW_AT_name("hci_patch_send")
    1267                    .dwattr $C$DW$84, DW_AT_TI_call
    1268 00007c 13B0!         CALLA     #hci_patch_send       ; [] |164| 
         00007e 0000 
    1269                                                      ; [] |164| 
    1270            ;* --------------------------------------------------------------------------*
    1271 000080       $C$L43:    
    1272 000080 5221          ADD.W     #4,SP                 ; [] 
    1273                    .dwcfi  cfa_offset, 4
    1274            $C$DW$85        .dwtag  DW_TAG_TI_branch
    1275                    .dwattr $C$DW$85, DW_AT_low_pc(0x00)
    1276                    .dwattr $C$DW$85, DW_AT_TI_return
    1277 000082 0110          RETA      ; [] 
    1278                    ; [] 
    1279                    .dwattr $C$DW$74, DW_AT_TI_end_file("C:/Users/409010855/Documents/GitHub/CHARM/Embedded_Voltme
    1280                    .dwattr $C$DW$74, DW_AT_TI_end_line(0xcf)
    1281                    .dwattr $C$DW$74, DW_AT_TI_end_column(0x01)
    1282                    .dwendentry
    1283                    .dwendtag $C$DW$74
    1284            
    1285 000000               .sect   ".text:hci_event_handler"
    1286                    .align  2
    1287                    .clink
    1288                    .global hci_event_handler
    1289            
    1290            $C$DW$86        .dwtag  DW_TAG_subprogram, DW_AT_name("hci_event_handler")
    1291                    .dwattr $C$DW$86, DW_AT_low_pc(hci_event_handler)
    1292                    .dwattr $C$DW$86, DW_AT_high_pc(0x00)
    1293                    .dwattr $C$DW$86, DW_AT_TI_symbol_name("hci_event_handler")
    1294                    .dwattr $C$DW$86, DW_AT_external
    1295                    .dwattr $C$DW$86, DW_AT_type(*$C$DW$T$21)
    1296                    .dwattr $C$DW$86, DW_AT_TI_begin_file("C:/Users/409010855/Documents/GitHub/CHARM/Embedded_Volt
    1297                    .dwattr $C$DW$86, DW_AT_TI_begin_line(0xe3)
    1298                    .dwattr $C$DW$86, DW_AT_TI_begin_column(0x09)
    1299                    .dwattr $C$DW$86, DW_AT_TI_max_frame_size(0x20)
    1300                    .dwpsn  file "C:/Users/409010855/Documents/GitHub/CHARM/Embedded_Voltmeter/Basic WiFi Source/S
    1301            
    1302                    .dwfde $C$DW$CIE, hci_event_handler
    1303            $C$DW$87        .dwtag  DW_TAG_formal_parameter, DW_AT_name("pRetParams")
    1304                    .dwattr $C$DW$87, DW_AT_TI_symbol_name("pRetParams")
    1305                    .dwattr $C$DW$87, DW_AT_type(*$C$DW$T$3)
    1306                    .dwattr $C$DW$87, DW_AT_location[DW_OP_reg12]
    1307            $C$DW$88        .dwtag  DW_TAG_formal_parameter, DW_AT_name("from")
    1308                    .dwattr $C$DW$88, DW_AT_TI_symbol_name("from")
    1309                    .dwattr $C$DW$88, DW_AT_type(*$C$DW$T$21)
    1310                    .dwattr $C$DW$88, DW_AT_location[DW_OP_reg13]
    1311            $C$DW$89        .dwtag  DW_TAG_formal_parameter, DW_AT_name("fromlen")
    1312                    .dwattr $C$DW$89, DW_AT_TI_symbol_name("fromlen")
    1313                    .dwattr $C$DW$89, DW_AT_type(*$C$DW$T$21)
MSP430 Assembler PC v4.2.1 Fri Mar 21 13:42:29 2014

Tools Copyright (c) 2003-2013 Texas Instruments Incorporated
C:\Users\409010~1\AppData\Local\Temp\0141212                         PAGE   27

    1314                    .dwattr $C$DW$89, DW_AT_location[DW_OP_reg14]
    1315            
    1316            ;*****************************************************************************
    1317            ;* FUNCTION NAME: hci_event_handler                                          *
    1318            ;*                                                                           *
    1319            ;*   Regs Modified     : SP,SR,r4,r5,r6,r7,r8,r9,r10,r11,r12,r13,r14,r15     *
    1320            ;*   Regs Used         : SP,SR,r4,r5,r6,r7,r8,r9,r10,r11,r12,r13,r14,r15     *
    1321            ;*   Local Frame Size  : 0 Args + 0 Auto + 28 Save = 28 byte                 *
    1322            ;*****************************************************************************
    1323            hci_event_handler:
    1324            ;* --------------------------------------------------------------------------*
    1325            ;* r14   assigned to $O$U49
    1326            ;* r14   assigned to $O$U58
    1327            ;* r14   assigned to $O$U64
    1328            ;* r14   assigned to $O$U70
    1329            ;* r14   assigned to $O$U76
    1330            ;* r14   assigned to $O$U82
    1331            ;* r10   assigned to $O$U90
    1332            ;* r15   assigned to $O$L1
    1333            ;* r15   assigned to $O$L2
    1334            ;* r15   assigned to $O$L3
    1335            ;* r15   assigned to $O$L4
    1336            ;* r15   assigned to $O$L5
    1337            ;* r15   assigned to $O$L6
    1338            ;* r15   assigned to $O$L7
    1339            ;* r6    assigned to RetParams
    1340            $C$DW$90        .dwtag  DW_TAG_variable, DW_AT_name("RetParams")
    1341                    .dwattr $C$DW$90, DW_AT_TI_symbol_name("RetParams")
    1342                    .dwattr $C$DW$90, DW_AT_type(*$C$DW$T$21)
    1343                    .dwattr $C$DW$90, DW_AT_location[DW_OP_reg6]
    1344            ;* r10   assigned to RecvParams
    1345            $C$DW$91        .dwtag  DW_TAG_variable, DW_AT_name("RecvParams")
    1346                    .dwattr $C$DW$91, DW_AT_TI_symbol_name("RecvParams")
    1347                    .dwattr $C$DW$91, DW_AT_type(*$C$DW$T$21)
    1348                    .dwattr $C$DW$91, DW_AT_location[DW_OP_reg10]
    1349            ;* r13   assigned to retValue32
    1350            $C$DW$92        .dwtag  DW_TAG_variable, DW_AT_name("retValue32")
    1351                    .dwattr $C$DW$92, DW_AT_TI_symbol_name("retValue32")
    1352                    .dwattr $C$DW$92, DW_AT_type(*$C$DW$T$25)
    1353                    .dwattr $C$DW$92, DW_AT_location[DW_OP_reg13 DW_OP_piece 2 DW_OP_reg14 DW_OP_piece 2]
    1354            ;* r8    assigned to usReceivedEventOpcode
    1355            $C$DW$93        .dwtag  DW_TAG_variable, DW_AT_name("usReceivedEventOpcode")
    1356                    .dwattr $C$DW$93, DW_AT_TI_symbol_name("usReceivedEventOpcode")
    1357                    .dwattr $C$DW$93, DW_AT_type(*$C$DW$T$19)
    1358                    .dwattr $C$DW$93, DW_AT_location[DW_OP_reg8]
    1359            ;* r6    assigned to usLength
    1360            $C$DW$94        .dwtag  DW_TAG_variable, DW_AT_name("usLength")
    1361                    .dwattr $C$DW$94, DW_AT_TI_symbol_name("usLength")
    1362                    .dwattr $C$DW$94, DW_AT_type(*$C$DW$T$19)
    1363                    .dwattr $C$DW$94, DW_AT_location[DW_OP_reg6]
    1364            ;* r10   assigned to ucArgsize
    1365            $C$DW$95        .dwtag  DW_TAG_variable, DW_AT_name("ucArgsize")
    1366                    .dwattr $C$DW$95, DW_AT_TI_symbol_name("ucArgsize")
    1367                    .dwattr $C$DW$95, DW_AT_type(*$C$DW$T$20)
    1368                    .dwattr $C$DW$95, DW_AT_location[DW_OP_reg10]
MSP430 Assembler PC v4.2.1 Fri Mar 21 13:42:29 2014

Tools Copyright (c) 2003-2013 Texas Instruments Incorporated
C:\Users\409010~1\AppData\Local\Temp\0141212                         PAGE   28

    1369            ;* r9    assigned to pucReceivedData
    1370            $C$DW$96        .dwtag  DW_TAG_variable, DW_AT_name("pucReceivedData")
    1371                    .dwattr $C$DW$96, DW_AT_TI_symbol_name("pucReceivedData")
    1372                    .dwattr $C$DW$96, DW_AT_type(*$C$DW$T$21)
    1373                    .dwattr $C$DW$96, DW_AT_location[DW_OP_reg9]
    1374            ;* r5    assigned to fromlen
    1375            $C$DW$97        .dwtag  DW_TAG_variable, DW_AT_name("fromlen")
    1376                    .dwattr $C$DW$97, DW_AT_TI_symbol_name("fromlen")
    1377                    .dwattr $C$DW$97, DW_AT_type(*$C$DW$T$75)
    1378                    .dwattr $C$DW$97, DW_AT_location[DW_OP_reg5]
    1379            ;* r4    assigned to from
    1380            $C$DW$98        .dwtag  DW_TAG_variable, DW_AT_name("from")
    1381                    .dwattr $C$DW$98, DW_AT_TI_symbol_name("from")
    1382                    .dwattr $C$DW$98, DW_AT_type(*$C$DW$T$75)
    1383                    .dwattr $C$DW$98, DW_AT_location[DW_OP_reg4]
    1384            ;* r7    assigned to pRetParams
    1385            $C$DW$99        .dwtag  DW_TAG_variable, DW_AT_name("pRetParams")
    1386                    .dwattr $C$DW$99, DW_AT_TI_symbol_name("pRetParams")
    1387                    .dwattr $C$DW$99, DW_AT_type(*$C$DW$T$3)
    1388                    .dwattr $C$DW$99, DW_AT_location[DW_OP_reg7]
    1389            ;* r9    assigned to pucReceivedParams
    1390            $C$DW$100       .dwtag  DW_TAG_variable, DW_AT_name("pucReceivedParams")
    1391                    .dwattr $C$DW$100, DW_AT_TI_symbol_name("pucReceivedParams")
    1392                    .dwattr $C$DW$100, DW_AT_type(*$C$DW$T$21)
    1393                    .dwattr $C$DW$100, DW_AT_location[DW_OP_reg9]
    1394            ;* r10   assigned to pucReceivedParams
    1395            $C$DW$101       .dwtag  DW_TAG_variable, DW_AT_name("pucReceivedParams")
    1396                    .dwattr $C$DW$101, DW_AT_TI_symbol_name("pucReceivedParams")
    1397                    .dwattr $C$DW$101, DW_AT_type(*$C$DW$T$21)
    1398                    .dwattr $C$DW$101, DW_AT_location[DW_OP_reg10]
    1399                    .dwcfi  cfa_offset, 4
    1400                    .dwcfi  save_reg_to_mem, 16, -4
    1401 000000 146A          PUSHM.A   #7,r10                ; [] 
    1402                    .dwcfi  save_reg_to_mem, 10, -8
    1403                    .dwcfi  save_reg_to_mem, 9, -12
    1404                    .dwcfi  save_reg_to_mem, 8, -16
    1405                    .dwcfi  save_reg_to_mem, 7, -20
    1406                    .dwcfi  save_reg_to_mem, 6, -24
    1407                    .dwcfi  save_reg_to_mem, 5, -28
    1408                    .dwcfi  save_reg_to_mem, 4, -32
    1409                    .dwcfi  cfa_offset, 32
    1410 000002 0EC5          MOVA      r14,r5                ; [] |228| 
    1411 000004 0DC4          MOVA      r13,r4                ; [] |228| 
    1412 000006 0CC7          MOVA      r12,r7                ; [] |228| 
    1413                    .dwpsn  file "C:/Users/409010855/Documents/GitHub/CHARM/Embedded_Voltmeter/Basic WiFi Source/S
    1414 000008 4308          MOV.W     #0,r8                 ; [] |232| 
    1415            ;* --------------------------------------------------------------------------*
    1416            ;*   BEGIN LOOP $C$L44
    1417            ;*
    1418            ;*   Loop source line                : 238
    1419            ;*   Loop closing brace source line  : 486
    1420            ;*   Known Minimum Trip Count        : 1
    1421            ;*   Known Maximum Trip Count        : 4294967295
    1422            ;*   Known Max Trip Count Factor     : 1
    1423            ;* --------------------------------------------------------------------------*
MSP430 Assembler PC v4.2.1 Fri Mar 21 13:42:29 2014

Tools Copyright (c) 2003-2013 Texas Instruments Incorporated
C:\Users\409010~1\AppData\Local\Temp\0141212                         PAGE   29

    1424 00000a       $C$L44:    
    1425                    .dwpsn  file "C:/Users/409010855/Documents/GitHub/CHARM/Embedded_Voltmeter/Basic WiFi Source/S
    1426 00000a 9382          TST.W     &tSLInformation+2     ; [] |240| 
         00000c 0002!
    1427 00000e 27FD          JEQ       $C$L44                ; [] |240| 
    1428                                                      ; [] |240| 
    1429            ;* --------------------------------------------------------------------------*
    1430                    .dwpsn  file "C:/Users/409010855/Documents/GitHub/CHARM/Embedded_Voltmeter/Basic WiFi Source/S
    1431 000010 4219          MOV.W     &tSLInformation+4,r9  ; [] |242| 
         000012 0004!
    1432                    .dwpsn  file "C:/Users/409010855/Documents/GitHub/CHARM/Embedded_Voltmeter/Basic WiFi Source/S
    1433 000014 422F          MOV.W     #4,r15                ; [] |244| 
    1434 000016 996F          CMP.B     @r9,r15               ; [] |244| 
    1435 000018 2428          JEQ       $C$L46                ; [] |244| 
    1436                                                      ; [] |244| 
    1437            ;* --------------------------------------------------------------------------*
    1438                    .dwpsn  file "C:/Users/409010855/Documents/GitHub/CHARM/Embedded_Voltmeter/Basic WiFi Source/S
    1439 00001a 495A          MOV.B     2(r9),r10             ; [] |451| 
         00001c 0002 
    1440                    .dwpsn  file "C:/Users/409010855/Documents/GitHub/CHARM/Embedded_Voltmeter/Basic WiFi Source/S
    1441 00001e 09CC          MOVA      r9,r12                ; [] |453| 
    1442 000020 403D          MOV.W     #3,r13                ; [] |453| 
         000022 0003 
    1443            $C$DW$102       .dwtag  DW_TAG_TI_branch
    1444                    .dwattr $C$DW$102, DW_AT_low_pc(0x00)
    1445                    .dwattr $C$DW$102, DW_AT_name("STREAM_TO_UINT16_f")
    1446                    .dwattr $C$DW$102, DW_AT_TI_call
    1447 000024 13B0!         CALLA     #STREAM_TO_UINT16_f   ; [] |453| 
         000026 0000 
    1448                                                      ; [] |453| 
    1449 000028 0CC6          MOVA      r12,r6                ; [] |453| 
    1450                    .dwpsn  file "C:/Users/409010855/Documents/GitHub/CHARM/Embedded_Voltmeter/Basic WiFi Source/S
    1451 00002a 9304          TST.W     r4                    ; [] |457| 
    1452 00002c 2411          JEQ       $C$L45                ; [] |457| 
    1453                                                      ; [] |457| 
    1454            ;* --------------------------------------------------------------------------*
    1455                    .dwpsn  file "C:/Users/409010855/Documents/GitHub/CHARM/Embedded_Voltmeter/Basic WiFi Source/S
    1456 00002e 403C          MOV.W     #5,r12                ; [] |459| 
         000030 0005 
    1457 000032 590C          ADD.W     r9,r12                ; [] |459| 
    1458 000034 422D          MOV.W     #4,r13                ; [] |459| 
    1459            $C$DW$103       .dwtag  DW_TAG_TI_branch
    1460                    .dwattr $C$DW$103, DW_AT_low_pc(0x00)
    1461                    .dwattr $C$DW$103, DW_AT_name("STREAM_TO_UINT32_f")
    1462                    .dwattr $C$DW$103, DW_AT_TI_call
    1463 000036 13B0!         CALLA     #STREAM_TO_UINT32_f   ; [] |459| 
         000038 0000 
    1464                                                      ; [] |459| 
    1465 00003a 4C85          MOV.W     r12,0(r5)             ; [] |459| 
         00003c 0000 
    1466 00003e 4D85          MOV.W     r13,2(r5)             ; [] |459| 
         000040 0002 
    1467                    .dwpsn  file "C:/Users/409010855/Documents/GitHub/CHARM/Embedded_Voltmeter/Basic WiFi Source/S
    1468 000042 403D          MOV.W     #21,r13               ; [] |460| 
         000044 0015 
MSP430 Assembler PC v4.2.1 Fri Mar 21 13:42:29 2014

Tools Copyright (c) 2003-2013 Texas Instruments Incorporated
C:\Users\409010~1\AppData\Local\Temp\0141212                         PAGE   30

    1469 000046 590D          ADD.W     r9,r13                ; [] |460| 
    1470 000048 456E          MOV.B     @r5,r14               ; [] |460| 
    1471 00004a 04CC          MOVA      r4,r12                ; [] |460| 
    1472            $C$DW$104       .dwtag  DW_TAG_TI_branch
    1473                    .dwattr $C$DW$104, DW_AT_low_pc(0x00)
    1474                    .dwattr $C$DW$104, DW_AT_name("memcpy")
    1475                    .dwattr $C$DW$104, DW_AT_TI_call
    1476 00004c 13B0!         CALLA     #memcpy               ; [] |460| 
         00004e 0000 
    1477                                                      ; [] |460| 
    1478            ;* --------------------------------------------------------------------------*
    1479 000050       $C$L45:    
    1480                    .dwpsn  file "C:/Users/409010855/Documents/GitHub/CHARM/Embedded_Voltmeter/Basic WiFi Source/S
    1481 000050 4A4D          MOV.B     r10,r13               ; [] |463| 
    1482 000052 590D          ADD.W     r9,r13                ; [] |463| 
    1483 000054 503D          ADD.W     #5,r13                ; [] |463| 
         000056 0005 
    1484 000058 4A4A          MOV.B     r10,r10               ; [] |463| 
    1485 00005a 06CE          MOVA      r6,r14                ; [] |463| 
    1486 00005c 8A0E          SUB.W     r10,r14               ; [] |463| 
    1487 00005e 07CC          MOVA      r7,r12                ; [] |463| 
    1488            $C$DW$105       .dwtag  DW_TAG_TI_branch
    1489                    .dwattr $C$DW$105, DW_AT_low_pc(0x00)
    1490                    .dwattr $C$DW$105, DW_AT_name("memcpy")
    1491                    .dwattr $C$DW$105, DW_AT_TI_call
    1492 000060 13B0!         CALLA     #memcpy               ; [] |463| 
         000062 0000 
    1493                                                      ; [] |463| 
    1494                    .dwpsn  file "C:/Users/409010855/Documents/GitHub/CHARM/Embedded_Voltmeter/Basic WiFi Source/S
    1495 000064 4382          MOV.W     #0,&tSLInformation+50 ; [] |466| 
         000066 0032!
    1496 000068 3D20          JMP       $C$L76                ; [] |466| 
    1497                                                      ; [] |466| 
    1498            ;* --------------------------------------------------------------------------*
    1499 00006a       $C$L46:    
    1500                    .dwpsn  file "C:/Users/409010855/Documents/GitHub/CHARM/Embedded_Voltmeter/Basic WiFi Source/S
    1501 00006a 09CC          MOVA      r9,r12                ; [] |247| 
    1502 00006c 431D          MOV.W     #1,r13                ; [] |247| 
    1503            $C$DW$106       .dwtag  DW_TAG_TI_branch
    1504                    .dwattr $C$DW$106, DW_AT_low_pc(0x00)
    1505                    .dwattr $C$DW$106, DW_AT_name("STREAM_TO_UINT16_f")
    1506                    .dwattr $C$DW$106, DW_AT_TI_call
    1507 00006e 13B0!         CALLA     #STREAM_TO_UINT16_f   ; [] |247| 
         000070 0000 
    1508                                                      ; [] |247| 
    1509 000072 0CC8          MOVA      r12,r8                ; [] |247| 
    1510                    .dwpsn  file "C:/Users/409010855/Documents/GitHub/CHARM/Embedded_Voltmeter/Basic WiFi Source/S
    1511 000074 403A          MOV.W     #5,r10                ; [] |249| 
         000076 0005 
    1512 000078 590A          ADD.W     r9,r10                ; [] |249| 
    1513                    .dwpsn  file "C:/Users/409010855/Documents/GitHub/CHARM/Embedded_Voltmeter/Basic WiFi Source/S
    1514 00007a 07C6          MOVA      r7,r6                 ; [] |251| 
    1515                    .dwpsn  file "C:/Users/409010855/Documents/GitHub/CHARM/Embedded_Voltmeter/Basic WiFi Source/S
    1516 00007c 09CC          MOVA      r9,r12                ; [] |254| 
    1517            $C$DW$107       .dwtag  DW_TAG_TI_branch
MSP430 Assembler PC v4.2.1 Fri Mar 21 13:42:29 2014

Tools Copyright (c) 2003-2013 Texas Instruments Incorporated
C:\Users\409010~1\AppData\Local\Temp\0141212                         PAGE   31

    1518                    .dwattr $C$DW$107, DW_AT_low_pc(0x00)
    1519                    .dwattr $C$DW$107, DW_AT_name("hci_unsol_event_handler")
    1520                    .dwattr $C$DW$107, DW_AT_TI_call
    1521 00007e 13B0!         CALLA     #hci_unsol_event_handler ; [] |254| 
         000080 0000 
    1522                                                      ; [] |254| 
    1523 000082 930D          TST.W     r13                   ; [] |254| 
    1524 000084 210D          JNE       $C$L75                ; [] |254| 
    1525                                                      ; [] |254| 
    1526            ;* --------------------------------------------------------------------------*
    1527 000086 930C          TST.W     r12                   ; [] |254| 
    1528 000088 210B          JNE       $C$L75                ; [] |254| 
    1529                                                      ; [] |254| 
    1530            ;* --------------------------------------------------------------------------*
    1531                    .dwpsn  file "C:/Users/409010855/Documents/GitHub/CHARM/Embedded_Voltmeter/Basic WiFi Source/S
    1532 00008a 08CF          MOVA      r8,r15                ; [] |258| 
    1533 00008c 903F          CMP.W     #4100,r15             ; [] |258| 
         00008e 1004 
    1534 000090 3425          JGE       $C$L48                ; [] |258| 
    1535                                                      ; [] |258| 
    1536            ;* --------------------------------------------------------------------------*
    1537 000092 903F          CMP.W     #4099,r15             ; [] |258| 
         000094 1003 
    1538 000096 24BA          JEQ       $C$L64                ; [] |258| 
    1539                                                      ; [] |258| 
    1540            ;* --------------------------------------------------------------------------*
    1541 000098 903F          CMP.W     #514,r15              ; [] |258| 
         00009a 0202 
    1542 00009c 3412          JGE       $C$L47                ; [] |258| 
    1543                                                      ; [] |258| 
    1544            ;* --------------------------------------------------------------------------*
    1545 00009e 903F          CMP.W     #513,r15              ; [] |258| 
         0000a0 0201 
    1546 0000a2 2474          JEQ       $C$L53                ; [] |258| 
    1547                                                      ; [] |258| 
    1548            ;* --------------------------------------------------------------------------*
    1549 0000a4 831F          SUB.W     #1,r15                ; [] |258| 
    1550 0000a6 903F          CMP.W     #6,r15                ; [] |258| 
         0000a8 0006 
    1551 0000aa 28B3          JLO       $C$L65                ; [] |258| 
    1552                                                      ; [] |258| 
    1553            ;* --------------------------------------------------------------------------*
    1554 0000ac 803F          SUB.W     #6,r15                ; [] |258| 
         0000ae 0006 
    1555 0000b0 24DE          JEQ       $C$L72                ; [] |258| 
    1556                                                      ; [] |258| 
    1557            ;* --------------------------------------------------------------------------*
    1558 0000b2 831F          SUB.W     #1,r15                ; [] |258| 
    1559 0000b4 903F          CMP.W     #5,r15                ; [] |258| 
         0000b6 0005 
    1560 0000b8 28AC          JLO       $C$L65                ; [] |258| 
    1561                                                      ; [] |258| 
    1562            ;* --------------------------------------------------------------------------*
    1563 0000ba 803F          SUB.W     #5,r15                ; [] |258| 
         0000bc 0005 
MSP430 Assembler PC v4.2.1 Fri Mar 21 13:42:29 2014

Tools Copyright (c) 2003-2013 Texas Instruments Incorporated
C:\Users\409010~1\AppData\Local\Temp\0141212                         PAGE   32

    1564 0000be 2466          JEQ       $C$L53                ; [] |258| 
    1565                                                      ; [] |258| 
    1566            ;* --------------------------------------------------------------------------*
    1567 0000c0 3CEF          JMP       $C$L75                ; [] |258| 
    1568                                                      ; [] |258| 
    1569            ;* --------------------------------------------------------------------------*
    1570 0000c2       $C$L47:    
    1571 0000c2 803F          SUB.W     #514,r15              ; [] |258| 
         0000c4 0202 
    1572 0000c6 24A5          JEQ       $C$L65                ; [] |258| 
    1573                                                      ; [] |258| 
    1574            ;* --------------------------------------------------------------------------*
    1575 0000c8 831F          SUB.W     #1,r15                ; [] |258| 
    1576 0000ca 932F          CMP.W     #2,r15                ; [] |258| 
    1577 0000cc 285F          JLO       $C$L53                ; [] |258| 
    1578                                                      ; [] |258| 
    1579            ;* --------------------------------------------------------------------------*
    1580 0000ce 822F          SUB.W     #4,r15                ; [] |258| 
    1581 0000d0 24C0          JEQ       $C$L71                ; [] |258| 
    1582                                                      ; [] |258| 
    1583            ;* --------------------------------------------------------------------------*
    1584 0000d2 803F          SUB.W     #3578,r15             ; [] |258| 
         0000d4 0DFA 
    1585 0000d6 932F          CMP.W     #2,r15                ; [] |258| 
    1586 0000d8 289C          JLO       $C$L65                ; [] |258| 
    1587                                                      ; [] |258| 
    1588            ;* --------------------------------------------------------------------------*
    1589 0000da 3CE2          JMP       $C$L75                ; [] |258| 
    1590                                                      ; [] |258| 
    1591            ;* --------------------------------------------------------------------------*
    1592 0000dc       $C$L48:    
    1593 0000dc 903F          CMP.W     #8197,r15             ; [] |258| 
         0000de 2005 
    1594 0000e0 3410          JGE       $C$L49                ; [] |258| 
    1595                                                      ; [] |258| 
    1596            ;* --------------------------------------------------------------------------*
    1597 0000e2 903F          CMP.W     #8193,r15             ; [] |258| 
         0000e4 2001 
    1598 0000e6 3452          JGE       $C$L53                ; [] |258| 
    1599                                                      ; [] |258| 
    1600            ;* --------------------------------------------------------------------------*
    1601 0000e8 803F          SUB.W     #4100,r15             ; [] |258| 
         0000ea 1004 
    1602 0000ec 2430          JEQ       $C$L51                ; [] |258| 
    1603                                                      ; [] |258| 
    1604            ;* --------------------------------------------------------------------------*
    1605 0000ee 831F          SUB.W     #1,r15                ; [] |258| 
    1606 0000f0 24AA          JEQ       $C$L70                ; [] |258| 
    1607                                                      ; [] |258| 
    1608            ;* --------------------------------------------------------------------------*
    1609 0000f2 831F          SUB.W     #1,r15                ; [] |258| 
    1610 0000f4 932F          CMP.W     #2,r15                ; [] |258| 
    1611 0000f6 288D          JLO       $C$L65                ; [] |258| 
    1612                                                      ; [] |258| 
    1613            ;* --------------------------------------------------------------------------*
MSP430 Assembler PC v4.2.1 Fri Mar 21 13:42:29 2014

Tools Copyright (c) 2003-2013 Texas Instruments Incorporated
C:\Users\409010~1\AppData\Local\Temp\0141212                         PAGE   33

    1614 0000f8 832F          SUB.W     #2,r15                ; [] |258| 
    1615 0000fa 903F          CMP.W     #11,r15               ; [] |258| 
         0000fc 000B 
    1616 0000fe 280D          JLO       $C$L50                ; [] |258| 
    1617                                                      ; [] |258| 
    1618            ;* --------------------------------------------------------------------------*
    1619 000100 3CCF          JMP       $C$L75                ; [] |258| 
    1620                                                      ; [] |258| 
    1621            ;* --------------------------------------------------------------------------*
    1622 000102       $C$L49:    
    1623 000102 803F          SUB.W     #8197,r15             ; [] |258| 
         000104 2005 
    1624 000106 2446          JEQ       $C$L54                ; [] |258| 
    1625                                                      ; [] |258| 
    1626            ;* --------------------------------------------------------------------------*
    1627 000108 831F          SUB.W     #1,r15                ; [] |258| 
    1628 00010a 2440          JEQ       $C$L53                ; [] |258| 
    1629                                                      ; [] |258| 
    1630            ;* --------------------------------------------------------------------------*
    1631 00010c 832F          SUB.W     #2,r15                ; [] |258| 
    1632 00010e 932F          CMP.W     #2,r15                ; [] |258| 
    1633 000110 283D          JLO       $C$L53                ; [] |258| 
    1634                                                      ; [] |258| 
    1635            ;* --------------------------------------------------------------------------*
    1636 000112 803F          SUB.W     #8195,r15             ; [] |258| 
         000114 2003 
    1637 000116 2430          JEQ       $C$L52                ; [] |258| 
    1638                                                      ; [] |258| 
    1639            ;* --------------------------------------------------------------------------*
    1640 000118 3CC3          JMP       $C$L75                ; [] |258| 
    1641                                                      ; [] |258| 
    1642            ;* --------------------------------------------------------------------------*
    1643 00011a       $C$L50:    
    1644 00011a 065F          RLAM.W    #2,r15                ; [] |258| 
    1645 00011c 1800!         MOVX.A    $C$SW1+0(r15),PC      ; [] |258| 
         00011e 4F50 
         000120 0122 
    1646                                                      ; [] |258| 
    1647                    .clink
    1648 000122 0222! $C$SW1: .long   $C$L67  ; 4104
         000124 0000 
    1649 000126 0212!         .long   $C$L65  ; 4105
         000128 0000 
    1650 00012a 0216!         .long   $C$L66  ; 4106
         00012c 0000 
    1651 00012e 0212!         .long   $C$L65  ; 4107
         000130 0000 
    1652 000132 02A0!         .long   $C$L75  ; 0
         000134 0000 
    1653 000136 014E!         .long   $C$L51  ; 4109
         000138 0000 
    1654 00013a 02A0!         .long   $C$L75  ; 0
         00013c 0000 
    1655 00013e 020C!         .long   $C$L64  ; 4111
         000140 0000 
MSP430 Assembler PC v4.2.1 Fri Mar 21 13:42:29 2014

Tools Copyright (c) 2003-2013 Texas Instruments Incorporated
C:\Users\409010~1\AppData\Local\Temp\0141212                         PAGE   34

    1656 000142 01FE!         .long   $C$L63  ; 4112
         000144 0000 
    1657 000146 018C!         .long   $C$L53  ; 4113
         000148 0000 
    1658 00014a 01F0!         .long   $C$L62  ; 4114
         00014c 0000 
    1659 00014e               .sect   ".text:hci_event_handler"
    1660            ;* --------------------------------------------------------------------------*
    1661            $C$L51:    
    1662            $C$DW$108       .dwtag  DW_TAG_TI_branch
    1663                    .dwattr $C$DW$108, DW_AT_low_pc(0x00)
    1664                    .dwattr $C$DW$108, DW_AT_name("$abproc2")
    1665                    .dwattr $C$DW$108, DW_AT_TI_call
    1666 00014e 13B0!         CALLA     #$abproc2             ; [] 
         000150 02D6 
    1667                                                      ; [] 
    1668                    .dwpsn  file "C:/Users/409010855/Documents/GitHub/CHARM/Embedded_Voltmeter/Basic WiFi Source/S
    1669 000152 4C87          MOV.W     r12,0(r7)             ; [] |356| 
         000154 0000 
    1670 000156 4D87          MOV.W     r13,2(r7)             ; [] |356| 
         000158 0002 
    1671                    .dwpsn  file "C:/Users/409010855/Documents/GitHub/CHARM/Embedded_Voltmeter/Basic WiFi Source/S
    1672 00015a 93B7          CMP.W     #65535,6(r7)          ; [] |358| 
         00015c 0006 
    1673 00015e 20A0          JNE       $C$L75                ; [] |358| 
    1674                                                      ; [] |358| 
    1675            ;* --------------------------------------------------------------------------*
    1676 000160 90B7          CMP.W     #65479,4(r7)          ; [] |358| 
         000162 FFC7 
         000164 0004 
    1677 000166 209C          JNE       $C$L75                ; [] |358| 
    1678                                                      ; [] |358| 
    1679            ;* --------------------------------------------------------------------------*
    1680                    .dwpsn  file "C:/Users/409010855/Documents/GitHub/CHARM/Embedded_Voltmeter/Basic WiFi Source/S
    1681 000168 472C          MOV.W     @r7,r12               ; [] |360| 
    1682 00016a 471D          MOV.W     2(r7),r13             ; [] |360| 
         00016c 0002 
    1683 00016e 431E          MOV.W     #1,r14                ; [] |360| 
    1684 000170 430F          MOV.W     #0,r15                ; [] |360| 
    1685            $C$DW$109       .dwtag  DW_TAG_TI_branch
    1686                    .dwattr $C$DW$109, DW_AT_low_pc(0x00)
    1687                    .dwattr $C$DW$109, DW_AT_name("set_socket_active_status")
    1688                    .dwattr $C$DW$109, DW_AT_TI_call
    1689 000172 13B0!         CALLA     #set_socket_active_status ; [] |360| 
         000174 0000 
    1690                                                      ; [] |360| 
    1691 000176 3C94          JMP       $C$L75                ; [] |360| 
    1692                                                      ; [] |360| 
    1693            ;* --------------------------------------------------------------------------*
    1694 000178       $C$L52:    
    1695                    .dwpsn  file "C:/Users/409010855/Documents/GitHub/CHARM/Embedded_Voltmeter/Basic WiFi Source/S
    1696 000178 4A6F          MOV.B     @r10,r15              ; [] |262| 
    1697 00017a 4F82          MOV.W     r15,&tSLInformation+44 ; [] |262| 
         00017c 002C!
    1698                    .dwpsn  file "C:/Users/409010855/Documents/GitHub/CHARM/Embedded_Voltmeter/Basic WiFi Source/S
MSP430 Assembler PC v4.2.1 Fri Mar 21 13:42:29 2014

Tools Copyright (c) 2003-2013 Texas Instruments Incorporated
C:\Users\409010~1\AppData\Local\Temp\0141212                         PAGE   35

    1699 00017e 0ACC          MOVA      r10,r12               ; [] |264| 
    1700 000180 431D          MOV.W     #1,r13                ; [] |264| 
    1701            $C$DW$110       .dwtag  DW_TAG_TI_branch
    1702                    .dwattr $C$DW$110, DW_AT_low_pc(0x00)
    1703                    .dwattr $C$DW$110, DW_AT_name("STREAM_TO_UINT16_f")
    1704                    .dwattr $C$DW$110, DW_AT_TI_call
    1705 000182 13B0!         CALLA     #STREAM_TO_UINT16_f   ; [] |264| 
         000184 0000 
    1706                                                      ; [] |264| 
    1707 000186 4C82          MOV.W     r12,&tSLInformation+46 ; [] |264| 
         000188 002E!
    1708                    .dwpsn  file "C:/Users/409010855/Documents/GitHub/CHARM/Embedded_Voltmeter/Basic WiFi Source/S
    1709 00018a 3C8A          JMP       $C$L75                ; [] |267| 
    1710                                                      ; [] |267| 
    1711            ;* --------------------------------------------------------------------------*
    1712 00018c       $C$L53:    
    1713                    .dwpsn  file "C:/Users/409010855/Documents/GitHub/CHARM/Embedded_Voltmeter/Basic WiFi Source/S
    1714 00018c 49D7          MOV.B     4(r9),0(r7)           ; [] |282| 
         00018e 0004 
         000190 0000 
    1715                    .dwpsn  file "C:/Users/409010855/Documents/GitHub/CHARM/Embedded_Voltmeter/Basic WiFi Source/S
    1716 000192 3C86          JMP       $C$L75                ; [] |284| 
    1717                                                      ; [] |284| 
    1718            ;* --------------------------------------------------------------------------*
    1719 000194       $C$L54:    
    1720 000194 0ACE          MOVA      r10,r14               ; [] 
    1721                    .dwpsn  file "C:/Users/409010855/Documents/GitHub/CHARM/Embedded_Voltmeter/Basic WiFi Source/S
    1722 000196 422F          MOV.W     #4,r15                ; [] |414| 
    1723            ;* --------------------------------------------------------------------------*
    1724            ;*   BEGIN LOOP $C$L55
    1725            ;*
    1726            ;*   Loop source line                : 414
    1727            ;*   Loop closing brace source line  : 414
    1728            ;*   Known Minimum Trip Count        : 4
    1729            ;*   Known Maximum Trip Count        : 4
    1730            ;*   Known Max Trip Count Factor     : 4
    1731            ;* --------------------------------------------------------------------------*
    1732            $C$L55:    
    1733            $C$DW$111       .dwtag  DW_TAG_TI_branch
    1734                    .dwattr $C$DW$111, DW_AT_low_pc(0x00)
    1735                    .dwattr $C$DW$111, DW_AT_name("$abproc6")
    1736                    .dwattr $C$DW$111, DW_AT_TI_call
    1737 000198 13B0!         CALLA     #$abproc6             ; [] 
         00019a 030C 
    1738                                                      ; [] 
    1739 00019c 23FD          JNE       $C$L55                ; [] |414| 
    1740                                                      ; [] |414| 
    1741            ;* --------------------------------------------------------------------------*
    1742 00019e 522A          ADD.W     #4,r10                ; [] 
    1743 0001a0 0ACE          MOVA      r10,r14               ; [] 
    1744                    .dwpsn  file "C:/Users/409010855/Documents/GitHub/CHARM/Embedded_Voltmeter/Basic WiFi Source/S
    1745 0001a2 422F          MOV.W     #4,r15                ; [] |418| 
    1746            ;* --------------------------------------------------------------------------*
    1747            ;*   BEGIN LOOP $C$L56
    1748            ;*
MSP430 Assembler PC v4.2.1 Fri Mar 21 13:42:29 2014

Tools Copyright (c) 2003-2013 Texas Instruments Incorporated
C:\Users\409010~1\AppData\Local\Temp\0141212                         PAGE   36

    1749            ;*   Loop source line                : 418
    1750            ;*   Loop closing brace source line  : 418
    1751            ;*   Known Minimum Trip Count        : 4
    1752            ;*   Known Maximum Trip Count        : 4
    1753            ;*   Known Max Trip Count Factor     : 4
    1754            ;* --------------------------------------------------------------------------*
    1755            $C$L56:    
    1756            $C$DW$112       .dwtag  DW_TAG_TI_branch
    1757                    .dwattr $C$DW$112, DW_AT_low_pc(0x00)
    1758                    .dwattr $C$DW$112, DW_AT_name("$abproc6")
    1759                    .dwattr $C$DW$112, DW_AT_TI_call
    1760 0001a4 13B0!         CALLA     #$abproc6             ; [] 
         0001a6 030C 
    1761                                                      ; [] 
    1762 0001a8 23FD          JNE       $C$L56                ; [] |418| 
    1763                                                      ; [] |418| 
    1764            ;* --------------------------------------------------------------------------*
    1765 0001aa 522A          ADD.W     #4,r10                ; [] 
    1766 0001ac 0ACE          MOVA      r10,r14               ; [] 
    1767                    .dwpsn  file "C:/Users/409010855/Documents/GitHub/CHARM/Embedded_Voltmeter/Basic WiFi Source/S
    1768 0001ae 422F          MOV.W     #4,r15                ; [] |422| 
    1769            ;* --------------------------------------------------------------------------*
    1770            ;*   BEGIN LOOP $C$L57
    1771            ;*
    1772            ;*   Loop source line                : 422
    1773            ;*   Loop closing brace source line  : 422
    1774            ;*   Known Minimum Trip Count        : 4
    1775            ;*   Known Maximum Trip Count        : 4
    1776            ;*   Known Max Trip Count Factor     : 4
    1777            ;* --------------------------------------------------------------------------*
    1778            $C$L57:    
    1779            $C$DW$113       .dwtag  DW_TAG_TI_branch
    1780                    .dwattr $C$DW$113, DW_AT_low_pc(0x00)
    1781                    .dwattr $C$DW$113, DW_AT_name("$abproc6")
    1782                    .dwattr $C$DW$113, DW_AT_TI_call
    1783 0001b0 13B0!         CALLA     #$abproc6             ; [] 
         0001b2 030C 
    1784                                                      ; [] 
    1785 0001b4 23FD          JNE       $C$L57                ; [] |422| 
    1786                                                      ; [] |422| 
    1787            ;* --------------------------------------------------------------------------*
    1788 0001b6 522A          ADD.W     #4,r10                ; [] 
    1789 0001b8 0ACE          MOVA      r10,r14               ; [] 
    1790                    .dwpsn  file "C:/Users/409010855/Documents/GitHub/CHARM/Embedded_Voltmeter/Basic WiFi Source/S
    1791 0001ba 422F          MOV.W     #4,r15                ; [] |426| 
    1792            ;* --------------------------------------------------------------------------*
    1793            ;*   BEGIN LOOP $C$L58
    1794            ;*
    1795            ;*   Loop source line                : 426
    1796            ;*   Loop closing brace source line  : 426
    1797            ;*   Known Minimum Trip Count        : 4
    1798            ;*   Known Maximum Trip Count        : 4
    1799            ;*   Known Max Trip Count Factor     : 4
    1800            ;* --------------------------------------------------------------------------*
    1801            $C$L58:    
MSP430 Assembler PC v4.2.1 Fri Mar 21 13:42:29 2014

Tools Copyright (c) 2003-2013 Texas Instruments Incorporated
C:\Users\409010~1\AppData\Local\Temp\0141212                         PAGE   37

    1802            $C$DW$114       .dwtag  DW_TAG_TI_branch
    1803                    .dwattr $C$DW$114, DW_AT_low_pc(0x00)
    1804                    .dwattr $C$DW$114, DW_AT_name("$abproc6")
    1805                    .dwattr $C$DW$114, DW_AT_TI_call
    1806 0001bc 13B0!         CALLA     #$abproc6             ; [] 
         0001be 030C 
    1807                                                      ; [] 
    1808 0001c0 23FD          JNE       $C$L58                ; [] |426| 
    1809                                                      ; [] |426| 
    1810            ;* --------------------------------------------------------------------------*
    1811 0001c2 522A          ADD.W     #4,r10                ; [] 
    1812 0001c4 0ACE          MOVA      r10,r14               ; [] 
    1813                    .dwpsn  file "C:/Users/409010855/Documents/GitHub/CHARM/Embedded_Voltmeter/Basic WiFi Source/S
    1814 0001c6 422F          MOV.W     #4,r15                ; [] |430| 
    1815            ;* --------------------------------------------------------------------------*
    1816            ;*   BEGIN LOOP $C$L59
    1817            ;*
    1818            ;*   Loop source line                : 430
    1819            ;*   Loop closing brace source line  : 430
    1820            ;*   Known Minimum Trip Count        : 4
    1821            ;*   Known Maximum Trip Count        : 4
    1822            ;*   Known Max Trip Count Factor     : 4
    1823            ;* --------------------------------------------------------------------------*
    1824            $C$L59:    
    1825            $C$DW$115       .dwtag  DW_TAG_TI_branch
    1826                    .dwattr $C$DW$115, DW_AT_low_pc(0x00)
    1827                    .dwattr $C$DW$115, DW_AT_name("$abproc6")
    1828                    .dwattr $C$DW$115, DW_AT_TI_call
    1829 0001c8 13B0!         CALLA     #$abproc6             ; [] 
         0001ca 030C 
    1830                                                      ; [] 
    1831 0001cc 23FD          JNE       $C$L59                ; [] |430| 
    1832                                                      ; [] |430| 
    1833            ;* --------------------------------------------------------------------------*
    1834 0001ce 522A          ADD.W     #4,r10                ; [] 
    1835 0001d0 0ACE          MOVA      r10,r14               ; [] 
    1836                    .dwpsn  file "C:/Users/409010855/Documents/GitHub/CHARM/Embedded_Voltmeter/Basic WiFi Source/S
    1837 0001d2 403F          MOV.W     #6,r15                ; [] |434| 
         0001d4 0006 
    1838            ;* --------------------------------------------------------------------------*
    1839            ;*   BEGIN LOOP $C$L60
    1840            ;*
    1841            ;*   Loop source line                : 434
    1842            ;*   Loop closing brace source line  : 434
    1843            ;*   Known Minimum Trip Count        : 6
    1844            ;*   Known Maximum Trip Count        : 6
    1845            ;*   Known Max Trip Count Factor     : 6
    1846            ;* --------------------------------------------------------------------------*
    1847            $C$L60:    
    1848            $C$DW$116       .dwtag  DW_TAG_TI_branch
    1849                    .dwattr $C$DW$116, DW_AT_low_pc(0x00)
    1850                    .dwattr $C$DW$116, DW_AT_name("$abproc6")
    1851                    .dwattr $C$DW$116, DW_AT_TI_call
    1852 0001d6 13B0!         CALLA     #$abproc6             ; [] 
         0001d8 030C 
MSP430 Assembler PC v4.2.1 Fri Mar 21 13:42:29 2014

Tools Copyright (c) 2003-2013 Texas Instruments Incorporated
C:\Users\409010~1\AppData\Local\Temp\0141212                         PAGE   38

    1853                                                      ; [] 
    1854 0001da 23FD          JNE       $C$L60                ; [] |434| 
    1855                                                      ; [] |434| 
    1856            ;* --------------------------------------------------------------------------*
    1857 0001dc 503A          ADD.W     #6,r10                ; [] 
         0001de 0006 
    1858                    .dwpsn  file "C:/Users/409010855/Documents/GitHub/CHARM/Embedded_Voltmeter/Basic WiFi Source/S
    1859 0001e0 403F          MOV.W     #32,r15               ; [] |438| 
         0001e2 0020 
    1860            ;* --------------------------------------------------------------------------*
    1861            ;*   BEGIN LOOP $C$L61
    1862            ;*
    1863            ;*   Loop source line                : 438
    1864            ;*   Loop closing brace source line  : 438
    1865            ;*   Known Minimum Trip Count        : 32
    1866            ;*   Known Maximum Trip Count        : 32
    1867            ;*   Known Max Trip Count Factor     : 32
    1868            ;* --------------------------------------------------------------------------*
    1869 0001e4       $C$L61:    
    1870 0001e4 5316          ADD.W     #1,r6                 ; [] |438| 
    1871 0001e6 4AF6          MOV.B     @r10+,-1(r6)          ; [] |438| 
         0001e8 FFFF 
    1872 0001ea 831F          SUB.W     #1,r15                ; [] |438| 
    1873 0001ec 23FB          JNE       $C$L61                ; [] |438| 
    1874                                                      ; [] |438| 
    1875            ;* --------------------------------------------------------------------------*
    1876 0001ee 3C58          JMP       $C$L75                ; [] |438| 
    1877                                                      ; [] |438| 
    1878            ;* --------------------------------------------------------------------------*
    1879 0001f0       $C$L62:    
    1880                    .dwpsn  file "C:/Users/409010855/Documents/GitHub/CHARM/Embedded_Voltmeter/Basic WiFi Source/S
    1881 0001f0 0ACC          MOVA      r10,r12               ; [] |329| 
    1882 0001f2 430D          MOV.W     #0,r13                ; [] |329| 
    1883            $C$DW$117       .dwtag  DW_TAG_TI_branch
    1884                    .dwattr $C$DW$117, DW_AT_low_pc(0x00)
    1885                    .dwattr $C$DW$117, DW_AT_name("STREAM_TO_UINT16_f")
    1886                    .dwattr $C$DW$117, DW_AT_TI_call
    1887 0001f4 13B0!         CALLA     #STREAM_TO_UINT16_f   ; [] |329| 
         0001f6 0000 
    1888                                                      ; [] |329| 
    1889 0001f8 4C87          MOV.W     r12,0(r7)             ; [] |329| 
         0001fa 0000 
    1890                    .dwpsn  file "C:/Users/409010855/Documents/GitHub/CHARM/Embedded_Voltmeter/Basic WiFi Source/S
    1891 0001fc 3C51          JMP       $C$L75                ; [] |332| 
    1892                                                      ; [] |332| 
    1893            ;* --------------------------------------------------------------------------*
    1894 0001fe       $C$L63:    
    1895                    .dwpsn  file "C:/Users/409010855/Documents/GitHub/CHARM/Embedded_Voltmeter/Basic WiFi Source/S
    1896 0001fe 0ACC          MOVA      r10,r12               ; [] |320| 
    1897 000200 430D          MOV.W     #0,r13                ; [] |320| 
    1898            $C$DW$118       .dwtag  DW_TAG_TI_branch
    1899                    .dwattr $C$DW$118, DW_AT_low_pc(0x00)
    1900                    .dwattr $C$DW$118, DW_AT_name("STREAM_TO_UINT32_f")
    1901                    .dwattr $C$DW$118, DW_AT_TI_call
    1902 000202 13B0!         CALLA     #STREAM_TO_UINT32_f   ; [] |320| 
MSP430 Assembler PC v4.2.1 Fri Mar 21 13:42:29 2014

Tools Copyright (c) 2003-2013 Texas Instruments Incorporated
C:\Users\409010~1\AppData\Local\Temp\0141212                         PAGE   39

         000204 0000 
    1903                                                      ; [] |320| 
    1904 000206 0DCF          MOVA      r13,r15               ; [] |320| 
    1905                    .dwpsn  file "C:/Users/409010855/Documents/GitHub/CHARM/Embedded_Voltmeter/Basic WiFi Source/S
    1906 000208 422D          MOV.W     #4,r13                ; [] |323| 
    1907                    .dwpsn  file "C:/Users/409010855/Documents/GitHub/CHARM/Embedded_Voltmeter/Basic WiFi Source/S
    1908 00020a 3C10          JMP       $C$L68                ; [] |325| 
    1909                                                      ; [] |325| 
    1910            ;* --------------------------------------------------------------------------*
    1911            $C$L64:    
    1912            $C$DW$119       .dwtag  DW_TAG_TI_branch
    1913                    .dwattr $C$DW$119, DW_AT_low_pc(0x00)
    1914                    .dwattr $C$DW$119, DW_AT_name("$abproc4")
    1915                    .dwattr $C$DW$119, DW_AT_TI_call
    1916 00020c 13B0!         CALLA     #$abproc4             ; [] 
         00020e 02EA 
    1917                                                      ; [] 
    1918                    .dwpsn  file "C:/Users/409010855/Documents/GitHub/CHARM/Embedded_Voltmeter/Basic WiFi Source/S
    1919 000210 3C47          JMP       $C$L75                ; [] |373| 
    1920                                                      ; [] |373| 
    1921            ;* --------------------------------------------------------------------------*
    1922 000212       $C$L65:    
    1923                    .dwpsn  file "C:/Users/409010855/Documents/GitHub/CHARM/Embedded_Voltmeter/Basic WiFi Source/S
    1924 000212 430D          MOV.W     #0,r13                ; [] |305| 
    1925                    .dwpsn  file "C:/Users/409010855/Documents/GitHub/CHARM/Embedded_Voltmeter/Basic WiFi Source/S
    1926 000214 3C10          JMP       $C$L69                ; [] |307| 
    1927                                                      ; [] |307| 
    1928            ;* --------------------------------------------------------------------------*
    1929 000216       $C$L66:    
    1930                    .dwpsn  file "C:/Users/409010855/Documents/GitHub/CHARM/Embedded_Voltmeter/Basic WiFi Source/S
    1931 000216 49D7          MOV.B     4(r9),4(r7)           ; [] |390| 
         000218 0004 
         00021a 0004 
    1932                    .dwpsn  file "C:/Users/409010855/Documents/GitHub/CHARM/Embedded_Voltmeter/Basic WiFi Source/S
    1933 00021c 422E          MOV.W     #4,r14                ; [] |392| 
    1934 00021e 0ACD          MOVA      r10,r13               ; [] 
    1935                    .dwpsn  file "C:/Users/409010855/Documents/GitHub/CHARM/Embedded_Voltmeter/Basic WiFi Source/S
    1936 000220 3C3C          JMP       $C$L74                ; [] |393| 
    1937                                                      ; [] |393| 
    1938            ;* --------------------------------------------------------------------------*
    1939            $C$L67:    
    1940            $C$DW$120       .dwtag  DW_TAG_TI_branch
    1941                    .dwattr $C$DW$120, DW_AT_low_pc(0x00)
    1942                    .dwattr $C$DW$120, DW_AT_name("$abproc2")
    1943                    .dwattr $C$DW$120, DW_AT_TI_call
    1944 000222 13B0!         CALLA     #$abproc2             ; [] 
         000224 02D6 
    1945                                                      ; [] 
    1946                    .dwpsn  file "C:/Users/409010855/Documents/GitHub/CHARM/Embedded_Voltmeter/Basic WiFi Source/S
    1947 000226 0DCF          MOVA      r13,r15               ; [] |382| 
    1948                    .dwpsn  file "C:/Users/409010855/Documents/GitHub/CHARM/Embedded_Voltmeter/Basic WiFi Source/S
    1949 000228 403D          MOV.W     #12,r13               ; [] |384| 
         00022a 000C 
    1950            ;* --------------------------------------------------------------------------*
    1951 00022c       $C$L68:    
MSP430 Assembler PC v4.2.1 Fri Mar 21 13:42:29 2014

Tools Copyright (c) 2003-2013 Texas Instruments Incorporated
C:\Users\409010~1\AppData\Local\Temp\0141212                         PAGE   40

    1952                    .dwpsn  file "C:/Users/409010855/Documents/GitHub/CHARM/Embedded_Voltmeter/Basic WiFi Source/S
    1953 00022c 5227          ADD.W     #4,r7                 ; [] |382| 
    1954 00022e 4C87          MOV.W     r12,-4(r7)            ; [] |382| 
         000230 FFFC 
    1955 000232 4F87          MOV.W     r15,-2(r7)            ; [] |382| 
         000234 FFFE 
    1956            ;* --------------------------------------------------------------------------*
    1957 000236       $C$L69:    
    1958                    .dwpsn  file "C:/Users/409010855/Documents/GitHub/CHARM/Embedded_Voltmeter/Basic WiFi Source/S
    1959 000236 0ACC          MOVA      r10,r12               ; [] |384| 
    1960            $C$DW$121       .dwtag  DW_TAG_TI_branch
    1961                    .dwattr $C$DW$121, DW_AT_low_pc(0x00)
    1962                    .dwattr $C$DW$121, DW_AT_name("STREAM_TO_UINT32_f")
    1963                    .dwattr $C$DW$121, DW_AT_TI_call
    1964 000238 13B0!         CALLA     #STREAM_TO_UINT32_f   ; [] |384| 
         00023a 0000 
    1965                                                      ; [] |384| 
    1966 00023c 4C87          MOV.W     r12,0(r7)             ; [] |384| 
         00023e 0000 
    1967 000240 4D87          MOV.W     r13,2(r7)             ; [] |384| 
         000242 0002 
    1968                    .dwpsn  file "C:/Users/409010855/Documents/GitHub/CHARM/Embedded_Voltmeter/Basic WiFi Source/S
    1969 000244 3C2D          JMP       $C$L75                ; [] |385| 
    1970                                                      ; [] |385| 
    1971            ;* --------------------------------------------------------------------------*
    1972            $C$L70:    
    1973            $C$DW$122       .dwtag  DW_TAG_TI_branch
    1974                    .dwattr $C$DW$122, DW_AT_low_pc(0x00)
    1975                    .dwattr $C$DW$122, DW_AT_name("$abproc4")
    1976                    .dwattr $C$DW$122, DW_AT_TI_call
    1977 000246 13B0!         CALLA     #$abproc4             ; [] 
         000248 02EA 
    1978                                                      ; [] 
    1979                    .dwpsn  file "C:/Users/409010855/Documents/GitHub/CHARM/Embedded_Voltmeter/Basic WiFi Source/S
    1980 00024a 423D          MOV.W     #8,r13                ; [] |344| 
    1981 00024c 403E          MOV.W     #16,r14               ; [] |344| 
         00024e 0010 
    1982                    .dwpsn  file "C:/Users/409010855/Documents/GitHub/CHARM/Embedded_Voltmeter/Basic WiFi Source/S
    1983 000250 3C23          JMP       $C$L73                ; [] |346| 
    1984                                                      ; [] |346| 
    1985            ;* --------------------------------------------------------------------------*
    1986 000252       $C$L71:    
    1987                    .dwpsn  file "C:/Users/409010855/Documents/GitHub/CHARM/Embedded_Voltmeter/Basic WiFi Source/S
    1988 000252 5317          ADD.W     #1,r7                 ; [] |311| 
    1989 000254 49D7          MOV.B     4(r9),-1(r7)          ; [] |311| 
         000256 0004 
         000258 FFFF 
    1990                    .dwpsn  file "C:/Users/409010855/Documents/GitHub/CHARM/Embedded_Voltmeter/Basic WiFi Source/S
    1991 00025a 0ACC          MOVA      r10,r12               ; [] |314| 
    1992 00025c 430D          MOV.W     #0,r13                ; [] |314| 
    1993            $C$DW$123       .dwtag  DW_TAG_TI_branch
    1994                    .dwattr $C$DW$123, DW_AT_low_pc(0x00)
    1995                    .dwattr $C$DW$123, DW_AT_name("STREAM_TO_UINT32_f")
    1996                    .dwattr $C$DW$123, DW_AT_TI_call
    1997 00025e 13B0!         CALLA     #STREAM_TO_UINT32_f   ; [] |314| 
MSP430 Assembler PC v4.2.1 Fri Mar 21 13:42:29 2014

Tools Copyright (c) 2003-2013 Texas Instruments Incorporated
C:\Users\409010~1\AppData\Local\Temp\0141212                         PAGE   41

         000260 0000 
    1998                                                      ; [] |314| 
    1999 000262 0DCE          MOVA      r13,r14               ; [] |314| 
    2000 000264 0CCD          MOVA      r12,r13               ; [] |314| 
    2001                    .dwpsn  file "C:/Users/409010855/Documents/GitHub/CHARM/Embedded_Voltmeter/Basic WiFi Source/S
    2002 000266 07CC          MOVA      r7,r12                ; [] |315| 
    2003            $C$DW$124       .dwtag  DW_TAG_TI_branch
    2004                    .dwattr $C$DW$124, DW_AT_low_pc(0x00)
    2005                    .dwattr $C$DW$124, DW_AT_name("UINT32_TO_STREAM_f")
    2006                    .dwattr $C$DW$124, DW_AT_TI_call
    2007 000268 13B0!         CALLA     #UINT32_TO_STREAM_f   ; [] |315| 
         00026a 0000 
    2008                                                      ; [] |315| 
    2009                    .dwpsn  file "C:/Users/409010855/Documents/GitHub/CHARM/Embedded_Voltmeter/Basic WiFi Source/S
    2010 00026c 3C19          JMP       $C$L75                ; [] |316| 
    2011                                                      ; [] |316| 
    2012            ;* --------------------------------------------------------------------------*
    2013            $C$L72:    
    2014            $C$DW$125       .dwtag  DW_TAG_TI_branch
    2015                    .dwattr $C$DW$125, DW_AT_low_pc(0x00)
    2016                    .dwattr $C$DW$125, DW_AT_name("$abproc3")
    2017                    .dwattr $C$DW$125, DW_AT_TI_call
    2018 00026e 13B0!         CALLA     #$abproc3             ; [] 
         000270 02E0 
    2019                                                      ; [] 
    2020                    .dwpsn  file "C:/Users/409010855/Documents/GitHub/CHARM/Embedded_Voltmeter/Basic WiFi Source/S
    2021            $C$DW$126       .dwtag  DW_TAG_TI_branch
    2022                    .dwattr $C$DW$126, DW_AT_low_pc(0x00)
    2023                    .dwattr $C$DW$126, DW_AT_name("STREAM_TO_UINT16_f")
    2024                    .dwattr $C$DW$126, DW_AT_TI_call
    2025 000272 13B0!         CALLA     #STREAM_TO_UINT16_f   ; [] |401| 
         000274 0000 
    2026                                                      ; [] |401| 
    2027 000276 4C0F          MOV.W     r12,r15               ; [] |401| 
    2028 000278 0F77          MOVX.A    r15,0(r7)             ; [] |401| 
         00027a 0000 
    2029                    .dwpsn  file "C:/Users/409010855/Documents/GitHub/CHARM/Embedded_Voltmeter/Basic WiFi Source/S
    2030 00027c 0ACC          MOVA      r10,r12               ; [] |403| 
    2031 00027e 403D          MOV.W     #10,r13               ; [] |403| 
         000280 000A 
    2032            $C$DW$127       .dwtag  DW_TAG_TI_branch
    2033                    .dwattr $C$DW$127, DW_AT_low_pc(0x00)
    2034                    .dwattr $C$DW$127, DW_AT_name("STREAM_TO_UINT16_f")
    2035                    .dwattr $C$DW$127, DW_AT_TI_call
    2036 000282 13B0!         CALLA     #STREAM_TO_UINT16_f   ; [] |403| 
         000284 0000 
    2037                                                      ; [] |403| 
    2038 000286 4C0F          MOV.W     r12,r15               ; [] |403| 
    2039 000288 5327          ADD.W     #2,r7                 ; [] |403| 
    2040 00028a 0F77          MOVX.A    r15,0(r7)             ; [] |403| 
         00028c 0000 
    2041                    .dwpsn  file "C:/Users/409010855/Documents/GitHub/CHARM/Embedded_Voltmeter/Basic WiFi Source/S
    2042 00028e 5327          ADD.W     #2,r7                 ; [] |405| 
    2043 000290 403D          MOV.W     #12,r13               ; [] |405| 
         000292 000C 
MSP430 Assembler PC v4.2.1 Fri Mar 21 13:42:29 2014

Tools Copyright (c) 2003-2013 Texas Instruments Incorporated
C:\Users\409010~1\AppData\Local\Temp\0141212                         PAGE   42

    2044 000294 403E          MOV.W     #38,r14               ; [] |405| 
         000296 0026 
    2045            ;* --------------------------------------------------------------------------*
    2046 000298       $C$L73:    
    2047 000298 5A0D          ADD.W     r10,r13               ; [] |405| 
    2048            ;* --------------------------------------------------------------------------*
    2049 00029a       $C$L74:    
    2050 00029a 07CC          MOVA      r7,r12                ; [] |405| 
    2051            $C$DW$128       .dwtag  DW_TAG_TI_branch
    2052                    .dwattr $C$DW$128, DW_AT_low_pc(0x00)
    2053                    .dwattr $C$DW$128, DW_AT_name("memcpy")
    2054                    .dwattr $C$DW$128, DW_AT_TI_call
    2055 00029c 13B0!         CALLA     #memcpy               ; [] |405| 
         00029e 0000 
    2056                                                      ; [] |405| 
    2057            ;* --------------------------------------------------------------------------*
    2058 0002a0       $C$L75:    
    2059                    .dwpsn  file "C:/Users/409010855/Documents/GitHub/CHARM/Embedded_Voltmeter/Basic WiFi Source/S
    2060 0002a0 9218          CMP.W     &tSLInformation+0,r8  ; [] |443| 
         0002a2 0000!
    2061 0002a4 2002          JNE       $C$L76                ; [] |443| 
    2062                                                      ; [] |443| 
    2063            ;* --------------------------------------------------------------------------*
    2064                    .dwpsn  file "C:/Users/409010855/Documents/GitHub/CHARM/Embedded_Voltmeter/Basic WiFi Source/S
    2065 0002a6 4382          MOV.W     #0,&tSLInformation+0  ; [] |445| 
         0002a8 0000!
    2066            ;* --------------------------------------------------------------------------*
    2067 0002aa       $C$L76:    
    2068                    .dwpsn  file "C:/Users/409010855/Documents/GitHub/CHARM/Embedded_Voltmeter/Basic WiFi Source/S
    2069 0002aa 4382          MOV.W     #0,&tSLInformation+2  ; [] |469| 
         0002ac 0002!
    2070                    .dwpsn  file "C:/Users/409010855/Documents/GitHub/CHARM/Embedded_Voltmeter/Basic WiFi Source/S
    2071            $C$DW$129       .dwtag  DW_TAG_TI_branch
    2072                    .dwattr $C$DW$129, DW_AT_low_pc(0x00)
    2073                    .dwattr $C$DW$129, DW_AT_name("SpiResumeSpi")
    2074                    .dwattr $C$DW$129, DW_AT_TI_call
    2075 0002ae 13B0!         CALLA     #SpiResumeSpi         ; [] |471| 
         0002b0 0000 
    2076                                                      ; [] |471| 
    2077                    .dwpsn  file "C:/Users/409010855/Documents/GitHub/CHARM/Embedded_Voltmeter/Basic WiFi Source/S
    2078 0002b2 422F          MOV.W     #4,r15                ; [] |475| 
    2079 0002b4 996F          CMP.B     @r9,r15               ; [] |475| 
    2080 0002b6 2006          JNE       $C$L77                ; [] |475| 
    2081                                                      ; [] |475| 
    2082            ;* --------------------------------------------------------------------------*
    2083 0002b8 9038          CMP.W     #4096,r8              ; [] |475| 
         0002ba 1000 
    2084 0002bc 2003          JNE       $C$L77                ; [] |475| 
    2085                                                      ; [] |475| 
    2086            ;* --------------------------------------------------------------------------*
    2087                    .dwpsn  file "C:/Users/409010855/Documents/GitHub/CHARM/Embedded_Voltmeter/Basic WiFi Source/S
    2088 0002be 09CC          MOVA      r9,r12                ; [] |478| 
    2089            $C$DW$130       .dwtag  DW_TAG_TI_branch
    2090                    .dwattr $C$DW$130, DW_AT_low_pc(0x00)
    2091                    .dwattr $C$DW$130, DW_AT_name("hci_unsol_handle_patch_request")
MSP430 Assembler PC v4.2.1 Fri Mar 21 13:42:29 2014

Tools Copyright (c) 2003-2013 Texas Instruments Incorporated
C:\Users\409010~1\AppData\Local\Temp\0141212                         PAGE   43

    2092                    .dwattr $C$DW$130, DW_AT_TI_call
    2093 0002c0 13B0!         CALLA     #hci_unsol_handle_patch_request ; [] |478| 
         0002c2 0000 
    2094                                                      ; [] |478| 
    2095            ;* --------------------------------------------------------------------------*
    2096 0002c4       $C$L77:    
    2097                    .dwpsn  file "C:/Users/409010855/Documents/GitHub/CHARM/Embedded_Voltmeter/Basic WiFi Source/S
    2098 0002c4 9382          TST.W     &tSLInformation+0     ; [] |481| 
         0002c6 0000!
    2099 0002c8 22A0          JNE       $C$L44                ; [] |481| 
    2100                                                      ; [] |481| 
    2101            ;* --------------------------------------------------------------------------*
    2102 0002ca 9382          TST.W     &tSLInformation+50    ; [] |481| 
         0002cc 0032!
    2103 0002ce 229D          JNE       $C$L44                ; [] |481| 
    2104                                                      ; [] |481| 
    2105            ;* --------------------------------------------------------------------------*
    2106                    .dwpsn  file "C:/Users/409010855/Documents/GitHub/CHARM/Embedded_Voltmeter/Basic WiFi Source/S
    2107 0002d0 430C          MOV.W     #0,r12                ; [] |483| 
    2108 0002d2 1664          POPM.A    #7,r10                ; [] 
    2109                    .dwcfi  restore_reg, 4
    2110                    .dwcfi  restore_reg, 5
    2111                    .dwcfi  restore_reg, 6
    2112                    .dwcfi  restore_reg, 7
    2113                    .dwcfi  restore_reg, 8
    2114                    .dwcfi  restore_reg, 9
    2115                    .dwcfi  restore_reg, 10
    2116                    .dwcfi  cfa_offset, 4
    2117            $C$DW$131       .dwtag  DW_TAG_TI_branch
    2118                    .dwattr $C$DW$131, DW_AT_low_pc(0x00)
    2119                    .dwattr $C$DW$131, DW_AT_TI_return
    2120 0002d4 0110          RETA      ; [] 
    2121                    ; [] 
    2122                    .dwattr $C$DW$86, DW_AT_TI_end_file("C:/Users/409010855/Documents/GitHub/CHARM/Embedded_Voltme
    2123                    .dwattr $C$DW$86, DW_AT_TI_end_line(0x1e8)
    2124                    .dwattr $C$DW$86, DW_AT_TI_end_column(0x01)
    2125                    .dwendentry
    2126                    .dwendtag $C$DW$86
    2127            
    2128 0002d6               .sect   ".text:hci_event_handler"
    2129            
    2130            $C$DW$132       .dwtag  DW_TAG_subprogram, DW_AT_name("")
    2131                    .dwattr $C$DW$132, DW_AT_low_pc($abproc2)
    2132                    .dwattr $C$DW$132, DW_AT_high_pc(0x00)
    2133                    .dwattr $C$DW$132, DW_AT_TI_symbol_name("$abproc2")
    2134            
    2135                    .dwfde $C$DW$CIE, $abproc2
    2136            
    2137            ;*****************************************************************************
    2138            ;* ABSTRACTED PROCEDURE: $abproc2                                            *
    2139            ;*****************************************************************************
    2140 0002d6       $abproc2:
    2141                    .dwcfi  cfa_offset, 4
    2142 0002d6 13B0!         CALLA     #$abproc3             ; [] 
         0002d8 02E0 
MSP430 Assembler PC v4.2.1 Fri Mar 21 13:42:29 2014

Tools Copyright (c) 2003-2013 Texas Instruments Incorporated
C:\Users\409010~1\AppData\Local\Temp\0141212                         PAGE   44

    2143                                                      ; [] 
    2144 0002da 13B0!         CALLA     #STREAM_TO_UINT32_f   ; [] |356| 
         0002dc 0000 
    2145                                                      ; [] |356| 
    2146 0002de 0110          RETA      ; [] 
    2147                    ; [] 
    2148                    .dwendentry
    2149                    .dwendtag $C$DW$132
    2150            
    2151 0002e0               .sect   ".text:hci_event_handler"
    2152            
    2153            $C$DW$133       .dwtag  DW_TAG_subprogram, DW_AT_name("")
    2154                    .dwattr $C$DW$133, DW_AT_low_pc($abproc3)
    2155                    .dwattr $C$DW$133, DW_AT_high_pc(0x00)
    2156                    .dwattr $C$DW$133, DW_AT_TI_symbol_name("$abproc3")
    2157            
    2158                    .dwfde $C$DW$CIE, $abproc3
    2159            
    2160            ;*****************************************************************************
    2161            ;* ABSTRACTED PROCEDURE: $abproc3                                            *
    2162            ;*****************************************************************************
    2163 0002e0       $abproc3:
    2164                    .dwcfi  cfa_offset, 4
    2165 0002e0 13B0!         CALLA     #$abproc4             ; [] 
         0002e2 02EA 
    2166                                                      ; [] 
    2167 0002e4 0ACC          MOVA      r10,r12               ; [] |356| 
    2168 0002e6 423D          MOV.W     #8,r13                ; [] |356| 
    2169 0002e8 0110          RETA      ; [] 
    2170                    ; [] 
    2171                    .dwendentry
    2172                    .dwendtag $C$DW$133
    2173            
    2174 0002ea               .sect   ".text:hci_event_handler"
    2175            
    2176            $C$DW$134       .dwtag  DW_TAG_subprogram, DW_AT_name("")
    2177                    .dwattr $C$DW$134, DW_AT_low_pc($abproc4)
    2178                    .dwattr $C$DW$134, DW_AT_high_pc(0x00)
    2179                    .dwattr $C$DW$134, DW_AT_TI_symbol_name("$abproc4")
    2180            
    2181                    .dwfde $C$DW$CIE, $abproc4
    2182            
    2183            ;*****************************************************************************
    2184            ;* ABSTRACTED PROCEDURE: $abproc4                                            *
    2185            ;*****************************************************************************
    2186 0002ea       $abproc4:
    2187                    .dwcfi  cfa_offset, 4
    2188 0002ea 0ACC          MOVA      r10,r12               ; [] |352| 
    2189 0002ec 430D          MOV.W     #0,r13                ; [] |352| 
    2190 0002ee 13B0!         CALLA     #$abproc5             ; [] 
         0002f0 02FC 
    2191                                                      ; [] 
    2192 0002f2 0ACC          MOVA      r10,r12               ; [] |354| 
    2193 0002f4 422D          MOV.W     #4,r13                ; [] |354| 
    2194 0002f6 13B0!         CALLA     #$abproc5             ; [] 
MSP430 Assembler PC v4.2.1 Fri Mar 21 13:42:29 2014

Tools Copyright (c) 2003-2013 Texas Instruments Incorporated
C:\Users\409010~1\AppData\Local\Temp\0141212                         PAGE   45

         0002f8 02FC 
    2195                                                      ; [] 
    2196 0002fa 0110          RETA      ; [] 
    2197                    ; [] 
    2198                    .dwendentry
    2199                    .dwendtag $C$DW$134
    2200            
    2201 0002fc               .sect   ".text:hci_event_handler"
    2202            
    2203            $C$DW$135       .dwtag  DW_TAG_subprogram, DW_AT_name("")
    2204                    .dwattr $C$DW$135, DW_AT_low_pc($abproc5)
    2205                    .dwattr $C$DW$135, DW_AT_high_pc(0x00)
    2206                    .dwattr $C$DW$135, DW_AT_TI_symbol_name("$abproc5")
    2207            
    2208                    .dwfde $C$DW$CIE, $abproc5
    2209            
    2210            ;*****************************************************************************
    2211            ;* ABSTRACTED PROCEDURE: $abproc5                                            *
    2212            ;*****************************************************************************
    2213 0002fc       $abproc5:
    2214                    .dwcfi  cfa_offset, 4
    2215 0002fc 13B0!         CALLA     #STREAM_TO_UINT32_f   ; [] |352| 
         0002fe 0000 
    2216                                                      ; [] |352| 
    2217 000300 5227          ADD.W     #4,r7                 ; [] |352| 
    2218 000302 4C87          MOV.W     r12,-4(r7)            ; [] |352| 
         000304 FFFC 
    2219 000306 4D87          MOV.W     r13,-2(r7)            ; [] |352| 
         000308 FFFE 
    2220 00030a 0110          RETA      ; [] 
    2221                    ; [] 
    2222                    .dwendentry
    2223                    .dwendtag $C$DW$135
    2224            
    2225 00030c               .sect   ".text:hci_event_handler"
    2226            
    2227            $C$DW$136       .dwtag  DW_TAG_subprogram, DW_AT_name("")
    2228                    .dwattr $C$DW$136, DW_AT_low_pc($abproc6)
    2229                    .dwattr $C$DW$136, DW_AT_high_pc(0x00)
    2230                    .dwattr $C$DW$136, DW_AT_TI_symbol_name("$abproc6")
    2231            
    2232                    .dwfde $C$DW$CIE, $abproc6
    2233            
    2234            ;*****************************************************************************
    2235            ;* ABSTRACTED PROCEDURE: $abproc6                                            *
    2236            ;*****************************************************************************
    2237 00030c       $abproc6:
    2238                    .dwcfi  cfa_offset, 4
    2239 00030c 5316          ADD.W     #1,r6                 ; [] |414| 
    2240 00030e 4EF6          MOV.B     @r14+,-1(r6)          ; [] |414| 
         000310 FFFF 
    2241 000312 831F          SUB.W     #1,r15                ; [] |414| 
    2242 000314 0110          RETA      ; [] 
    2243                    ; [] 
    2244                    .dwendentry
MSP430 Assembler PC v4.2.1 Fri Mar 21 13:42:29 2014

Tools Copyright (c) 2003-2013 Texas Instruments Incorporated
C:\Users\409010~1\AppData\Local\Temp\0141212                         PAGE   46

    2245                    .dwendtag $C$DW$136
    2246            
    2247 000000               .sect   ".text:get_socket_active_status"
    2248                    .align  2
    2249                    .clink
    2250                    .global get_socket_active_status
    2251            
    2252            $C$DW$137       .dwtag  DW_TAG_subprogram, DW_AT_name("get_socket_active_status")
    2253                    .dwattr $C$DW$137, DW_AT_low_pc(get_socket_active_status)
    2254                    .dwattr $C$DW$137, DW_AT_high_pc(0x00)
    2255                    .dwattr $C$DW$137, DW_AT_TI_symbol_name("get_socket_active_status")
    2256                    .dwattr $C$DW$137, DW_AT_external
    2257                    .dwattr $C$DW$137, DW_AT_type(*$C$DW$T$32)
    2258                    .dwattr $C$DW$137, DW_AT_TI_begin_file("C:/Users/409010855/Documents/GitHub/CHARM/Embedded_Vol
    2259                    .dwattr $C$DW$137, DW_AT_TI_begin_line(0x2fd)
    2260                    .dwattr $C$DW$137, DW_AT_TI_begin_column(0x07)
    2261                    .dwattr $C$DW$137, DW_AT_TI_max_frame_size(0x04)
    2262                    .dwpsn  file "C:/Users/409010855/Documents/GitHub/CHARM/Embedded_Voltmeter/Basic WiFi Source/S
    2263            
    2264                    .dwfde $C$DW$CIE, get_socket_active_status
    2265            $C$DW$138       .dwtag  DW_TAG_formal_parameter, DW_AT_name("Sd")
    2266                    .dwattr $C$DW$138, DW_AT_TI_symbol_name("Sd")
    2267                    .dwattr $C$DW$138, DW_AT_type(*$C$DW$T$32)
    2268                    .dwattr $C$DW$138, DW_AT_location[DW_OP_reg12 DW_OP_piece 2 DW_OP_reg13 DW_OP_piece 2]
    2269            
    2270            ;*****************************************************************************
    2271            ;* FUNCTION NAME: get_socket_active_status                                   *
    2272            ;*                                                                           *
    2273            ;*   Regs Modified     : SP,SR,r12,r13,r14,r15                               *
    2274            ;*   Regs Used         : SP,SR,r12,r13,r14,r15                               *
    2275            ;*   Local Frame Size  : 0 Args + 0 Auto + 0 Save = 0 byte                   *
    2276            ;*****************************************************************************
    2277            get_socket_active_status:
    2278            ;* --------------------------------------------------------------------------*
    2279            ;* r12   assigned to Sd
    2280            $C$DW$139       .dwtag  DW_TAG_variable, DW_AT_name("Sd")
    2281                    .dwattr $C$DW$139, DW_AT_TI_symbol_name("Sd")
    2282                    .dwattr $C$DW$139, DW_AT_type(*$C$DW$T$95)
    2283                    .dwattr $C$DW$139, DW_AT_location[DW_OP_reg12 DW_OP_piece 2 DW_OP_reg13 DW_OP_piece 2]
    2284                    .dwcfi  cfa_offset, 4
    2285                    .dwcfi  save_reg_to_mem, 16, -4
    2286                    .dwpsn  file "C:/Users/409010855/Documents/GitHub/CHARM/Embedded_Voltmeter/Basic WiFi Source/S
    2287 000000 930D          TST.W     r13                   ; [] |771| 
    2288 000002 3805          JL        $C$L78                ; [] |771| 
    2289                                                      ; [] |771| 
    2290            ;* --------------------------------------------------------------------------*
    2291 000004 930D          TST.W     r13                   ; [] |771| 
    2292 000006 3806          JL        $C$L79                ; [] |771| 
    2293                                                      ; [] |771| 
    2294            ;* --------------------------------------------------------------------------*
    2295 000008 2002          JNE       $C$L78                ; [] |771| 
    2296                                                      ; [] |771| 
    2297            ;* --------------------------------------------------------------------------*
    2298 00000a 923C          CMP.W     #8,r12                ; [] |771| 
    2299 00000c 2803          JLO       $C$L79                ; [] |771| 
MSP430 Assembler PC v4.2.1 Fri Mar 21 13:42:29 2014

Tools Copyright (c) 2003-2013 Texas Instruments Incorporated
C:\Users\409010~1\AppData\Local\Temp\0141212                         PAGE   47

    2300                                                      ; [] |771| 
    2301            ;* --------------------------------------------------------------------------*
    2302 00000e       $C$L78:    
    2303 00000e 431C          MOV.W     #1,r12                ; [] |771| 
    2304 000010 430D          MOV.W     #0,r13                ; [] |771| 
    2305            $C$DW$140       .dwtag  DW_TAG_TI_branch
    2306                    .dwattr $C$DW$140, DW_AT_low_pc(0x00)
    2307                    .dwattr $C$DW$140, DW_AT_TI_return
    2308 000012 0110          RETA      ; [] 
    2309                    ; [] 
    2310            ;* --------------------------------------------------------------------------*
    2311 000014       $C$L79:    
    2312 000014 430F          MOV.W     #0,r15                ; [] |771| 
    2313 000016 430E          MOV.W     #0,r14                ; [] |771| 
    2314 000018 0CCD          MOVA      r12,r13               ; [] |771| 
    2315 00001a 431C          MOV.W     #1,r12                ; [] |771| 
    2316            $C$DW$141       .dwtag  DW_TAG_TI_branch
    2317                    .dwattr $C$DW$141, DW_AT_low_pc(0x00)
    2318                    .dwattr $C$DW$141, DW_AT_name("I_LSL")
    2319                    .dwattr $C$DW$141, DW_AT_TI_call
    2320 00001c 13B0!         CALLA     #I_LSL                ; [] |771| 
         00001e 0000 
    2321                                                      ; [] |771| 
    2322 000020 B03C          BIT.W     #32768,r12            ; [] |771| 
         000022 8000 
    2323 000024 7D0D          SUBC.W    r13,r13               ; [] |771| 
    2324 000026 E33D          INV.W     r13                   ; [] |771| 
    2325 000028 F21C          AND.W     &socket_active_status+0,r12 ; [] |771| 
         00002a 0000!
    2326 00002c F21D          AND.W     &socket_active_status+2,r13 ; [] |771| 
         00002e 0002!
    2327 000030 930D          TST.W     r13                   ; [] |771| 
    2328 000032 2002          JNE       $C$L80                ; [] |771| 
    2329                                                      ; [] |771| 
    2330            ;* --------------------------------------------------------------------------*
    2331 000034 930C          TST.W     r12                   ; [] |771| 
    2332 000036 2401          JEQ       $C$L81                ; [] |771| 
    2333                                                      ; [] |771| 
    2334            ;* --------------------------------------------------------------------------*
    2335 000038       $C$L80:    
    2336 000038 431F          MOV.W     #1,r15                ; [] |771| 
    2337            ;* --------------------------------------------------------------------------*
    2338 00003a       $C$L81:    
    2339 00003a 0FCC          MOVA      r15,r12               ; [] |771| 
    2340 00003c 0ECD          MOVA      r14,r13               ; [] |771| 
    2341            $C$DW$142       .dwtag  DW_TAG_TI_branch
    2342                    .dwattr $C$DW$142, DW_AT_low_pc(0x00)
    2343                    .dwattr $C$DW$142, DW_AT_TI_return
    2344 00003e 0110          RETA      ; [] 
    2345                    ; [] 
    2346                    .dwattr $C$DW$137, DW_AT_TI_end_file("C:/Users/409010855/Documents/GitHub/CHARM/Embedded_Voltm
    2347                    .dwattr $C$DW$137, DW_AT_TI_end_line(0x304)
    2348                    .dwattr $C$DW$137, DW_AT_TI_end_column(0x01)
    2349                    .dwendentry
    2350                    .dwendtag $C$DW$137
MSP430 Assembler PC v4.2.1 Fri Mar 21 13:42:29 2014

Tools Copyright (c) 2003-2013 Texas Instruments Incorporated
C:\Users\409010~1\AppData\Local\Temp\0141212                         PAGE   48

    2351            
    2352 000000               .sect   ".text:SimpleLinkWaitEvent"
    2353                    .align  2
    2354                    .clink
    2355                    .global SimpleLinkWaitEvent
    2356            
    2357            $C$DW$143       .dwtag  DW_TAG_subprogram, DW_AT_name("SimpleLinkWaitEvent")
    2358                    .dwattr $C$DW$143, DW_AT_low_pc(SimpleLinkWaitEvent)
    2359                    .dwattr $C$DW$143, DW_AT_high_pc(0x00)
    2360                    .dwattr $C$DW$143, DW_AT_TI_symbol_name("SimpleLinkWaitEvent")
    2361                    .dwattr $C$DW$143, DW_AT_external
    2362                    .dwattr $C$DW$143, DW_AT_TI_begin_file("C:/Users/409010855/Documents/GitHub/CHARM/Embedded_Vol
    2363                    .dwattr $C$DW$143, DW_AT_TI_begin_line(0x32c)
    2364                    .dwattr $C$DW$143, DW_AT_TI_begin_column(0x06)
    2365                    .dwattr $C$DW$143, DW_AT_TI_max_frame_size(0x04)
    2366                    .dwpsn  file "C:/Users/409010855/Documents/GitHub/CHARM/Embedded_Voltmeter/Basic WiFi Source/S
    2367            
    2368                    .dwfde $C$DW$CIE, SimpleLinkWaitEvent
    2369            $C$DW$144       .dwtag  DW_TAG_formal_parameter, DW_AT_name("usOpcode")
    2370                    .dwattr $C$DW$144, DW_AT_TI_symbol_name("usOpcode")
    2371                    .dwattr $C$DW$144, DW_AT_type(*$C$DW$T$19)
    2372                    .dwattr $C$DW$144, DW_AT_location[DW_OP_reg12]
    2373            $C$DW$145       .dwtag  DW_TAG_formal_parameter, DW_AT_name("pRetParams")
    2374                    .dwattr $C$DW$145, DW_AT_TI_symbol_name("pRetParams")
    2375                    .dwattr $C$DW$145, DW_AT_type(*$C$DW$T$3)
    2376                    .dwattr $C$DW$145, DW_AT_location[DW_OP_reg13]
    2377            
    2378            ;*****************************************************************************
    2379            ;* FUNCTION NAME: SimpleLinkWaitEvent                                        *
    2380            ;*                                                                           *
    2381            ;*   Regs Modified     : SR,r11,r12,r13,r14,r15                              *
    2382            ;*   Regs Used         : SR,r11,r12,r13,r14,r15                              *
    2383            ;*   Local Frame Size  : 0 Args + 0 Auto + 0 Save = 0 byte                   *
    2384            ;*****************************************************************************
    2385            SimpleLinkWaitEvent:
    2386            ;* --------------------------------------------------------------------------*
    2387            ;* r15   assigned to usOpcode
    2388            $C$DW$146       .dwtag  DW_TAG_variable, DW_AT_name("usOpcode")
    2389                    .dwattr $C$DW$146, DW_AT_TI_symbol_name("usOpcode")
    2390                    .dwattr $C$DW$146, DW_AT_type(*$C$DW$T$88)
    2391                    .dwattr $C$DW$146, DW_AT_location[DW_OP_reg15]
    2392            ;* r12   assigned to pRetParams
    2393            $C$DW$147       .dwtag  DW_TAG_variable, DW_AT_name("pRetParams")
    2394                    .dwattr $C$DW$147, DW_AT_TI_symbol_name("pRetParams")
    2395                    .dwattr $C$DW$147, DW_AT_type(*$C$DW$T$63)
    2396                    .dwattr $C$DW$147, DW_AT_location[DW_OP_reg12]
    2397                    .dwcfi  cfa_offset, 4
    2398                    .dwcfi  save_reg_to_mem, 16, -4
    2399 000000 0CCF          MOVA      r12,r15               ; [] |813| 
    2400 000002 0DCC          MOVA      r13,r12               ; [] |813| 
    2401                    .dwpsn  file "C:/Users/409010855/Documents/GitHub/CHARM/Embedded_Voltmeter/Basic WiFi Source/S
    2402 000004 4F82          MOV.W     r15,&tSLInformation+0 ; [] |816| 
         000006 0000!
    2403                    .dwpsn  file "C:/Users/409010855/Documents/GitHub/CHARM/Embedded_Voltmeter/Basic WiFi Source/S
    2404 000008 430D          MOV.W     #0,r13                ; [] |817| 
MSP430 Assembler PC v4.2.1 Fri Mar 21 13:42:29 2014

Tools Copyright (c) 2003-2013 Texas Instruments Incorporated
C:\Users\409010~1\AppData\Local\Temp\0141212                         PAGE   49

    2405 00000a 430E          MOV.W     #0,r14                ; [] |817| 
    2406            $C$DW$148       .dwtag  DW_TAG_TI_branch
    2407                    .dwattr $C$DW$148, DW_AT_low_pc(0x00)
    2408                    .dwattr $C$DW$148, DW_AT_name("hci_event_handler")
    2409                    .dwattr $C$DW$148, DW_AT_TI_call
    2410                    .dwattr $C$DW$148, DW_AT_TI_return
    2411 00000c 0080!         MOVX.A    #hci_event_handler,PC ; [] |817| 
         00000e 0000 
    2412                                                      ; [] |817| 
    2413                    .dwattr $C$DW$143, DW_AT_TI_end_file("C:/Users/409010855/Documents/GitHub/CHARM/Embedded_Voltm
    2414                    .dwattr $C$DW$143, DW_AT_TI_end_line(0x332)
    2415                    .dwattr $C$DW$143, DW_AT_TI_end_column(0x01)
    2416                    .dwendentry
    2417                    .dwendtag $C$DW$143
    2418            
    2419 000000               .sect   ".text:SimpleLinkWaitData"
    2420                    .align  2
    2421                    .clink
    2422                    .global SimpleLinkWaitData
    2423            
    2424            $C$DW$149       .dwtag  DW_TAG_subprogram, DW_AT_name("SimpleLinkWaitData")
    2425                    .dwattr $C$DW$149, DW_AT_low_pc(SimpleLinkWaitData)
    2426                    .dwattr $C$DW$149, DW_AT_high_pc(0x00)
    2427                    .dwattr $C$DW$149, DW_AT_TI_symbol_name("SimpleLinkWaitData")
    2428                    .dwattr $C$DW$149, DW_AT_external
    2429                    .dwattr $C$DW$149, DW_AT_TI_begin_file("C:/Users/409010855/Documents/GitHub/CHARM/Embedded_Vol
    2430                    .dwattr $C$DW$149, DW_AT_TI_begin_line(0x344)
    2431                    .dwattr $C$DW$149, DW_AT_TI_begin_column(0x06)
    2432                    .dwattr $C$DW$149, DW_AT_TI_max_frame_size(0x04)
    2433                    .dwpsn  file "C:/Users/409010855/Documents/GitHub/CHARM/Embedded_Voltmeter/Basic WiFi Source/S
    2434            
    2435                    .dwfde $C$DW$CIE, SimpleLinkWaitData
    2436            $C$DW$150       .dwtag  DW_TAG_formal_parameter, DW_AT_name("pBuf")
    2437                    .dwattr $C$DW$150, DW_AT_TI_symbol_name("pBuf")
    2438                    .dwattr $C$DW$150, DW_AT_type(*$C$DW$T$21)
    2439                    .dwattr $C$DW$150, DW_AT_location[DW_OP_reg12]
    2440            $C$DW$151       .dwtag  DW_TAG_formal_parameter, DW_AT_name("from")
    2441                    .dwattr $C$DW$151, DW_AT_TI_symbol_name("from")
    2442                    .dwattr $C$DW$151, DW_AT_type(*$C$DW$T$21)
    2443                    .dwattr $C$DW$151, DW_AT_location[DW_OP_reg13]
    2444            $C$DW$152       .dwtag  DW_TAG_formal_parameter, DW_AT_name("fromlen")
    2445                    .dwattr $C$DW$152, DW_AT_TI_symbol_name("fromlen")
    2446                    .dwattr $C$DW$152, DW_AT_type(*$C$DW$T$21)
    2447                    .dwattr $C$DW$152, DW_AT_location[DW_OP_reg14]
    2448            
    2449            ;*****************************************************************************
    2450            ;* FUNCTION NAME: SimpleLinkWaitData                                         *
    2451            ;*                                                                           *
    2452            ;*   Regs Modified     : SR,r11,r12,r13,r14,r15                              *
    2453            ;*   Regs Used         : SR,r11,r12,r13,r14,r15                              *
    2454            ;*   Local Frame Size  : 0 Args + 0 Auto + 0 Save = 0 byte                   *
    2455            ;*****************************************************************************
    2456            SimpleLinkWaitData:
    2457            ;* --------------------------------------------------------------------------*
    2458            ;* r12   assigned to pBuf
MSP430 Assembler PC v4.2.1 Fri Mar 21 13:42:29 2014

Tools Copyright (c) 2003-2013 Texas Instruments Incorporated
C:\Users\409010~1\AppData\Local\Temp\0141212                         PAGE   50

    2459            $C$DW$153       .dwtag  DW_TAG_variable, DW_AT_name("pBuf")
    2460                    .dwattr $C$DW$153, DW_AT_TI_symbol_name("pBuf")
    2461                    .dwattr $C$DW$153, DW_AT_type(*$C$DW$T$75)
    2462                    .dwattr $C$DW$153, DW_AT_location[DW_OP_reg12]
    2463            ;* r13   assigned to from
    2464            $C$DW$154       .dwtag  DW_TAG_variable, DW_AT_name("from")
    2465                    .dwattr $C$DW$154, DW_AT_TI_symbol_name("from")
    2466                    .dwattr $C$DW$154, DW_AT_type(*$C$DW$T$75)
    2467                    .dwattr $C$DW$154, DW_AT_location[DW_OP_reg13]
    2468            ;* r14   assigned to fromlen
    2469            $C$DW$155       .dwtag  DW_TAG_variable, DW_AT_name("fromlen")
    2470                    .dwattr $C$DW$155, DW_AT_TI_symbol_name("fromlen")
    2471                    .dwattr $C$DW$155, DW_AT_type(*$C$DW$T$75)
    2472                    .dwattr $C$DW$155, DW_AT_location[DW_OP_reg14]
    2473                    .dwcfi  cfa_offset, 4
    2474                    .dwcfi  save_reg_to_mem, 16, -4
    2475                    .dwpsn  file "C:/Users/409010855/Documents/GitHub/CHARM/Embedded_Voltmeter/Basic WiFi Source/S
    2476 000000 4392          MOV.W     #1,&tSLInformation+50 ; [] |840| 
         000002 0032!
    2477                    .dwpsn  file "C:/Users/409010855/Documents/GitHub/CHARM/Embedded_Voltmeter/Basic WiFi Source/S
    2478            $C$DW$156       .dwtag  DW_TAG_TI_branch
    2479                    .dwattr $C$DW$156, DW_AT_low_pc(0x00)
    2480                    .dwattr $C$DW$156, DW_AT_name("hci_event_handler")
    2481                    .dwattr $C$DW$156, DW_AT_TI_call
    2482                    .dwattr $C$DW$156, DW_AT_TI_return
    2483 000004 0080!         MOVX.A    #hci_event_handler,PC ; [] |841| 
         000006 0000 
    2484                                                      ; [] |841| 
    2485                    .dwattr $C$DW$149, DW_AT_TI_end_file("C:/Users/409010855/Documents/GitHub/CHARM/Embedded_Voltm
    2486                    .dwattr $C$DW$149, DW_AT_TI_end_line(0x34a)
    2487                    .dwattr $C$DW$149, DW_AT_TI_end_column(0x01)
    2488                    .dwendentry
    2489                    .dwendtag $C$DW$149
    2490            
    2491            ;*****************************************************************************
    2492            ;* UNDEFINED EXTERNAL REFERENCES                                             *
    2493            ;*****************************************************************************
    2494                    .global UINT32_TO_STREAM_f
    2495                    .global STREAM_TO_UINT16_f
    2496                    .global STREAM_TO_UINT32_f
    2497                    .global hci_patch_send
    2498                    .global SpiResumeSpi
    2499                    .global tSLInformation
    2500                    .global I_LSL
    2501                    .global L_LSL
    2502                    .global memcpy
    2503            
    2504            ;******************************************************************************
    2505            ;* BUILD ATTRIBUTES                                                           *
    2506            ;******************************************************************************
    2507                    .battr "TI", Tag_File, 1, Tag_ABI_enum_size(3)
    2508            
    2509            ;******************************************************************************
    2510            ;* TYPE INFORMATION                                                           *
    2511            ;******************************************************************************
MSP430 Assembler PC v4.2.1 Fri Mar 21 13:42:29 2014

Tools Copyright (c) 2003-2013 Texas Instruments Incorporated
C:\Users\409010~1\AppData\Local\Temp\0141212                         PAGE   51

    2512            
    2513            $C$DW$T$46      .dwtag  DW_TAG_structure_type
    2514                    .dwattr $C$DW$T$46, DW_AT_byte_size(0x3e)
    2515            $C$DW$157       .dwtag  DW_TAG_member
    2516                    .dwattr $C$DW$157, DW_AT_type(*$C$DW$T$19)
    2517                    .dwattr $C$DW$157, DW_AT_name("usRxEventOpcode")
    2518                    .dwattr $C$DW$157, DW_AT_TI_symbol_name("usRxEventOpcode")
    2519                    .dwattr $C$DW$157, DW_AT_data_member_location[DW_OP_plus_uconst 0x0]
    2520                    .dwattr $C$DW$157, DW_AT_accessibility(DW_ACCESS_public)
    2521            $C$DW$158       .dwtag  DW_TAG_member
    2522                    .dwattr $C$DW$158, DW_AT_type(*$C$DW$T$19)
    2523                    .dwattr $C$DW$158, DW_AT_name("usEventOrDataReceived")
    2524                    .dwattr $C$DW$158, DW_AT_TI_symbol_name("usEventOrDataReceived")
    2525                    .dwattr $C$DW$158, DW_AT_data_member_location[DW_OP_plus_uconst 0x2]
    2526                    .dwattr $C$DW$158, DW_AT_accessibility(DW_ACCESS_public)
    2527            $C$DW$159       .dwtag  DW_TAG_member
    2528                    .dwattr $C$DW$159, DW_AT_type(*$C$DW$T$21)
    2529                    .dwattr $C$DW$159, DW_AT_name("pucReceivedData")
    2530                    .dwattr $C$DW$159, DW_AT_TI_symbol_name("pucReceivedData")
    2531                    .dwattr $C$DW$159, DW_AT_data_member_location[DW_OP_plus_uconst 0x4]
    2532                    .dwattr $C$DW$159, DW_AT_accessibility(DW_ACCESS_public)
    2533            $C$DW$160       .dwtag  DW_TAG_member
    2534                    .dwattr $C$DW$160, DW_AT_type(*$C$DW$T$21)
    2535                    .dwattr $C$DW$160, DW_AT_name("pucTxCommandBuffer")
    2536                    .dwattr $C$DW$160, DW_AT_TI_symbol_name("pucTxCommandBuffer")
    2537                    .dwattr $C$DW$160, DW_AT_data_member_location[DW_OP_plus_uconst 0x6]
    2538                    .dwattr $C$DW$160, DW_AT_accessibility(DW_ACCESS_public)
    2539            $C$DW$161       .dwtag  DW_TAG_member
    2540                    .dwattr $C$DW$161, DW_AT_type(*$C$DW$T$29)
    2541                    .dwattr $C$DW$161, DW_AT_name("sFWPatches")
    2542                    .dwattr $C$DW$161, DW_AT_TI_symbol_name("sFWPatches")
    2543                    .dwattr $C$DW$161, DW_AT_data_member_location[DW_OP_plus_uconst 0x8]
    2544                    .dwattr $C$DW$161, DW_AT_accessibility(DW_ACCESS_public)
    2545            $C$DW$162       .dwtag  DW_TAG_member
    2546                    .dwattr $C$DW$162, DW_AT_type(*$C$DW$T$30)
    2547                    .dwattr $C$DW$162, DW_AT_name("sDriverPatches")
    2548                    .dwattr $C$DW$162, DW_AT_TI_symbol_name("sDriverPatches")
    2549                    .dwattr $C$DW$162, DW_AT_data_member_location[DW_OP_plus_uconst 0xc]
    2550                    .dwattr $C$DW$162, DW_AT_accessibility(DW_ACCESS_public)
    2551            $C$DW$163       .dwtag  DW_TAG_member
    2552                    .dwattr $C$DW$163, DW_AT_type(*$C$DW$T$31)
    2553                    .dwattr $C$DW$163, DW_AT_name("sBootLoaderPatches")
    2554                    .dwattr $C$DW$163, DW_AT_TI_symbol_name("sBootLoaderPatches")
    2555                    .dwattr $C$DW$163, DW_AT_data_member_location[DW_OP_plus_uconst 0x10]
    2556                    .dwattr $C$DW$163, DW_AT_accessibility(DW_ACCESS_public)
    2557            $C$DW$164       .dwtag  DW_TAG_member
    2558                    .dwattr $C$DW$164, DW_AT_type(*$C$DW$T$35)
    2559                    .dwattr $C$DW$164, DW_AT_name("sWlanCB")
    2560                    .dwattr $C$DW$164, DW_AT_TI_symbol_name("sWlanCB")
    2561                    .dwattr $C$DW$164, DW_AT_data_member_location[DW_OP_plus_uconst 0x14]
    2562                    .dwattr $C$DW$164, DW_AT_accessibility(DW_ACCESS_public)
    2563            $C$DW$165       .dwtag  DW_TAG_member
    2564                    .dwattr $C$DW$165, DW_AT_type(*$C$DW$T$38)
    2565                    .dwattr $C$DW$165, DW_AT_name("ReadWlanInterruptPin")
    2566                    .dwattr $C$DW$165, DW_AT_TI_symbol_name("ReadWlanInterruptPin")
MSP430 Assembler PC v4.2.1 Fri Mar 21 13:42:29 2014

Tools Copyright (c) 2003-2013 Texas Instruments Incorporated
C:\Users\409010~1\AppData\Local\Temp\0141212                         PAGE   52

    2567                    .dwattr $C$DW$165, DW_AT_data_member_location[DW_OP_plus_uconst 0x18]
    2568                    .dwattr $C$DW$165, DW_AT_accessibility(DW_ACCESS_public)
    2569            $C$DW$166       .dwtag  DW_TAG_member
    2570                    .dwattr $C$DW$166, DW_AT_type(*$C$DW$T$41)
    2571                    .dwattr $C$DW$166, DW_AT_name("WlanInterruptEnable")
    2572                    .dwattr $C$DW$166, DW_AT_TI_symbol_name("WlanInterruptEnable")
    2573                    .dwattr $C$DW$166, DW_AT_data_member_location[DW_OP_plus_uconst 0x1c]
    2574                    .dwattr $C$DW$166, DW_AT_accessibility(DW_ACCESS_public)
    2575            $C$DW$167       .dwtag  DW_TAG_member
    2576                    .dwattr $C$DW$167, DW_AT_type(*$C$DW$T$42)
    2577                    .dwattr $C$DW$167, DW_AT_name("WlanInterruptDisable")
    2578                    .dwattr $C$DW$167, DW_AT_TI_symbol_name("WlanInterruptDisable")
    2579                    .dwattr $C$DW$167, DW_AT_data_member_location[DW_OP_plus_uconst 0x20]
    2580                    .dwattr $C$DW$167, DW_AT_accessibility(DW_ACCESS_public)
    2581            $C$DW$168       .dwtag  DW_TAG_member
    2582                    .dwattr $C$DW$168, DW_AT_type(*$C$DW$T$45)
    2583                    .dwattr $C$DW$168, DW_AT_name("WriteWlanPin")
    2584                    .dwattr $C$DW$168, DW_AT_TI_symbol_name("WriteWlanPin")
    2585                    .dwattr $C$DW$168, DW_AT_data_member_location[DW_OP_plus_uconst 0x24]
    2586                    .dwattr $C$DW$168, DW_AT_accessibility(DW_ACCESS_public)
    2587            $C$DW$169       .dwtag  DW_TAG_member
    2588                    .dwattr $C$DW$169, DW_AT_type(*$C$DW$T$32)
    2589                    .dwattr $C$DW$169, DW_AT_name("slTransmitDataError")
    2590                    .dwattr $C$DW$169, DW_AT_TI_symbol_name("slTransmitDataError")
    2591                    .dwattr $C$DW$169, DW_AT_data_member_location[DW_OP_plus_uconst 0x28]
    2592                    .dwattr $C$DW$169, DW_AT_accessibility(DW_ACCESS_public)
    2593            $C$DW$170       .dwtag  DW_TAG_member
    2594                    .dwattr $C$DW$170, DW_AT_type(*$C$DW$T$19)
    2595                    .dwattr $C$DW$170, DW_AT_name("usNumberOfFreeBuffers")
    2596                    .dwattr $C$DW$170, DW_AT_TI_symbol_name("usNumberOfFreeBuffers")
    2597                    .dwattr $C$DW$170, DW_AT_data_member_location[DW_OP_plus_uconst 0x2c]
    2598                    .dwattr $C$DW$170, DW_AT_accessibility(DW_ACCESS_public)
    2599            $C$DW$171       .dwtag  DW_TAG_member
    2600                    .dwattr $C$DW$171, DW_AT_type(*$C$DW$T$19)
    2601                    .dwattr $C$DW$171, DW_AT_name("usSlBufferLength")
    2602                    .dwattr $C$DW$171, DW_AT_TI_symbol_name("usSlBufferLength")
    2603                    .dwattr $C$DW$171, DW_AT_data_member_location[DW_OP_plus_uconst 0x2e]
    2604                    .dwattr $C$DW$171, DW_AT_accessibility(DW_ACCESS_public)
    2605            $C$DW$172       .dwtag  DW_TAG_member
    2606                    .dwattr $C$DW$172, DW_AT_type(*$C$DW$T$19)
    2607                    .dwattr $C$DW$172, DW_AT_name("usBufferSize")
    2608                    .dwattr $C$DW$172, DW_AT_TI_symbol_name("usBufferSize")
    2609                    .dwattr $C$DW$172, DW_AT_data_member_location[DW_OP_plus_uconst 0x30]
    2610                    .dwattr $C$DW$172, DW_AT_accessibility(DW_ACCESS_public)
    2611            $C$DW$173       .dwtag  DW_TAG_member
    2612                    .dwattr $C$DW$173, DW_AT_type(*$C$DW$T$19)
    2613                    .dwattr $C$DW$173, DW_AT_name("usRxDataPending")
    2614                    .dwattr $C$DW$173, DW_AT_TI_symbol_name("usRxDataPending")
    2615                    .dwattr $C$DW$173, DW_AT_data_member_location[DW_OP_plus_uconst 0x32]
    2616                    .dwattr $C$DW$173, DW_AT_accessibility(DW_ACCESS_public)
    2617            $C$DW$174       .dwtag  DW_TAG_member
    2618                    .dwattr $C$DW$174, DW_AT_type(*$C$DW$T$25)
    2619                    .dwattr $C$DW$174, DW_AT_name("NumberOfSentPackets")
    2620                    .dwattr $C$DW$174, DW_AT_TI_symbol_name("NumberOfSentPackets")
    2621                    .dwattr $C$DW$174, DW_AT_data_member_location[DW_OP_plus_uconst 0x34]
MSP430 Assembler PC v4.2.1 Fri Mar 21 13:42:29 2014

Tools Copyright (c) 2003-2013 Texas Instruments Incorporated
C:\Users\409010~1\AppData\Local\Temp\0141212                         PAGE   53

    2622                    .dwattr $C$DW$174, DW_AT_accessibility(DW_ACCESS_public)
    2623            $C$DW$175       .dwtag  DW_TAG_member
    2624                    .dwattr $C$DW$175, DW_AT_type(*$C$DW$T$25)
    2625                    .dwattr $C$DW$175, DW_AT_name("NumberOfReleasedPackets")
    2626                    .dwattr $C$DW$175, DW_AT_TI_symbol_name("NumberOfReleasedPackets")
    2627                    .dwattr $C$DW$175, DW_AT_data_member_location[DW_OP_plus_uconst 0x38]
    2628                    .dwattr $C$DW$175, DW_AT_accessibility(DW_ACCESS_public)
    2629            $C$DW$176       .dwtag  DW_TAG_member
    2630                    .dwattr $C$DW$176, DW_AT_type(*$C$DW$T$20)
    2631                    .dwattr $C$DW$176, DW_AT_name("InformHostOnTxComplete")
    2632                    .dwattr $C$DW$176, DW_AT_TI_symbol_name("InformHostOnTxComplete")
    2633                    .dwattr $C$DW$176, DW_AT_data_member_location[DW_OP_plus_uconst 0x3c]
    2634                    .dwattr $C$DW$176, DW_AT_accessibility(DW_ACCESS_public)
    2635                    .dwendtag $C$DW$T$46
    2636            
    2637            $C$DW$T$56      .dwtag  DW_TAG_typedef, DW_AT_name("sSimplLinkInformation")
    2638                    .dwattr $C$DW$T$56, DW_AT_type(*$C$DW$T$46)
    2639                    .dwattr $C$DW$T$56, DW_AT_language(DW_LANG_C)
    2640            $C$DW$T$57      .dwtag  DW_TAG_volatile_type
    2641                    .dwattr $C$DW$T$57, DW_AT_type(*$C$DW$T$56)
    2642            
    2643            $C$DW$T$47      .dwtag  DW_TAG_structure_type
    2644                    .dwattr $C$DW$T$47, DW_AT_name("S3_1")
    2645                    .dwattr $C$DW$T$47, DW_AT_declaration
    2646                    .dwendtag $C$DW$T$47
    2647            
    2648            
    2649            $C$DW$T$49      .dwtag  DW_TAG_structure_type
    2650                    .dwattr $C$DW$T$49, DW_AT_name("S3_3")
    2651                    .dwattr $C$DW$T$49, DW_AT_declaration
    2652                    .dwendtag $C$DW$T$49
    2653            
    2654            
    2655            $C$DW$T$50      .dwtag  DW_TAG_union_type
    2656                    .dwattr $C$DW$T$50, DW_AT_name("U3_0")
    2657                    .dwattr $C$DW$T$50, DW_AT_declaration
    2658                    .dwendtag $C$DW$T$50
    2659            
    2660            $C$DW$T$3       .dwtag  DW_TAG_pointer_type
    2661                    .dwattr $C$DW$T$3, DW_AT_address_class(0x10)
    2662            $C$DW$T$63      .dwtag  DW_TAG_const_type
    2663                    .dwattr $C$DW$T$63, DW_AT_type(*$C$DW$T$3)
    2664            
    2665            $C$DW$T$33      .dwtag  DW_TAG_subroutine_type
    2666                    .dwattr $C$DW$T$33, DW_AT_language(DW_LANG_C)
    2667            $C$DW$177       .dwtag  DW_TAG_formal_parameter
    2668                    .dwattr $C$DW$177, DW_AT_type(*$C$DW$T$32)
    2669            $C$DW$178       .dwtag  DW_TAG_formal_parameter
    2670                    .dwattr $C$DW$178, DW_AT_type(*$C$DW$T$24)
    2671            $C$DW$179       .dwtag  DW_TAG_formal_parameter
    2672                    .dwattr $C$DW$179, DW_AT_type(*$C$DW$T$20)
    2673                    .dwendtag $C$DW$T$33
    2674            
    2675            $C$DW$T$34      .dwtag  DW_TAG_pointer_type
    2676                    .dwattr $C$DW$T$34, DW_AT_type(*$C$DW$T$33)
MSP430 Assembler PC v4.2.1 Fri Mar 21 13:42:29 2014

Tools Copyright (c) 2003-2013 Texas Instruments Incorporated
C:\Users\409010~1\AppData\Local\Temp\0141212                         PAGE   54

    2677                    .dwattr $C$DW$T$34, DW_AT_address_class(0x14)
    2678            $C$DW$T$35      .dwtag  DW_TAG_typedef, DW_AT_name("tWlanCB")
    2679                    .dwattr $C$DW$T$35, DW_AT_type(*$C$DW$T$34)
    2680                    .dwattr $C$DW$T$35, DW_AT_language(DW_LANG_C)
    2681            
    2682            $C$DW$T$39      .dwtag  DW_TAG_subroutine_type
    2683                    .dwattr $C$DW$T$39, DW_AT_language(DW_LANG_C)
    2684            $C$DW$T$40      .dwtag  DW_TAG_pointer_type
    2685                    .dwattr $C$DW$T$40, DW_AT_type(*$C$DW$T$39)
    2686                    .dwattr $C$DW$T$40, DW_AT_address_class(0x14)
    2687            $C$DW$T$42      .dwtag  DW_TAG_typedef, DW_AT_name("tWlanInterruptDisable")
    2688                    .dwattr $C$DW$T$42, DW_AT_type(*$C$DW$T$40)
    2689                    .dwattr $C$DW$T$42, DW_AT_language(DW_LANG_C)
    2690            $C$DW$T$41      .dwtag  DW_TAG_typedef, DW_AT_name("tWlanInterruptEnable")
    2691                    .dwattr $C$DW$T$41, DW_AT_type(*$C$DW$T$40)
    2692                    .dwattr $C$DW$T$41, DW_AT_language(DW_LANG_C)
    2693            
    2694            $C$DW$T$43      .dwtag  DW_TAG_subroutine_type
    2695                    .dwattr $C$DW$T$43, DW_AT_language(DW_LANG_C)
    2696            $C$DW$180       .dwtag  DW_TAG_formal_parameter
    2697                    .dwattr $C$DW$180, DW_AT_type(*$C$DW$T$20)
    2698                    .dwendtag $C$DW$T$43
    2699            
    2700            $C$DW$T$44      .dwtag  DW_TAG_pointer_type
    2701                    .dwattr $C$DW$T$44, DW_AT_type(*$C$DW$T$43)
    2702                    .dwattr $C$DW$T$44, DW_AT_address_class(0x14)
    2703            $C$DW$T$45      .dwtag  DW_TAG_typedef, DW_AT_name("tWriteWlanPin")
    2704                    .dwattr $C$DW$T$45, DW_AT_type(*$C$DW$T$44)
    2705                    .dwattr $C$DW$T$45, DW_AT_language(DW_LANG_C)
    2706            $C$DW$T$59      .dwtag  DW_TAG_const_type
    2707            $C$DW$T$60      .dwtag  DW_TAG_pointer_type
    2708                    .dwattr $C$DW$T$60, DW_AT_type(*$C$DW$T$59)
    2709                    .dwattr $C$DW$T$60, DW_AT_address_class(0x10)
    2710            $C$DW$T$4       .dwtag  DW_TAG_base_type
    2711                    .dwattr $C$DW$T$4, DW_AT_encoding(DW_ATE_boolean)
    2712                    .dwattr $C$DW$T$4, DW_AT_name("bool")
    2713                    .dwattr $C$DW$T$4, DW_AT_byte_size(0x01)
    2714            $C$DW$T$5       .dwtag  DW_TAG_base_type
    2715                    .dwattr $C$DW$T$5, DW_AT_encoding(DW_ATE_signed_char)
    2716                    .dwattr $C$DW$T$5, DW_AT_name("signed char")
    2717                    .dwattr $C$DW$T$5, DW_AT_byte_size(0x01)
    2718            $C$DW$T$6       .dwtag  DW_TAG_base_type
    2719                    .dwattr $C$DW$T$6, DW_AT_encoding(DW_ATE_unsigned_char)
    2720                    .dwattr $C$DW$T$6, DW_AT_name("unsigned char")
    2721                    .dwattr $C$DW$T$6, DW_AT_byte_size(0x01)
    2722            $C$DW$T$20      .dwtag  DW_TAG_typedef, DW_AT_name("UINT8")
    2723                    .dwattr $C$DW$T$20, DW_AT_type(*$C$DW$T$6)
    2724                    .dwattr $C$DW$T$20, DW_AT_language(DW_LANG_C)
    2725            $C$DW$T$21      .dwtag  DW_TAG_pointer_type
    2726                    .dwattr $C$DW$T$21, DW_AT_type(*$C$DW$T$20)
    2727                    .dwattr $C$DW$T$21, DW_AT_address_class(0x10)
    2728            $C$DW$T$75      .dwtag  DW_TAG_const_type
    2729                    .dwattr $C$DW$T$75, DW_AT_type(*$C$DW$T$21)
    2730            
    2731            $C$DW$T$51      .dwtag  DW_TAG_array_type
MSP430 Assembler PC v4.2.1 Fri Mar 21 13:42:29 2014

Tools Copyright (c) 2003-2013 Texas Instruments Incorporated
C:\Users\409010~1\AppData\Local\Temp\0141212                         PAGE   55

    2732                    .dwattr $C$DW$T$51, DW_AT_type(*$C$DW$T$20)
    2733                    .dwattr $C$DW$T$51, DW_AT_language(DW_LANG_C)
    2734                    .dwattr $C$DW$T$51, DW_AT_byte_size(0x04)
    2735            $C$DW$181       .dwtag  DW_TAG_subrange_type
    2736                    .dwattr $C$DW$181, DW_AT_upper_bound(0x03)
    2737                    .dwendtag $C$DW$T$51
    2738            
    2739            
    2740            $C$DW$T$48      .dwtag  DW_TAG_array_type
    2741                    .dwattr $C$DW$T$48, DW_AT_type(*$C$DW$T$6)
    2742                    .dwattr $C$DW$T$48, DW_AT_language(DW_LANG_C)
    2743                    .dwattr $C$DW$T$48, DW_AT_byte_size(0x15)
    2744            $C$DW$182       .dwtag  DW_TAG_subrange_type
    2745                    .dwattr $C$DW$182, DW_AT_upper_bound(0x14)
    2746                    .dwendtag $C$DW$T$48
    2747            
    2748            $C$DW$T$7       .dwtag  DW_TAG_base_type
    2749                    .dwattr $C$DW$T$7, DW_AT_encoding(DW_ATE_signed_char)
    2750                    .dwattr $C$DW$T$7, DW_AT_name("wchar_t")
    2751                    .dwattr $C$DW$T$7, DW_AT_byte_size(0x02)
    2752            $C$DW$T$8       .dwtag  DW_TAG_base_type
    2753                    .dwattr $C$DW$T$8, DW_AT_encoding(DW_ATE_signed)
    2754                    .dwattr $C$DW$T$8, DW_AT_name("short")
    2755                    .dwattr $C$DW$T$8, DW_AT_byte_size(0x02)
    2756            $C$DW$T$87      .dwtag  DW_TAG_typedef, DW_AT_name("INT16")
    2757                    .dwattr $C$DW$T$87, DW_AT_type(*$C$DW$T$8)
    2758                    .dwattr $C$DW$T$87, DW_AT_language(DW_LANG_C)
    2759            $C$DW$T$9       .dwtag  DW_TAG_base_type
    2760                    .dwattr $C$DW$T$9, DW_AT_encoding(DW_ATE_unsigned)
    2761                    .dwattr $C$DW$T$9, DW_AT_name("unsigned short")
    2762                    .dwattr $C$DW$T$9, DW_AT_byte_size(0x02)
    2763            $C$DW$T$19      .dwtag  DW_TAG_typedef, DW_AT_name("UINT16")
    2764                    .dwattr $C$DW$T$19, DW_AT_type(*$C$DW$T$9)
    2765                    .dwattr $C$DW$T$19, DW_AT_language(DW_LANG_C)
    2766            $C$DW$T$88      .dwtag  DW_TAG_const_type
    2767                    .dwattr $C$DW$T$88, DW_AT_type(*$C$DW$T$19)
    2768            $C$DW$T$10      .dwtag  DW_TAG_base_type
    2769                    .dwattr $C$DW$T$10, DW_AT_encoding(DW_ATE_signed)
    2770                    .dwattr $C$DW$T$10, DW_AT_name("int")
    2771                    .dwattr $C$DW$T$10, DW_AT_byte_size(0x02)
    2772            $C$DW$T$11      .dwtag  DW_TAG_base_type
    2773                    .dwattr $C$DW$T$11, DW_AT_encoding(DW_ATE_unsigned)
    2774                    .dwattr $C$DW$T$11, DW_AT_name("unsigned int")
    2775                    .dwattr $C$DW$T$11, DW_AT_byte_size(0x02)
    2776            $C$DW$T$61      .dwtag  DW_TAG_typedef, DW_AT_name("size_t")
    2777                    .dwattr $C$DW$T$61, DW_AT_type(*$C$DW$T$11)
    2778                    .dwattr $C$DW$T$61, DW_AT_language(DW_LANG_C)
    2779            $C$DW$T$12      .dwtag  DW_TAG_base_type
    2780                    .dwattr $C$DW$T$12, DW_AT_encoding(DW_ATE_signed)
    2781                    .dwattr $C$DW$T$12, DW_AT_name("long")
    2782                    .dwattr $C$DW$T$12, DW_AT_byte_size(0x04)
    2783            $C$DW$T$32      .dwtag  DW_TAG_typedef, DW_AT_name("INT32")
    2784                    .dwattr $C$DW$T$32, DW_AT_type(*$C$DW$T$12)
    2785                    .dwattr $C$DW$T$32, DW_AT_language(DW_LANG_C)
    2786            $C$DW$T$95      .dwtag  DW_TAG_const_type
MSP430 Assembler PC v4.2.1 Fri Mar 21 13:42:29 2014

Tools Copyright (c) 2003-2013 Texas Instruments Incorporated
C:\Users\409010~1\AppData\Local\Temp\0141212                         PAGE   56

    2787                    .dwattr $C$DW$T$95, DW_AT_type(*$C$DW$T$32)
    2788            
    2789            $C$DW$T$36      .dwtag  DW_TAG_subroutine_type
    2790                    .dwattr $C$DW$T$36, DW_AT_type(*$C$DW$T$32)
    2791                    .dwattr $C$DW$T$36, DW_AT_language(DW_LANG_C)
    2792            $C$DW$T$37      .dwtag  DW_TAG_pointer_type
    2793                    .dwattr $C$DW$T$37, DW_AT_type(*$C$DW$T$36)
    2794                    .dwattr $C$DW$T$37, DW_AT_address_class(0x14)
    2795            $C$DW$T$38      .dwtag  DW_TAG_typedef, DW_AT_name("tWlanReadInteruptPin")
    2796                    .dwattr $C$DW$T$38, DW_AT_type(*$C$DW$T$37)
    2797                    .dwattr $C$DW$T$38, DW_AT_language(DW_LANG_C)
    2798            $C$DW$T$13      .dwtag  DW_TAG_base_type
    2799                    .dwattr $C$DW$T$13, DW_AT_encoding(DW_ATE_unsigned)
    2800                    .dwattr $C$DW$T$13, DW_AT_name("unsigned long")
    2801                    .dwattr $C$DW$T$13, DW_AT_byte_size(0x04)
    2802            $C$DW$T$25      .dwtag  DW_TAG_typedef, DW_AT_name("UINT32")
    2803                    .dwattr $C$DW$T$25, DW_AT_type(*$C$DW$T$13)
    2804                    .dwattr $C$DW$T$25, DW_AT_language(DW_LANG_C)
    2805            $C$DW$T$26      .dwtag  DW_TAG_pointer_type
    2806                    .dwattr $C$DW$T$26, DW_AT_type(*$C$DW$T$25)
    2807                    .dwattr $C$DW$T$26, DW_AT_address_class(0x10)
    2808            $C$DW$T$14      .dwtag  DW_TAG_base_type
    2809                    .dwattr $C$DW$T$14, DW_AT_encoding(DW_ATE_signed)
    2810                    .dwattr $C$DW$T$14, DW_AT_name("long long")
    2811                    .dwattr $C$DW$T$14, DW_AT_byte_size(0x08)
    2812            $C$DW$T$15      .dwtag  DW_TAG_base_type
    2813                    .dwattr $C$DW$T$15, DW_AT_encoding(DW_ATE_unsigned)
    2814                    .dwattr $C$DW$T$15, DW_AT_name("unsigned long long")
    2815                    .dwattr $C$DW$T$15, DW_AT_byte_size(0x08)
    2816            $C$DW$T$16      .dwtag  DW_TAG_base_type
    2817                    .dwattr $C$DW$T$16, DW_AT_encoding(DW_ATE_float)
    2818                    .dwattr $C$DW$T$16, DW_AT_name("float")
    2819                    .dwattr $C$DW$T$16, DW_AT_byte_size(0x04)
    2820            $C$DW$T$17      .dwtag  DW_TAG_base_type
    2821                    .dwattr $C$DW$T$17, DW_AT_encoding(DW_ATE_float)
    2822                    .dwattr $C$DW$T$17, DW_AT_name("double")
    2823                    .dwattr $C$DW$T$17, DW_AT_byte_size(0x04)
    2824            $C$DW$T$18      .dwtag  DW_TAG_base_type
    2825                    .dwattr $C$DW$T$18, DW_AT_encoding(DW_ATE_float)
    2826                    .dwattr $C$DW$T$18, DW_AT_name("long double")
    2827                    .dwattr $C$DW$T$18, DW_AT_byte_size(0x04)
    2828            $C$DW$T$23      .dwtag  DW_TAG_typedef, DW_AT_name("CHAR")
    2829                    .dwattr $C$DW$T$23, DW_AT_type(*$C$DW$T$6)
    2830                    .dwattr $C$DW$T$23, DW_AT_language(DW_LANG_C)
    2831            $C$DW$T$24      .dwtag  DW_TAG_pointer_type
    2832                    .dwattr $C$DW$T$24, DW_AT_type(*$C$DW$T$23)
    2833                    .dwattr $C$DW$T$24, DW_AT_address_class(0x10)
    2834            
    2835            $C$DW$T$27      .dwtag  DW_TAG_subroutine_type
    2836                    .dwattr $C$DW$T$27, DW_AT_type(*$C$DW$T$24)
    2837                    .dwattr $C$DW$T$27, DW_AT_language(DW_LANG_C)
    2838            $C$DW$183       .dwtag  DW_TAG_formal_parameter
    2839                    .dwattr $C$DW$183, DW_AT_type(*$C$DW$T$26)
    2840                    .dwendtag $C$DW$T$27
    2841            
MSP430 Assembler PC v4.2.1 Fri Mar 21 13:42:29 2014

Tools Copyright (c) 2003-2013 Texas Instruments Incorporated
C:\Users\409010~1\AppData\Local\Temp\0141212                         PAGE   57

    2842            $C$DW$T$28      .dwtag  DW_TAG_pointer_type
    2843                    .dwattr $C$DW$T$28, DW_AT_type(*$C$DW$T$27)
    2844                    .dwattr $C$DW$T$28, DW_AT_address_class(0x14)
    2845            $C$DW$T$31      .dwtag  DW_TAG_typedef, DW_AT_name("tBootLoaderPatches")
    2846                    .dwattr $C$DW$T$31, DW_AT_type(*$C$DW$T$28)
    2847                    .dwattr $C$DW$T$31, DW_AT_language(DW_LANG_C)
    2848            $C$DW$T$30      .dwtag  DW_TAG_typedef, DW_AT_name("tDriverPatches")
    2849                    .dwattr $C$DW$T$30, DW_AT_type(*$C$DW$T$28)
    2850                    .dwattr $C$DW$T$30, DW_AT_language(DW_LANG_C)
    2851            $C$DW$T$29      .dwtag  DW_TAG_typedef, DW_AT_name("tFWPatches")
    2852                    .dwattr $C$DW$T$29, DW_AT_type(*$C$DW$T$28)
    2853                    .dwattr $C$DW$T$29, DW_AT_language(DW_LANG_C)
    2854            $C$DW$T$109     .dwtag  DW_TAG_const_type
    2855                    .dwattr $C$DW$T$109, DW_AT_type(*$C$DW$T$24)
    2856            
    2857            $C$DW$T$52      .dwtag  DW_TAG_structure_type
    2858                    .dwattr $C$DW$T$52, DW_AT_name("_bsd_getsockopt_return_t")
    2859                    .dwattr $C$DW$T$52, DW_AT_byte_size(0x05)
    2860            $C$DW$184       .dwtag  DW_TAG_member
    2861                    .dwattr $C$DW$184, DW_AT_type(*$C$DW$T$51)
    2862                    .dwattr $C$DW$184, DW_AT_name("ucOptValue")
    2863                    .dwattr $C$DW$184, DW_AT_TI_symbol_name("ucOptValue")
    2864                    .dwattr $C$DW$184, DW_AT_data_member_location[DW_OP_plus_uconst 0x0]
    2865                    .dwattr $C$DW$184, DW_AT_accessibility(DW_ACCESS_public)
    2866            $C$DW$185       .dwtag  DW_TAG_member
    2867                    .dwattr $C$DW$185, DW_AT_type(*$C$DW$T$23)
    2868                    .dwattr $C$DW$185, DW_AT_name("iStatus")
    2869                    .dwattr $C$DW$185, DW_AT_TI_symbol_name("iStatus")
    2870                    .dwattr $C$DW$185, DW_AT_data_member_location[DW_OP_plus_uconst 0x4]
    2871                    .dwattr $C$DW$185, DW_AT_accessibility(DW_ACCESS_public)
    2872                    .dwendtag $C$DW$T$52
    2873            
    2874            $C$DW$T$111     .dwtag  DW_TAG_typedef, DW_AT_name("tBsdGetSockOptReturnParams")
    2875                    .dwattr $C$DW$T$111, DW_AT_type(*$C$DW$T$52)
    2876                    .dwattr $C$DW$T$111, DW_AT_language(DW_LANG_C)
    2877            
    2878            $C$DW$T$53      .dwtag  DW_TAG_structure_type
    2879                    .dwattr $C$DW$T$53, DW_AT_name("_bsd_read_return_t")
    2880                    .dwattr $C$DW$T$53, DW_AT_byte_size(0x0c)
    2881            $C$DW$186       .dwtag  DW_TAG_member
    2882                    .dwattr $C$DW$186, DW_AT_type(*$C$DW$T$32)
    2883                    .dwattr $C$DW$186, DW_AT_name("iSocketDescriptor")
    2884                    .dwattr $C$DW$186, DW_AT_TI_symbol_name("iSocketDescriptor")
    2885                    .dwattr $C$DW$186, DW_AT_data_member_location[DW_OP_plus_uconst 0x0]
    2886                    .dwattr $C$DW$186, DW_AT_accessibility(DW_ACCESS_public)
    2887            $C$DW$187       .dwtag  DW_TAG_member
    2888                    .dwattr $C$DW$187, DW_AT_type(*$C$DW$T$32)
    2889                    .dwattr $C$DW$187, DW_AT_name("iNumberOfBytes")
    2890                    .dwattr $C$DW$187, DW_AT_TI_symbol_name("iNumberOfBytes")
    2891                    .dwattr $C$DW$187, DW_AT_data_member_location[DW_OP_plus_uconst 0x4]
    2892                    .dwattr $C$DW$187, DW_AT_accessibility(DW_ACCESS_public)
    2893            $C$DW$188       .dwtag  DW_TAG_member
    2894                    .dwattr $C$DW$188, DW_AT_type(*$C$DW$T$25)
    2895                    .dwattr $C$DW$188, DW_AT_name("uiFlags")
    2896                    .dwattr $C$DW$188, DW_AT_TI_symbol_name("uiFlags")
MSP430 Assembler PC v4.2.1 Fri Mar 21 13:42:29 2014

Tools Copyright (c) 2003-2013 Texas Instruments Incorporated
C:\Users\409010~1\AppData\Local\Temp\0141212                         PAGE   58

    2897                    .dwattr $C$DW$188, DW_AT_data_member_location[DW_OP_plus_uconst 0x8]
    2898                    .dwattr $C$DW$188, DW_AT_accessibility(DW_ACCESS_public)
    2899                    .dwendtag $C$DW$T$53
    2900            
    2901            $C$DW$T$113     .dwtag  DW_TAG_typedef, DW_AT_name("tBsdReadReturnParams")
    2902                    .dwattr $C$DW$T$113, DW_AT_type(*$C$DW$T$53)
    2903                    .dwattr $C$DW$T$113, DW_AT_language(DW_LANG_C)
    2904            
    2905            $C$DW$T$54      .dwtag  DW_TAG_structure_type
    2906                    .dwattr $C$DW$T$54, DW_AT_name("_netapp_pingreport_args")
    2907                    .dwattr $C$DW$T$54, DW_AT_byte_size(0x14)
    2908            $C$DW$189       .dwtag  DW_TAG_member
    2909                    .dwattr $C$DW$189, DW_AT_type(*$C$DW$T$25)
    2910                    .dwattr $C$DW$189, DW_AT_name("packets_sent")
    2911                    .dwattr $C$DW$189, DW_AT_TI_symbol_name("packets_sent")
    2912                    .dwattr $C$DW$189, DW_AT_data_member_location[DW_OP_plus_uconst 0x0]
    2913                    .dwattr $C$DW$189, DW_AT_accessibility(DW_ACCESS_public)
    2914            $C$DW$190       .dwtag  DW_TAG_member
    2915                    .dwattr $C$DW$190, DW_AT_type(*$C$DW$T$25)
    2916                    .dwattr $C$DW$190, DW_AT_name("packets_received")
    2917                    .dwattr $C$DW$190, DW_AT_TI_symbol_name("packets_received")
    2918                    .dwattr $C$DW$190, DW_AT_data_member_location[DW_OP_plus_uconst 0x4]
    2919                    .dwattr $C$DW$190, DW_AT_accessibility(DW_ACCESS_public)
    2920            $C$DW$191       .dwtag  DW_TAG_member
    2921                    .dwattr $C$DW$191, DW_AT_type(*$C$DW$T$25)
    2922                    .dwattr $C$DW$191, DW_AT_name("min_round_time")
    2923                    .dwattr $C$DW$191, DW_AT_TI_symbol_name("min_round_time")
    2924                    .dwattr $C$DW$191, DW_AT_data_member_location[DW_OP_plus_uconst 0x8]
    2925                    .dwattr $C$DW$191, DW_AT_accessibility(DW_ACCESS_public)
    2926            $C$DW$192       .dwtag  DW_TAG_member
    2927                    .dwattr $C$DW$192, DW_AT_type(*$C$DW$T$25)
    2928                    .dwattr $C$DW$192, DW_AT_name("max_round_time")
    2929                    .dwattr $C$DW$192, DW_AT_TI_symbol_name("max_round_time")
    2930                    .dwattr $C$DW$192, DW_AT_data_member_location[DW_OP_plus_uconst 0xc]
    2931                    .dwattr $C$DW$192, DW_AT_accessibility(DW_ACCESS_public)
    2932            $C$DW$193       .dwtag  DW_TAG_member
    2933                    .dwattr $C$DW$193, DW_AT_type(*$C$DW$T$25)
    2934                    .dwattr $C$DW$193, DW_AT_name("avg_round_time")
    2935                    .dwattr $C$DW$193, DW_AT_TI_symbol_name("avg_round_time")
    2936                    .dwattr $C$DW$193, DW_AT_data_member_location[DW_OP_plus_uconst 0x10]
    2937                    .dwattr $C$DW$193, DW_AT_accessibility(DW_ACCESS_public)
    2938                    .dwendtag $C$DW$T$54
    2939            
    2940            $C$DW$T$114     .dwtag  DW_TAG_typedef, DW_AT_name("netapp_pingreport_args_t")
    2941                    .dwattr $C$DW$T$114, DW_AT_type(*$C$DW$T$54)
    2942                    .dwattr $C$DW$T$114, DW_AT_language(DW_LANG_C)
    2943                    .dwattr $C$DW$CU, DW_AT_language(DW_LANG_C)
    2944            
    2945            ;***************************************************************
    2946            ;* DWARF CIE ENTRIES                                           *
    2947            ;***************************************************************
    2948            
    2949            $C$DW$CIE       .dwcie 16
    2950                    .dwcfi  cfa_register, 1
    2951                    .dwcfi  cfa_offset, 0
MSP430 Assembler PC v4.2.1 Fri Mar 21 13:42:29 2014

Tools Copyright (c) 2003-2013 Texas Instruments Incorporated
C:\Users\409010~1\AppData\Local\Temp\0141212                         PAGE   59

    2952                    .dwcfi  undefined, 0
    2953                    .dwcfi  undefined, 1
    2954                    .dwcfi  undefined, 2
    2955                    .dwcfi  undefined, 3
    2956                    .dwcfi  same_value, 4
    2957                    .dwcfi  same_value, 5
    2958                    .dwcfi  same_value, 6
    2959                    .dwcfi  same_value, 7
    2960                    .dwcfi  same_value, 8
    2961                    .dwcfi  same_value, 9
    2962                    .dwcfi  same_value, 10
    2963                    .dwcfi  undefined, 11
    2964                    .dwcfi  undefined, 12
    2965                    .dwcfi  undefined, 13
    2966                    .dwcfi  undefined, 14
    2967                    .dwcfi  undefined, 15
    2968                    .dwcfi  undefined, 16
    2969                    .dwendentry
    2970            
    2971            ;***************************************************************
    2972            ;* DWARF REGISTER MAP                                          *
    2973            ;***************************************************************
    2974            
    2975            $C$DW$194       .dwtag  DW_TAG_TI_assign_register, DW_AT_name("PC")
    2976                    .dwattr $C$DW$194, DW_AT_location[DW_OP_reg0]
    2977            $C$DW$195       .dwtag  DW_TAG_TI_assign_register, DW_AT_name("SP")
    2978                    .dwattr $C$DW$195, DW_AT_location[DW_OP_reg1]
    2979            $C$DW$196       .dwtag  DW_TAG_TI_assign_register, DW_AT_name("SR")
    2980                    .dwattr $C$DW$196, DW_AT_location[DW_OP_reg2]
    2981            $C$DW$197       .dwtag  DW_TAG_TI_assign_register, DW_AT_name("CG")
    2982                    .dwattr $C$DW$197, DW_AT_location[DW_OP_reg3]
    2983            $C$DW$198       .dwtag  DW_TAG_TI_assign_register, DW_AT_name("r4")
    2984                    .dwattr $C$DW$198, DW_AT_location[DW_OP_reg4]
    2985            $C$DW$199       .dwtag  DW_TAG_TI_assign_register, DW_AT_name("r5")
    2986                    .dwattr $C$DW$199, DW_AT_location[DW_OP_reg5]
    2987            $C$DW$200       .dwtag  DW_TAG_TI_assign_register, DW_AT_name("r6")
    2988                    .dwattr $C$DW$200, DW_AT_location[DW_OP_reg6]
    2989            $C$DW$201       .dwtag  DW_TAG_TI_assign_register, DW_AT_name("r7")
    2990                    .dwattr $C$DW$201, DW_AT_location[DW_OP_reg7]
    2991            $C$DW$202       .dwtag  DW_TAG_TI_assign_register, DW_AT_name("r8")
    2992                    .dwattr $C$DW$202, DW_AT_location[DW_OP_reg8]
    2993            $C$DW$203       .dwtag  DW_TAG_TI_assign_register, DW_AT_name("r9")
    2994                    .dwattr $C$DW$203, DW_AT_location[DW_OP_reg9]
    2995            $C$DW$204       .dwtag  DW_TAG_TI_assign_register, DW_AT_name("r10")
    2996                    .dwattr $C$DW$204, DW_AT_location[DW_OP_reg10]
    2997            $C$DW$205       .dwtag  DW_TAG_TI_assign_register, DW_AT_name("r11")
    2998                    .dwattr $C$DW$205, DW_AT_location[DW_OP_reg11]
    2999            $C$DW$206       .dwtag  DW_TAG_TI_assign_register, DW_AT_name("r12")
    3000                    .dwattr $C$DW$206, DW_AT_location[DW_OP_reg12]
    3001            $C$DW$207       .dwtag  DW_TAG_TI_assign_register, DW_AT_name("r13")
    3002                    .dwattr $C$DW$207, DW_AT_location[DW_OP_reg13]
    3003            $C$DW$208       .dwtag  DW_TAG_TI_assign_register, DW_AT_name("r14")
    3004                    .dwattr $C$DW$208, DW_AT_location[DW_OP_reg14]
    3005            $C$DW$209       .dwtag  DW_TAG_TI_assign_register, DW_AT_name("r15")
    3006                    .dwattr $C$DW$209, DW_AT_location[DW_OP_reg15]
MSP430 Assembler PC v4.2.1 Fri Mar 21 13:42:29 2014

Tools Copyright (c) 2003-2013 Texas Instruments Incorporated
C:\Users\409010~1\AppData\Local\Temp\0141212                         PAGE   60

    3007            $C$DW$210       .dwtag  DW_TAG_TI_assign_register, DW_AT_name("CIE_RETA")
    3008                    .dwattr $C$DW$210, DW_AT_location[DW_OP_reg16]
    3009                    .dwendtag $C$DW$CU
    3010            

No Assembly Errors, No Assembly Warnings
