MSP430 Assembler PC v4.2.1 Fri Mar 21 13:42:32 2014

Tools Copyright (c) 2003-2013 Texas Instruments Incorporated
C:\Users\409010~1\AppData\Local\Temp\0527610                         PAGE    1

       1            ;******************************************************************************
       2            ;* MSP430 C/C++ Codegen                                             PC v4.2.1 *
       3            ;* Date/Time created: Fri Mar 21 13:42:31 2014                                *
       4            ;******************************************************************************
       5                    .compiler_opts --abi=coffabi --hll_source=on --mem_model:code=large --mem_model:data=small --o
       6            
       7            $C$DW$CU        .dwtag  DW_TAG_compile_unit
       8                    .dwattr $C$DW$CU, DW_AT_name("C:/Users/409010855/Documents/GitHub/CHARM/Embedded_Voltmeter/Bas
       9                    .dwattr $C$DW$CU, DW_AT_producer("MSP430 C/C++ Codegen PC v4.2.1 Copyright (c) 2003-2013 Texas
      10                    .dwattr $C$DW$CU, DW_AT_TI_version(0x01)
      11                    .dwattr $C$DW$CU, DW_AT_comp_dir("C:\Users\409010855\Documents\GitHub\CHARM\Embedded_Voltmeter
      12            
      13            $C$DW$1 .dwtag  DW_TAG_subprogram, DW_AT_name("SimpleLinkWaitEvent")
      14                    .dwattr $C$DW$1, DW_AT_TI_symbol_name("SimpleLinkWaitEvent")
      15                    .dwattr $C$DW$1, DW_AT_declaration
      16                    .dwattr $C$DW$1, DW_AT_external
      17            $C$DW$2 .dwtag  DW_TAG_formal_parameter
      18                    .dwattr $C$DW$2, DW_AT_type(*$C$DW$T$19)
      19            $C$DW$3 .dwtag  DW_TAG_formal_parameter
      20                    .dwattr $C$DW$3, DW_AT_type(*$C$DW$T$3)
      21                    .dwendtag $C$DW$1
      22            
      23            
      24            $C$DW$4 .dwtag  DW_TAG_subprogram, DW_AT_name("UINT32_TO_STREAM_f")
      25                    .dwattr $C$DW$4, DW_AT_TI_symbol_name("UINT32_TO_STREAM_f")
      26                    .dwattr $C$DW$4, DW_AT_type(*$C$DW$T$21)
      27                    .dwattr $C$DW$4, DW_AT_declaration
      28                    .dwattr $C$DW$4, DW_AT_external
      29            $C$DW$5 .dwtag  DW_TAG_formal_parameter
      30                    .dwattr $C$DW$5, DW_AT_type(*$C$DW$T$21)
      31            $C$DW$6 .dwtag  DW_TAG_formal_parameter
      32                    .dwattr $C$DW$6, DW_AT_type(*$C$DW$T$25)
      33                    .dwendtag $C$DW$4
      34            
      35            
      36            $C$DW$7 .dwtag  DW_TAG_subprogram, DW_AT_name("hci_command_send")
      37                    .dwattr $C$DW$7, DW_AT_TI_symbol_name("hci_command_send")
      38                    .dwattr $C$DW$7, DW_AT_type(*$C$DW$T$19)
      39                    .dwattr $C$DW$7, DW_AT_declaration
      40                    .dwattr $C$DW$7, DW_AT_external
      41            $C$DW$8 .dwtag  DW_TAG_formal_parameter
      42                    .dwattr $C$DW$8, DW_AT_type(*$C$DW$T$19)
      43            $C$DW$9 .dwtag  DW_TAG_formal_parameter
      44                    .dwattr $C$DW$9, DW_AT_type(*$C$DW$T$21)
      45            $C$DW$10        .dwtag  DW_TAG_formal_parameter
      46                    .dwattr $C$DW$10, DW_AT_type(*$C$DW$T$20)
      47                    .dwendtag $C$DW$7
      48            
      49            
      50            $C$DW$11        .dwtag  DW_TAG_subprogram, DW_AT_name("nvmem_set_mac_address")
      51                    .dwattr $C$DW$11, DW_AT_TI_symbol_name("nvmem_set_mac_address")
      52                    .dwattr $C$DW$11, DW_AT_type(*$C$DW$T$20)
      53                    .dwattr $C$DW$11, DW_AT_declaration
      54                    .dwattr $C$DW$11, DW_AT_external
      55            $C$DW$12        .dwtag  DW_TAG_formal_parameter
MSP430 Assembler PC v4.2.1 Fri Mar 21 13:42:32 2014

Tools Copyright (c) 2003-2013 Texas Instruments Incorporated
C:\Users\409010~1\AppData\Local\Temp\0527610                         PAGE    2

      56                    .dwattr $C$DW$12, DW_AT_type(*$C$DW$T$21)
      57                    .dwendtag $C$DW$11
      58            
      59            $C$DW$13        .dwtag  DW_TAG_variable, DW_AT_name("tSLInformation")
      60                    .dwattr $C$DW$13, DW_AT_TI_symbol_name("tSLInformation")
      61                    .dwattr $C$DW$13, DW_AT_type(*$C$DW$T$53)
      62                    .dwattr $C$DW$13, DW_AT_declaration
      63                    .dwattr $C$DW$13, DW_AT_external
      64            ;       C:\ti\ccsv5\tools\compiler\msp430_4.2.1\bin\opt430.exe C:\\Users\\409010~1\\AppData\\Local\\Te
      65 000000               .sect   ".text:netapp_timeout_values"
      66                    .align  2
      67                    .clink
      68                    .global netapp_timeout_values
      69            
      70            $C$DW$14        .dwtag  DW_TAG_subprogram, DW_AT_name("netapp_timeout_values")
      71                    .dwattr $C$DW$14, DW_AT_low_pc(netapp_timeout_values)
      72                    .dwattr $C$DW$14, DW_AT_high_pc(0x00)
      73                    .dwattr $C$DW$14, DW_AT_TI_symbol_name("netapp_timeout_values")
      74                    .dwattr $C$DW$14, DW_AT_external
      75                    .dwattr $C$DW$14, DW_AT_type(*$C$DW$T$32)
      76                    .dwattr $C$DW$14, DW_AT_TI_begin_file("C:/Users/409010855/Documents/GitHub/CHARM/Embedded_Volt
      77                    .dwattr $C$DW$14, DW_AT_TI_begin_line(0xb2)
      78                    .dwattr $C$DW$14, DW_AT_TI_begin_column(0x07)
      79                    .dwattr $C$DW$14, DW_AT_TI_max_frame_size(0x16)
      80                    .dwpsn  file "C:/Users/409010855/Documents/GitHub/CHARM/Embedded_Voltmeter/Basic WiFi Source/S
      81            
      82                    .dwfde $C$DW$CIE, netapp_timeout_values
      83            $C$DW$15        .dwtag  DW_TAG_formal_parameter, DW_AT_name("aucDHCP")
      84                    .dwattr $C$DW$15, DW_AT_TI_symbol_name("aucDHCP")
      85                    .dwattr $C$DW$15, DW_AT_type(*$C$DW$T$26)
      86                    .dwattr $C$DW$15, DW_AT_location[DW_OP_reg12]
      87            $C$DW$16        .dwtag  DW_TAG_formal_parameter, DW_AT_name("aucARP")
      88                    .dwattr $C$DW$16, DW_AT_TI_symbol_name("aucARP")
      89                    .dwattr $C$DW$16, DW_AT_type(*$C$DW$T$26)
      90                    .dwattr $C$DW$16, DW_AT_location[DW_OP_reg13]
      91            $C$DW$17        .dwtag  DW_TAG_formal_parameter, DW_AT_name("aucKeepalive")
      92                    .dwattr $C$DW$17, DW_AT_TI_symbol_name("aucKeepalive")
      93                    .dwattr $C$DW$17, DW_AT_type(*$C$DW$T$26)
      94                    .dwattr $C$DW$17, DW_AT_location[DW_OP_reg14]
      95            $C$DW$18        .dwtag  DW_TAG_formal_parameter, DW_AT_name("aucInactivity")
      96                    .dwattr $C$DW$18, DW_AT_TI_symbol_name("aucInactivity")
      97                    .dwattr $C$DW$18, DW_AT_type(*$C$DW$T$26)
      98                    .dwattr $C$DW$18, DW_AT_location[DW_OP_reg15]
      99            
     100            ;*****************************************************************************
     101            ;* FUNCTION NAME: netapp_timeout_values                                      *
     102            ;*                                                                           *
     103            ;*   Regs Modified     : SP,SR,r7,r8,r9,r10,r11,r12,r13,r14,r15              *
     104            ;*   Regs Used         : SP,SR,r7,r8,r9,r10,r11,r12,r13,r14,r15              *
     105            ;*   Local Frame Size  : 0 Args + 2 Auto + 16 Save = 18 byte                 *
     106            ;*****************************************************************************
     107            netapp_timeout_values:
     108            ;* --------------------------------------------------------------------------*
     109            ;* r12   assigned to args
     110            $C$DW$19        .dwtag  DW_TAG_variable, DW_AT_name("args")
MSP430 Assembler PC v4.2.1 Fri Mar 21 13:42:32 2014

Tools Copyright (c) 2003-2013 Texas Instruments Incorporated
C:\Users\409010~1\AppData\Local\Temp\0527610                         PAGE    3

     111                    .dwattr $C$DW$19, DW_AT_TI_symbol_name("args")
     112                    .dwattr $C$DW$19, DW_AT_type(*$C$DW$T$21)
     113                    .dwattr $C$DW$19, DW_AT_location[DW_OP_reg12]
     114            ;* r8    assigned to ptr
     115            $C$DW$20        .dwtag  DW_TAG_variable, DW_AT_name("ptr")
     116                    .dwattr $C$DW$20, DW_AT_TI_symbol_name("ptr")
     117                    .dwattr $C$DW$20, DW_AT_type(*$C$DW$T$21)
     118                    .dwattr $C$DW$20, DW_AT_location[DW_OP_reg8]
     119            $C$DW$21        .dwtag  DW_TAG_variable, DW_AT_name("scRet")
     120                    .dwattr $C$DW$21, DW_AT_TI_symbol_name("scRet")
     121                    .dwattr $C$DW$21, DW_AT_type(*$C$DW$T$60)
     122                    .dwattr $C$DW$21, DW_AT_location[DW_OP_breg1 0]
     123            ;* r9    assigned to aucInactivity
     124            $C$DW$22        .dwtag  DW_TAG_variable, DW_AT_name("aucInactivity")
     125                    .dwattr $C$DW$22, DW_AT_TI_symbol_name("aucInactivity")
     126                    .dwattr $C$DW$22, DW_AT_type(*$C$DW$T$88)
     127                    .dwattr $C$DW$22, DW_AT_location[DW_OP_reg9]
     128            ;* r10   assigned to aucKeepalive
     129            $C$DW$23        .dwtag  DW_TAG_variable, DW_AT_name("aucKeepalive")
     130                    .dwattr $C$DW$23, DW_AT_TI_symbol_name("aucKeepalive")
     131                    .dwattr $C$DW$23, DW_AT_type(*$C$DW$T$88)
     132                    .dwattr $C$DW$23, DW_AT_location[DW_OP_reg10]
     133            ;* r7    assigned to aucARP
     134            $C$DW$24        .dwtag  DW_TAG_variable, DW_AT_name("aucARP")
     135                    .dwattr $C$DW$24, DW_AT_TI_symbol_name("aucARP")
     136                    .dwattr $C$DW$24, DW_AT_type(*$C$DW$T$88)
     137                    .dwattr $C$DW$24, DW_AT_location[DW_OP_reg7]
     138            ;* r15   assigned to aucDHCP
     139            $C$DW$25        .dwtag  DW_TAG_variable, DW_AT_name("aucDHCP")
     140                    .dwattr $C$DW$25, DW_AT_TI_symbol_name("aucDHCP")
     141                    .dwattr $C$DW$25, DW_AT_type(*$C$DW$T$88)
     142                    .dwattr $C$DW$25, DW_AT_location[DW_OP_reg15]
     143                    .dwcfi  cfa_offset, 4
     144                    .dwcfi  save_reg_to_mem, 16, -4
     145 000000 143A          PUSHM.A   #4,r10                ; [] 
     146                    .dwcfi  save_reg_to_mem, 10, -8
     147                    .dwcfi  save_reg_to_mem, 9, -12
     148                    .dwcfi  save_reg_to_mem, 8, -16
     149                    .dwcfi  save_reg_to_mem, 7, -20
     150                    .dwcfi  cfa_offset, 20
     151 000002 8321          SUB.W     #2,SP                 ; [] 
     152                    .dwcfi  cfa_offset, 22
     153 000004 0FC9          MOVA      r15,r9                ; [] |179| 
     154 000006 0ECA          MOVA      r14,r10               ; [] |179| 
     155 000008 0DC7          MOVA      r13,r7                ; [] |179| 
     156 00000a 0CCF          MOVA      r12,r15               ; [] |179| 
     157                    .dwpsn  file "C:/Users/409010855/Documents/GitHub/CHARM/Embedded_Voltmeter/Basic WiFi Source/S
     158 00000c 43F1          MOV.B     #-1,0(SP)             ; [] |184| 
         00000e 0000 
     159                    .dwpsn  file "C:/Users/409010855/Documents/GitHub/CHARM/Embedded_Voltmeter/Basic WiFi Source/S
     160 000010 4218          MOV.W     &tSLInformation+6,r8  ; [] |185| 
         000012 0006!
     161                    .dwpsn  file "C:/Users/409010855/Documents/GitHub/CHARM/Embedded_Voltmeter/Basic WiFi Source/S
     162 000014 403C          MOV.W     #9,r12                ; [] |186| 
         000016 0009 
MSP430 Assembler PC v4.2.1 Fri Mar 21 13:42:32 2014

Tools Copyright (c) 2003-2013 Texas Instruments Incorporated
C:\Users\409010~1\AppData\Local\Temp\0527610                         PAGE    4

     163 000018 580C          ADD.W     r8,r12                ; [] |186| 
     164                    .dwpsn  file "C:/Users/409010855/Documents/GitHub/CHARM/Embedded_Voltmeter/Basic WiFi Source/S
     165 00001a 938F          TST.W     2(r15)                ; [] |189| 
         00001c 0002 
     166 00001e 2003          JNE       $C$L1                 ; [] |189| 
     167                                                      ; [] |189| 
     168            ;* --------------------------------------------------------------------------*
     169 000020 938F          TST.W     0(r15)                ; [] |189| 
         000022 0000 
     170 000024 240B          JEQ       $C$L2                 ; [] |189| 
     171                                                      ; [] |189| 
     172            ;* --------------------------------------------------------------------------*
     173 000026       $C$L1:    
     174 000026 938F          TST.W     2(r15)                ; [] |189| 
         000028 0002 
     175 00002a 2008          JNE       $C$L2                 ; [] |189| 
     176                                                      ; [] |189| 
     177            ;* --------------------------------------------------------------------------*
     178 00002c 90BF          CMP.W     #10,0(r15)            ; [] |189| 
         00002e 000A 
         000030 0000 
     179 000032 2C04          JHS       $C$L2                 ; [] |189| 
     180                                                      ; [] |189| 
     181            ;* --------------------------------------------------------------------------*
     182 000034 1800          MOVX.A    #10,0(r15)            ; [] |189| 
         000036 40FF 
         000038 000A 
         00003a 0000 
     183            ;* --------------------------------------------------------------------------*
     184 00003c       $C$L2:    
     185                    .dwpsn  file "C:/Users/409010855/Documents/GitHub/CHARM/Embedded_Voltmeter/Basic WiFi Source/S
     186 00003c 9387          TST.W     2(r7)                 ; [] |190| 
         00003e 0002 
     187 000040 2003          JNE       $C$L3                 ; [] |190| 
     188                                                      ; [] |190| 
     189            ;* --------------------------------------------------------------------------*
     190 000042 9387          TST.W     0(r7)                 ; [] |190| 
         000044 0000 
     191 000046 240B          JEQ       $C$L4                 ; [] |190| 
     192                                                      ; [] |190| 
     193            ;* --------------------------------------------------------------------------*
     194 000048       $C$L3:    
     195 000048 9387          TST.W     2(r7)                 ; [] |190| 
         00004a 0002 
     196 00004c 2008          JNE       $C$L4                 ; [] |190| 
     197                                                      ; [] |190| 
     198            ;* --------------------------------------------------------------------------*
     199 00004e 90B7          CMP.W     #10,0(r7)             ; [] |190| 
         000050 000A 
         000052 0000 
     200 000054 2C04          JHS       $C$L4                 ; [] |190| 
     201                                                      ; [] |190| 
     202            ;* --------------------------------------------------------------------------*
     203 000056 1800          MOVX.A    #10,0(r7)             ; [] |190| 
         000058 40F7 
MSP430 Assembler PC v4.2.1 Fri Mar 21 13:42:32 2014

Tools Copyright (c) 2003-2013 Texas Instruments Incorporated
C:\Users\409010~1\AppData\Local\Temp\0527610                         PAGE    5

         00005a 000A 
         00005c 0000 
     204            ;* --------------------------------------------------------------------------*
     205 00005e       $C$L4:    
     206                    .dwpsn  file "C:/Users/409010855/Documents/GitHub/CHARM/Embedded_Voltmeter/Basic WiFi Source/S
     207 00005e 938A          TST.W     2(r10)                ; [] |191| 
         000060 0002 
     208 000062 2003          JNE       $C$L5                 ; [] |191| 
     209                                                      ; [] |191| 
     210            ;* --------------------------------------------------------------------------*
     211 000064 938A          TST.W     0(r10)                ; [] |191| 
         000066 0000 
     212 000068 240B          JEQ       $C$L6                 ; [] |191| 
     213                                                      ; [] |191| 
     214            ;* --------------------------------------------------------------------------*
     215 00006a       $C$L5:    
     216 00006a 938A          TST.W     2(r10)                ; [] |191| 
         00006c 0002 
     217 00006e 2008          JNE       $C$L6                 ; [] |191| 
     218                                                      ; [] |191| 
     219            ;* --------------------------------------------------------------------------*
     220 000070 90BA          CMP.W     #10,0(r10)            ; [] |191| 
         000072 000A 
         000074 0000 
     221 000076 2C04          JHS       $C$L6                 ; [] |191| 
     222                                                      ; [] |191| 
     223            ;* --------------------------------------------------------------------------*
     224 000078 1800          MOVX.A    #10,0(r10)            ; [] |191| 
         00007a 40FA 
         00007c 000A 
         00007e 0000 
     225            ;* --------------------------------------------------------------------------*
     226 000080       $C$L6:    
     227                    .dwpsn  file "C:/Users/409010855/Documents/GitHub/CHARM/Embedded_Voltmeter/Basic WiFi Source/S
     228 000080 9389          TST.W     2(r9)                 ; [] |192| 
         000082 0002 
     229 000084 2003          JNE       $C$L7                 ; [] |192| 
     230                                                      ; [] |192| 
     231            ;* --------------------------------------------------------------------------*
     232 000086 9389          TST.W     0(r9)                 ; [] |192| 
         000088 0000 
     233 00008a 240B          JEQ       $C$L8                 ; [] |192| 
     234                                                      ; [] |192| 
     235            ;* --------------------------------------------------------------------------*
     236 00008c       $C$L7:    
     237 00008c 9389          TST.W     2(r9)                 ; [] |192| 
         00008e 0002 
     238 000090 2008          JNE       $C$L8                 ; [] |192| 
     239                                                      ; [] |192| 
     240            ;* --------------------------------------------------------------------------*
     241 000092 90B9          CMP.W     #10,0(r9)             ; [] |192| 
         000094 000A 
         000096 0000 
     242 000098 2C04          JHS       $C$L8                 ; [] |192| 
     243                                                      ; [] |192| 
MSP430 Assembler PC v4.2.1 Fri Mar 21 13:42:32 2014

Tools Copyright (c) 2003-2013 Texas Instruments Incorporated
C:\Users\409010~1\AppData\Local\Temp\0527610                         PAGE    6

     244            ;* --------------------------------------------------------------------------*
     245 00009a 1800          MOVX.A    #10,0(r9)             ; [] |192| 
         00009c 40F9 
         00009e 000A 
         0000a0 0000 
     246            ;* --------------------------------------------------------------------------*
     247 0000a2       $C$L8:    
     248                    .dwpsn  file "C:/Users/409010855/Documents/GitHub/CHARM/Embedded_Voltmeter/Basic WiFi Source/S
     249 0000a2 4F2D          MOV.W     @r15,r13              ; [] |195| 
     250 0000a4 4F1E          MOV.W     2(r15),r14            ; [] |195| 
         0000a6 0002 
     251            $C$DW$26        .dwtag  DW_TAG_TI_branch
     252                    .dwattr $C$DW$26, DW_AT_low_pc(0x00)
     253                    .dwattr $C$DW$26, DW_AT_name("UINT32_TO_STREAM_f")
     254                    .dwattr $C$DW$26, DW_AT_TI_call
     255 0000a8 13B0!         CALLA     #UINT32_TO_STREAM_f   ; [] |195| 
         0000aa 0000 
     256                                                      ; [] |195| 
     257                    .dwpsn  file "C:/Users/409010855/Documents/GitHub/CHARM/Embedded_Voltmeter/Basic WiFi Source/S
     258 0000ac 472D          MOV.W     @r7,r13               ; [] |196| 
     259 0000ae 471E          MOV.W     2(r7),r14             ; [] |196| 
         0000b0 0002 
     260            $C$DW$27        .dwtag  DW_TAG_TI_branch
     261                    .dwattr $C$DW$27, DW_AT_low_pc(0x00)
     262                    .dwattr $C$DW$27, DW_AT_name("UINT32_TO_STREAM_f")
     263                    .dwattr $C$DW$27, DW_AT_TI_call
     264 0000b2 13B0!         CALLA     #UINT32_TO_STREAM_f   ; [] |196| 
         0000b4 0000 
     265                                                      ; [] |196| 
     266                    .dwpsn  file "C:/Users/409010855/Documents/GitHub/CHARM/Embedded_Voltmeter/Basic WiFi Source/S
     267 0000b6 4A2D          MOV.W     @r10,r13              ; [] |197| 
     268 0000b8 4A1E          MOV.W     2(r10),r14            ; [] |197| 
         0000ba 0002 
     269            $C$DW$28        .dwtag  DW_TAG_TI_branch
     270                    .dwattr $C$DW$28, DW_AT_low_pc(0x00)
     271                    .dwattr $C$DW$28, DW_AT_name("UINT32_TO_STREAM_f")
     272                    .dwattr $C$DW$28, DW_AT_TI_call
     273 0000bc 13B0!         CALLA     #UINT32_TO_STREAM_f   ; [] |197| 
         0000be 0000 
     274                                                      ; [] |197| 
     275                    .dwpsn  file "C:/Users/409010855/Documents/GitHub/CHARM/Embedded_Voltmeter/Basic WiFi Source/S
     276 0000c0 492D          MOV.W     @r9,r13               ; [] |198| 
     277 0000c2 491E          MOV.W     2(r9),r14             ; [] |198| 
         0000c4 0002 
     278            $C$DW$29        .dwtag  DW_TAG_TI_branch
     279                    .dwattr $C$DW$29, DW_AT_low_pc(0x00)
     280                    .dwattr $C$DW$29, DW_AT_name("UINT32_TO_STREAM_f")
     281                    .dwattr $C$DW$29, DW_AT_TI_call
     282 0000c6 13B0!         CALLA     #UINT32_TO_STREAM_f   ; [] |198| 
         0000c8 0000 
     283                                                      ; [] |198| 
     284                    .dwpsn  file "C:/Users/409010855/Documents/GitHub/CHARM/Embedded_Voltmeter/Basic WiFi Source/S
     285 0000ca 403C          MOV.W     #8201,r12             ; [] |201| 
         0000cc 2009 
     286 0000ce 08CD          MOVA      r8,r13                ; [] |201| 
MSP430 Assembler PC v4.2.1 Fri Mar 21 13:42:32 2014

Tools Copyright (c) 2003-2013 Texas Instruments Incorporated
C:\Users\409010~1\AppData\Local\Temp\0527610                         PAGE    7

     287 0000d0 407E          MOV.B     #20,r14               ; [] |201| 
         0000d2 0014 
     288            $C$DW$30        .dwtag  DW_TAG_TI_branch
     289                    .dwattr $C$DW$30, DW_AT_low_pc(0x00)
     290                    .dwattr $C$DW$30, DW_AT_name("hci_command_send")
     291                    .dwattr $C$DW$30, DW_AT_TI_call
     292 0000d4 13B0!         CALLA     #hci_command_send     ; [] |201| 
         0000d6 0000 
     293                                                      ; [] |201| 
     294                    .dwpsn  file "C:/Users/409010855/Documents/GitHub/CHARM/Embedded_Voltmeter/Basic WiFi Source/S
     295 0000d8 403C          MOV.W     #8201,r12             ; [] |204| 
         0000da 2009 
     296 0000dc 01CD          MOVA      SP,r13                ; [] |204| 
     297            $C$DW$31        .dwtag  DW_TAG_TI_branch
     298                    .dwattr $C$DW$31, DW_AT_low_pc(0x00)
     299                    .dwattr $C$DW$31, DW_AT_name("SimpleLinkWaitEvent")
     300                    .dwattr $C$DW$31, DW_AT_TI_call
     301 0000de 13B0!         CALLA     #SimpleLinkWaitEvent  ; [] |204| 
         0000e0 0000 
     302                                                      ; [] |204| 
     303                    .dwpsn  file "C:/Users/409010855/Documents/GitHub/CHARM/Embedded_Voltmeter/Basic WiFi Source/S
     304 0000e2 416C          MOV.B     0(SP),r12             ; [] |206| 
     305 0000e4 118C          SXT       r12                   ; [] |206| 
     306 0000e6 B03C          BIT.W     #32768,r12            ; [] |206| 
         0000e8 8000 
     307 0000ea 7D0D          SUBC.W    r13,r13               ; [] |206| 
     308 0000ec E33D          INV.W     r13                   ; [] |206| 
     309 0000ee 5321          ADD.W     #2,SP                 ; [] 
     310                    .dwcfi  cfa_offset, 20
     311 0000f0 1637          POPM.A    #4,r10                ; [] 
     312                    .dwcfi  restore_reg, 7
     313                    .dwcfi  restore_reg, 8
     314                    .dwcfi  restore_reg, 9
     315                    .dwcfi  restore_reg, 10
     316                    .dwcfi  cfa_offset, 4
     317            $C$DW$32        .dwtag  DW_TAG_TI_branch
     318                    .dwattr $C$DW$32, DW_AT_low_pc(0x00)
     319                    .dwattr $C$DW$32, DW_AT_TI_return
     320 0000f2 0110          RETA      ; [] 
     321                    ; [] 
     322                    .dwattr $C$DW$14, DW_AT_TI_end_file("C:/Users/409010855/Documents/GitHub/CHARM/Embedded_Voltme
     323                    .dwattr $C$DW$14, DW_AT_TI_end_line(0xcf)
     324                    .dwattr $C$DW$14, DW_AT_TI_end_column(0x01)
     325                    .dwendentry
     326                    .dwendtag $C$DW$14
     327            
     328 000000               .sect   ".text:netapp_set_debug_level"
     329                    .align  2
     330                    .clink
     331                    .global netapp_set_debug_level
     332            
     333            $C$DW$33        .dwtag  DW_TAG_subprogram, DW_AT_name("netapp_set_debug_level")
     334                    .dwattr $C$DW$33, DW_AT_low_pc(netapp_set_debug_level)
     335                    .dwattr $C$DW$33, DW_AT_high_pc(0x00)
     336                    .dwattr $C$DW$33, DW_AT_TI_symbol_name("netapp_set_debug_level")
MSP430 Assembler PC v4.2.1 Fri Mar 21 13:42:32 2014

Tools Copyright (c) 2003-2013 Texas Instruments Incorporated
C:\Users\409010~1\AppData\Local\Temp\0527610                         PAGE    8

     337                    .dwattr $C$DW$33, DW_AT_external
     338                    .dwattr $C$DW$33, DW_AT_type(*$C$DW$T$32)
     339                    .dwattr $C$DW$33, DW_AT_TI_begin_file("C:/Users/409010855/Documents/GitHub/CHARM/Embedded_Volt
     340                    .dwattr $C$DW$33, DW_AT_TI_begin_line(0x1ae)
     341                    .dwattr $C$DW$33, DW_AT_TI_begin_column(0x07)
     342                    .dwattr $C$DW$33, DW_AT_TI_max_frame_size(0x0a)
     343                    .dwpsn  file "C:/Users/409010855/Documents/GitHub/CHARM/Embedded_Voltmeter/Basic WiFi Source/S
     344            
     345                    .dwfde $C$DW$CIE, netapp_set_debug_level
     346            $C$DW$34        .dwtag  DW_TAG_formal_parameter, DW_AT_name("ulLevel")
     347                    .dwattr $C$DW$34, DW_AT_TI_symbol_name("ulLevel")
     348                    .dwattr $C$DW$34, DW_AT_type(*$C$DW$T$25)
     349                    .dwattr $C$DW$34, DW_AT_location[DW_OP_reg12 DW_OP_piece 2 DW_OP_reg13 DW_OP_piece 2]
     350            
     351            ;*****************************************************************************
     352            ;* FUNCTION NAME: netapp_set_debug_level                                     *
     353            ;*                                                                           *
     354            ;*   Regs Modified     : SP,SR,r10,r11,r12,r13,r14,r15                       *
     355            ;*   Regs Used         : SP,SR,r10,r11,r12,r13,r14,r15                       *
     356            ;*   Local Frame Size  : 0 Args + 2 Auto + 4 Save = 6 byte                   *
     357            ;*****************************************************************************
     358            netapp_set_debug_level:
     359            ;* --------------------------------------------------------------------------*
     360            ;* r15   assigned to ulLevel
     361            $C$DW$35        .dwtag  DW_TAG_variable, DW_AT_name("ulLevel")
     362                    .dwattr $C$DW$35, DW_AT_TI_symbol_name("ulLevel")
     363                    .dwattr $C$DW$35, DW_AT_type(*$C$DW$T$87)
     364                    .dwattr $C$DW$35, DW_AT_location[DW_OP_reg15 DW_OP_piece 2 DW_OP_reg16 DW_OP_piece 2]
     365            $C$DW$36        .dwtag  DW_TAG_variable, DW_AT_name("scRet")
     366                    .dwattr $C$DW$36, DW_AT_TI_symbol_name("scRet")
     367                    .dwattr $C$DW$36, DW_AT_type(*$C$DW$T$60)
     368                    .dwattr $C$DW$36, DW_AT_location[DW_OP_breg1 0]
     369            ;* r10   assigned to ptr
     370            $C$DW$37        .dwtag  DW_TAG_variable, DW_AT_name("ptr")
     371                    .dwattr $C$DW$37, DW_AT_TI_symbol_name("ptr")
     372                    .dwattr $C$DW$37, DW_AT_type(*$C$DW$T$21)
     373                    .dwattr $C$DW$37, DW_AT_location[DW_OP_reg10]
     374                    .dwcfi  cfa_offset, 4
     375                    .dwcfi  save_reg_to_mem, 16, -4
     376 000000 140A          PUSHM.A   #1,r10                ; [] 
     377                    .dwcfi  save_reg_to_mem, 10, -8
     378                    .dwcfi  cfa_offset, 8
     379 000002 8321          SUB.W     #2,SP                 ; [] 
     380                    .dwcfi  cfa_offset, 10
     381 000004 0DCE          MOVA      r13,r14               ; [] |431| 
     382 000006 0CCD          MOVA      r12,r13               ; [] |431| 
     383                    .dwpsn  file "C:/Users/409010855/Documents/GitHub/CHARM/Embedded_Voltmeter/Basic WiFi Source/S
     384 000008 43F1          MOV.B     #-1,0(SP)             ; [] |435| 
         00000a 0000 
     385                    .dwpsn  file "C:/Users/409010855/Documents/GitHub/CHARM/Embedded_Voltmeter/Basic WiFi Source/S
     386 00000c 421A          MOV.W     &tSLInformation+6,r10 ; [] |436| 
         00000e 0006!
     387                    .dwpsn  file "C:/Users/409010855/Documents/GitHub/CHARM/Embedded_Voltmeter/Basic WiFi Source/S
     388 000010 403C          MOV.W     #9,r12                ; [] |442| 
         000012 0009 
MSP430 Assembler PC v4.2.1 Fri Mar 21 13:42:32 2014

Tools Copyright (c) 2003-2013 Texas Instruments Incorporated
C:\Users\409010~1\AppData\Local\Temp\0527610                         PAGE    9

     389 000014 5A0C          ADD.W     r10,r12               ; [] |442| 
     390            $C$DW$38        .dwtag  DW_TAG_TI_branch
     391                    .dwattr $C$DW$38, DW_AT_low_pc(0x00)
     392                    .dwattr $C$DW$38, DW_AT_name("UINT32_TO_STREAM_f")
     393                    .dwattr $C$DW$38, DW_AT_TI_call
     394 000016 13B0!         CALLA     #UINT32_TO_STREAM_f   ; [] |442| 
         000018 0000 
     395                                                      ; [] |442| 
     396                    .dwpsn  file "C:/Users/409010855/Documents/GitHub/CHARM/Embedded_Voltmeter/Basic WiFi Source/S
     397 00001a 403C          MOV.W     #8200,r12             ; [] |448| 
         00001c 2008 
     398 00001e 0ACD          MOVA      r10,r13               ; [] |448| 
     399 000020 426E          MOV.B     #4,r14                ; [] |448| 
     400            $C$DW$39        .dwtag  DW_TAG_TI_branch
     401                    .dwattr $C$DW$39, DW_AT_low_pc(0x00)
     402                    .dwattr $C$DW$39, DW_AT_name("hci_command_send")
     403                    .dwattr $C$DW$39, DW_AT_TI_call
     404 000022 13B0!         CALLA     #hci_command_send     ; [] |448| 
         000024 0000 
     405                                                      ; [] |448| 
     406                    .dwpsn  file "C:/Users/409010855/Documents/GitHub/CHARM/Embedded_Voltmeter/Basic WiFi Source/S
     407 000026 403C          MOV.W     #8200,r12             ; [] |453| 
         000028 2008 
     408 00002a 01CD          MOVA      SP,r13                ; [] |453| 
     409            $C$DW$40        .dwtag  DW_TAG_TI_branch
     410                    .dwattr $C$DW$40, DW_AT_low_pc(0x00)
     411                    .dwattr $C$DW$40, DW_AT_name("SimpleLinkWaitEvent")
     412                    .dwattr $C$DW$40, DW_AT_TI_call
     413 00002c 13B0!         CALLA     #SimpleLinkWaitEvent  ; [] |453| 
         00002e 0000 
     414                                                      ; [] |453| 
     415                    .dwpsn  file "C:/Users/409010855/Documents/GitHub/CHARM/Embedded_Voltmeter/Basic WiFi Source/S
     416 000030 416C          MOV.B     0(SP),r12             ; [] |455| 
     417 000032 118C          SXT       r12                   ; [] |455| 
     418 000034 B03C          BIT.W     #32768,r12            ; [] |455| 
         000036 8000 
     419 000038 7D0D          SUBC.W    r13,r13               ; [] |455| 
     420 00003a E33D          INV.W     r13                   ; [] |455| 
     421 00003c 5321          ADD.W     #2,SP                 ; [] 
     422                    .dwcfi  cfa_offset, 8
     423 00003e 160A          POPM.A    #1,r10                ; [] 
     424                    .dwcfi  restore_reg, 10
     425                    .dwcfi  cfa_offset, 4
     426            $C$DW$41        .dwtag  DW_TAG_TI_branch
     427                    .dwattr $C$DW$41, DW_AT_low_pc(0x00)
     428                    .dwattr $C$DW$41, DW_AT_TI_return
     429 000040 0110          RETA      ; [] 
     430                    ; [] 
     431                    .dwattr $C$DW$33, DW_AT_TI_end_file("C:/Users/409010855/Documents/GitHub/CHARM/Embedded_Voltme
     432                    .dwattr $C$DW$33, DW_AT_TI_end_line(0x1c9)
     433                    .dwattr $C$DW$33, DW_AT_TI_end_column(0x01)
     434                    .dwendentry
     435                    .dwendtag $C$DW$33
     436            
     437 000000               .sect   ".text:netapp_ping_stop"
MSP430 Assembler PC v4.2.1 Fri Mar 21 13:42:32 2014

Tools Copyright (c) 2003-2013 Texas Instruments Incorporated
C:\Users\409010~1\AppData\Local\Temp\0527610                         PAGE   10

     438                    .align  2
     439                    .clink
     440                    .global netapp_ping_stop
     441            
     442            $C$DW$42        .dwtag  DW_TAG_subprogram, DW_AT_name("netapp_ping_stop")
     443                    .dwattr $C$DW$42, DW_AT_low_pc(netapp_ping_stop)
     444                    .dwattr $C$DW$42, DW_AT_high_pc(0x00)
     445                    .dwattr $C$DW$42, DW_AT_TI_symbol_name("netapp_ping_stop")
     446                    .dwattr $C$DW$42, DW_AT_external
     447                    .dwattr $C$DW$42, DW_AT_type(*$C$DW$T$32)
     448                    .dwattr $C$DW$42, DW_AT_TI_begin_file("C:/Users/409010855/Documents/GitHub/CHARM/Embedded_Volt
     449                    .dwattr $C$DW$42, DW_AT_TI_begin_line(0x13a)
     450                    .dwattr $C$DW$42, DW_AT_TI_begin_column(0x07)
     451                    .dwattr $C$DW$42, DW_AT_TI_max_frame_size(0x06)
     452                    .dwpsn  file "C:/Users/409010855/Documents/GitHub/CHARM/Embedded_Voltmeter/Basic WiFi Source/S
     453            
     454                    .dwfde $C$DW$CIE, netapp_ping_stop
     455            
     456            ;*****************************************************************************
     457            ;* FUNCTION NAME: netapp_ping_stop                                           *
     458            ;*                                                                           *
     459            ;*   Regs Modified     : SP,SR,r11,r12,r13,r14,r15                           *
     460            ;*   Regs Used         : SP,SR,r11,r12,r13,r14,r15                           *
     461            ;*   Local Frame Size  : 0 Args + 2 Auto + 0 Save = 2 byte                   *
     462            ;*****************************************************************************
     463            netapp_ping_stop:
     464            ;* --------------------------------------------------------------------------*
     465            $C$DW$43        .dwtag  DW_TAG_variable, DW_AT_name("scRet")
     466                    .dwattr $C$DW$43, DW_AT_TI_symbol_name("scRet")
     467                    .dwattr $C$DW$43, DW_AT_type(*$C$DW$T$60)
     468                    .dwattr $C$DW$43, DW_AT_location[DW_OP_breg1 0]
     469            ;* r13   assigned to ptr
     470            $C$DW$44        .dwtag  DW_TAG_variable, DW_AT_name("ptr")
     471                    .dwattr $C$DW$44, DW_AT_TI_symbol_name("ptr")
     472                    .dwattr $C$DW$44, DW_AT_type(*$C$DW$T$21)
     473                    .dwattr $C$DW$44, DW_AT_location[DW_OP_reg13]
     474                    .dwcfi  cfa_offset, 4
     475                    .dwcfi  save_reg_to_mem, 16, -4
     476 000000 8321          SUB.W     #2,SP                 ; [] 
     477                    .dwcfi  cfa_offset, 6
     478                    .dwpsn  file "C:/Users/409010855/Documents/GitHub/CHARM/Embedded_Voltmeter/Basic WiFi Source/S
     479 000002 43F1          MOV.B     #-1,0(SP)             ; [] |319| 
         000004 0000 
     480                    .dwpsn  file "C:/Users/409010855/Documents/GitHub/CHARM/Embedded_Voltmeter/Basic WiFi Source/S
     481 000006 421D          MOV.W     &tSLInformation+6,r13 ; [] |320| 
         000008 0006!
     482                    .dwpsn  file "C:/Users/409010855/Documents/GitHub/CHARM/Embedded_Voltmeter/Basic WiFi Source/S
     483 00000a 403C          MOV.W     #8196,r12             ; [] |323| 
         00000c 2004 
     484 00000e 434E          MOV.B     #0,r14                ; [] |323| 
     485            $C$DW$45        .dwtag  DW_TAG_TI_branch
     486                    .dwattr $C$DW$45, DW_AT_low_pc(0x00)
     487                    .dwattr $C$DW$45, DW_AT_name("hci_command_send")
     488                    .dwattr $C$DW$45, DW_AT_TI_call
     489 000010 13B0!         CALLA     #hci_command_send     ; [] |323| 
MSP430 Assembler PC v4.2.1 Fri Mar 21 13:42:32 2014

Tools Copyright (c) 2003-2013 Texas Instruments Incorporated
C:\Users\409010~1\AppData\Local\Temp\0527610                         PAGE   11

         000012 0000 
     490                                                      ; [] |323| 
     491                    .dwpsn  file "C:/Users/409010855/Documents/GitHub/CHARM/Embedded_Voltmeter/Basic WiFi Source/S
     492 000014 403C          MOV.W     #8196,r12             ; [] |326| 
         000016 2004 
     493 000018 01CD          MOVA      SP,r13                ; [] |326| 
     494            $C$DW$46        .dwtag  DW_TAG_TI_branch
     495                    .dwattr $C$DW$46, DW_AT_low_pc(0x00)
     496                    .dwattr $C$DW$46, DW_AT_name("SimpleLinkWaitEvent")
     497                    .dwattr $C$DW$46, DW_AT_TI_call
     498 00001a 13B0!         CALLA     #SimpleLinkWaitEvent  ; [] |326| 
         00001c 0000 
     499                                                      ; [] |326| 
     500                    .dwpsn  file "C:/Users/409010855/Documents/GitHub/CHARM/Embedded_Voltmeter/Basic WiFi Source/S
     501 00001e 416C          MOV.B     0(SP),r12             ; [] |328| 
     502 000020 118C          SXT       r12                   ; [] |328| 
     503 000022 B03C          BIT.W     #32768,r12            ; [] |328| 
         000024 8000 
     504 000026 7D0D          SUBC.W    r13,r13               ; [] |328| 
     505 000028 E33D          INV.W     r13                   ; [] |328| 
     506 00002a 5321          ADD.W     #2,SP                 ; [] 
     507                    .dwcfi  cfa_offset, 4
     508            $C$DW$47        .dwtag  DW_TAG_TI_branch
     509                    .dwattr $C$DW$47, DW_AT_low_pc(0x00)
     510                    .dwattr $C$DW$47, DW_AT_TI_return
     511 00002c 0110          RETA      ; [] 
     512                    ; [] 
     513                    .dwattr $C$DW$42, DW_AT_TI_end_file("C:/Users/409010855/Documents/GitHub/CHARM/Embedded_Voltme
     514                    .dwattr $C$DW$42, DW_AT_TI_end_line(0x149)
     515                    .dwattr $C$DW$42, DW_AT_TI_end_column(0x01)
     516                    .dwendentry
     517                    .dwendtag $C$DW$42
     518            
     519 000000               .sect   ".text:netapp_ping_send"
     520                    .align  2
     521                    .clink
     522                    .global netapp_ping_send
     523            
     524            $C$DW$48        .dwtag  DW_TAG_subprogram, DW_AT_name("netapp_ping_send")
     525                    .dwattr $C$DW$48, DW_AT_low_pc(netapp_ping_send)
     526                    .dwattr $C$DW$48, DW_AT_high_pc(0x00)
     527                    .dwattr $C$DW$48, DW_AT_TI_symbol_name("netapp_ping_send")
     528                    .dwattr $C$DW$48, DW_AT_external
     529                    .dwattr $C$DW$48, DW_AT_type(*$C$DW$T$32)
     530                    .dwattr $C$DW$48, DW_AT_TI_begin_file("C:/Users/409010855/Documents/GitHub/CHARM/Embedded_Volt
     531                    .dwattr $C$DW$48, DW_AT_TI_begin_line(0xea)
     532                    .dwattr $C$DW$48, DW_AT_TI_begin_column(0x02)
     533                    .dwattr $C$DW$48, DW_AT_TI_max_frame_size(0x22)
     534                    .dwpsn  file "C:/Users/409010855/Documents/GitHub/CHARM/Embedded_Voltmeter/Basic WiFi Source/S
     535            
     536                    .dwfde $C$DW$CIE, netapp_ping_send
     537            $C$DW$49        .dwtag  DW_TAG_formal_parameter, DW_AT_name("ip")
     538                    .dwattr $C$DW$49, DW_AT_TI_symbol_name("ip")
     539                    .dwattr $C$DW$49, DW_AT_type(*$C$DW$T$26)
     540                    .dwattr $C$DW$49, DW_AT_location[DW_OP_reg12]
MSP430 Assembler PC v4.2.1 Fri Mar 21 13:42:32 2014

Tools Copyright (c) 2003-2013 Texas Instruments Incorporated
C:\Users\409010~1\AppData\Local\Temp\0527610                         PAGE   12

     541            $C$DW$50        .dwtag  DW_TAG_formal_parameter, DW_AT_name("ulPingAttempts")
     542                    .dwattr $C$DW$50, DW_AT_TI_symbol_name("ulPingAttempts")
     543                    .dwattr $C$DW$50, DW_AT_type(*$C$DW$T$25)
     544                    .dwattr $C$DW$50, DW_AT_location[DW_OP_reg13 DW_OP_piece 2 DW_OP_reg14 DW_OP_piece 2]
     545            $C$DW$51        .dwtag  DW_TAG_formal_parameter, DW_AT_name("ulPingSize")
     546                    .dwattr $C$DW$51, DW_AT_TI_symbol_name("ulPingSize")
     547                    .dwattr $C$DW$51, DW_AT_type(*$C$DW$T$25)
     548                    .dwattr $C$DW$51, DW_AT_location[DW_OP_reg15 DW_OP_piece 2 DW_OP_reg16 DW_OP_piece 2]
     549            $C$DW$52        .dwtag  DW_TAG_formal_parameter, DW_AT_name("ulPingTimeout")
     550                    .dwattr $C$DW$52, DW_AT_TI_symbol_name("ulPingTimeout")
     551                    .dwattr $C$DW$52, DW_AT_type(*$C$DW$T$25)
     552                    .dwattr $C$DW$52, DW_AT_location[DW_OP_breg1 36]
     553            
     554            ;*****************************************************************************
     555            ;* FUNCTION NAME: netapp_ping_send                                           *
     556            ;*                                                                           *
     557            ;*   Regs Modified     : SP,SR,r4,r5,r6,r7,r8,r9,r10,r11,r12,r13,r14,r15     *
     558            ;*   Regs Used         : SP,SR,r4,r5,r6,r7,r8,r9,r10,r11,r12,r13,r14,r15     *
     559            ;*   Local Frame Size  : 0 Args + 2 Auto + 28 Save = 30 byte                 *
     560            ;*****************************************************************************
     561            netapp_ping_send:
     562            ;* --------------------------------------------------------------------------*
     563            ;* r15   assigned to ip
     564            $C$DW$53        .dwtag  DW_TAG_variable, DW_AT_name("ip")
     565                    .dwattr $C$DW$53, DW_AT_TI_symbol_name("ip")
     566                    .dwattr $C$DW$53, DW_AT_type(*$C$DW$T$88)
     567                    .dwattr $C$DW$53, DW_AT_location[DW_OP_reg15]
     568            ;* r4    assigned to ulPingAttempts
     569            $C$DW$54        .dwtag  DW_TAG_variable, DW_AT_name("ulPingAttempts")
     570                    .dwattr $C$DW$54, DW_AT_TI_symbol_name("ulPingAttempts")
     571                    .dwattr $C$DW$54, DW_AT_type(*$C$DW$T$87)
     572                    .dwattr $C$DW$54, DW_AT_location[DW_OP_reg4 DW_OP_piece 2 DW_OP_reg5 DW_OP_piece 2]
     573            ;* r6    assigned to ulPingSize
     574            $C$DW$55        .dwtag  DW_TAG_variable, DW_AT_name("ulPingSize")
     575                    .dwattr $C$DW$55, DW_AT_TI_symbol_name("ulPingSize")
     576                    .dwattr $C$DW$55, DW_AT_type(*$C$DW$T$87)
     577                    .dwattr $C$DW$55, DW_AT_location[DW_OP_reg6 DW_OP_piece 2 DW_OP_reg7 DW_OP_piece 2]
     578            ;* r8    assigned to ulPingTimeout
     579            $C$DW$56        .dwtag  DW_TAG_variable, DW_AT_name("ulPingTimeout")
     580                    .dwattr $C$DW$56, DW_AT_TI_symbol_name("ulPingTimeout")
     581                    .dwattr $C$DW$56, DW_AT_type(*$C$DW$T$87)
     582                    .dwattr $C$DW$56, DW_AT_location[DW_OP_reg8 DW_OP_piece 2 DW_OP_reg9 DW_OP_piece 2]
     583            $C$DW$57        .dwtag  DW_TAG_variable, DW_AT_name("scRet")
     584                    .dwattr $C$DW$57, DW_AT_TI_symbol_name("scRet")
     585                    .dwattr $C$DW$57, DW_AT_type(*$C$DW$T$60)
     586                    .dwattr $C$DW$57, DW_AT_location[DW_OP_breg1 0]
     587            ;* r10   assigned to ptr
     588            $C$DW$58        .dwtag  DW_TAG_variable, DW_AT_name("ptr")
     589                    .dwattr $C$DW$58, DW_AT_TI_symbol_name("ptr")
     590                    .dwattr $C$DW$58, DW_AT_type(*$C$DW$T$21)
     591                    .dwattr $C$DW$58, DW_AT_location[DW_OP_reg10]
     592            ;* r15   assigned to args
     593            $C$DW$59        .dwtag  DW_TAG_variable, DW_AT_name("args")
     594                    .dwattr $C$DW$59, DW_AT_TI_symbol_name("args")
     595                    .dwattr $C$DW$59, DW_AT_type(*$C$DW$T$21)
MSP430 Assembler PC v4.2.1 Fri Mar 21 13:42:32 2014

Tools Copyright (c) 2003-2013 Texas Instruments Incorporated
C:\Users\409010~1\AppData\Local\Temp\0527610                         PAGE   13

     596                    .dwattr $C$DW$59, DW_AT_location[DW_OP_reg15]
     597                    .dwcfi  cfa_offset, 4
     598                    .dwcfi  save_reg_to_mem, 16, -4
     599 000000 146A          PUSHM.A   #7,r10                ; [] 
     600                    .dwcfi  save_reg_to_mem, 10, -8
     601                    .dwcfi  save_reg_to_mem, 9, -12
     602                    .dwcfi  save_reg_to_mem, 8, -16
     603                    .dwcfi  save_reg_to_mem, 7, -20
     604                    .dwcfi  save_reg_to_mem, 6, -24
     605                    .dwcfi  save_reg_to_mem, 5, -28
     606                    .dwcfi  save_reg_to_mem, 4, -32
     607                    .dwcfi  cfa_offset, 32
     608 000002 8321          SUB.W     #2,SP                 ; [] 
     609                    .dwcfi  cfa_offset, 34
     610 000004 0FC6          MOVA      r15,r6                ; [] |235| 
     611 000006 0DC4          MOVA      r13,r4                ; [] |235| 
     612 000008 0EC5          MOVA      r14,r5                ; [] |235| 
     613 00000a 0CCF          MOVA      r12,r15               ; [] |235| 
     614 00000c 4118          MOV.W     36(SP),r8             ; [] |235| 
         00000e 0024 
     615 000010 4119          MOV.W     38(SP),r9             ; [] |235| 
         000012 0026 
     616 000014 4117          MOV.W     34(SP),r7             ; [] |235| 
         000016 0022 
     617                    .dwpsn  file "C:/Users/409010855/Documents/GitHub/CHARM/Embedded_Voltmeter/Basic WiFi Source/S
     618 000018 43F1          MOV.B     #-1,0(SP)             ; [] |239| 
         00001a 0000 
     619                    .dwpsn  file "C:/Users/409010855/Documents/GitHub/CHARM/Embedded_Voltmeter/Basic WiFi Source/S
     620 00001c 421A          MOV.W     &tSLInformation+6,r10 ; [] |240| 
         00001e 0006!
     621                    .dwpsn  file "C:/Users/409010855/Documents/GitHub/CHARM/Embedded_Voltmeter/Basic WiFi Source/S
     622 000020 403C          MOV.W     #9,r12                ; [] |244| 
         000022 0009 
     623 000024 5A0C          ADD.W     r10,r12               ; [] |244| 
     624 000026 4F2D          MOV.W     @r15,r13              ; [] |244| 
     625 000028 4F1E          MOV.W     2(r15),r14            ; [] |244| 
         00002a 0002 
     626            $C$DW$60        .dwtag  DW_TAG_TI_branch
     627                    .dwattr $C$DW$60, DW_AT_low_pc(0x00)
     628                    .dwattr $C$DW$60, DW_AT_name("UINT32_TO_STREAM_f")
     629                    .dwattr $C$DW$60, DW_AT_TI_call
     630 00002c 13B0!         CALLA     #UINT32_TO_STREAM_f   ; [] |244| 
         00002e 0000 
     631                                                      ; [] |244| 
     632                    .dwpsn  file "C:/Users/409010855/Documents/GitHub/CHARM/Embedded_Voltmeter/Basic WiFi Source/S
     633 000030 04CD          MOVA      r4,r13                ; [] |245| 
     634 000032 05CE          MOVA      r5,r14                ; [] |245| 
     635            $C$DW$61        .dwtag  DW_TAG_TI_branch
     636                    .dwattr $C$DW$61, DW_AT_low_pc(0x00)
     637                    .dwattr $C$DW$61, DW_AT_name("UINT32_TO_STREAM_f")
     638                    .dwattr $C$DW$61, DW_AT_TI_call
     639 000034 13B0!         CALLA     #UINT32_TO_STREAM_f   ; [] |245| 
         000036 0000 
     640                                                      ; [] |245| 
     641                    .dwpsn  file "C:/Users/409010855/Documents/GitHub/CHARM/Embedded_Voltmeter/Basic WiFi Source/S
MSP430 Assembler PC v4.2.1 Fri Mar 21 13:42:32 2014

Tools Copyright (c) 2003-2013 Texas Instruments Incorporated
C:\Users\409010~1\AppData\Local\Temp\0527610                         PAGE   14

     642 000038 06CD          MOVA      r6,r13                ; [] |246| 
     643 00003a 07CE          MOVA      r7,r14                ; [] |246| 
     644            $C$DW$62        .dwtag  DW_TAG_TI_branch
     645                    .dwattr $C$DW$62, DW_AT_low_pc(0x00)
     646                    .dwattr $C$DW$62, DW_AT_name("UINT32_TO_STREAM_f")
     647                    .dwattr $C$DW$62, DW_AT_TI_call
     648 00003c 13B0!         CALLA     #UINT32_TO_STREAM_f   ; [] |246| 
         00003e 0000 
     649                                                      ; [] |246| 
     650                    .dwpsn  file "C:/Users/409010855/Documents/GitHub/CHARM/Embedded_Voltmeter/Basic WiFi Source/S
     651 000040 08CD          MOVA      r8,r13                ; [] |247| 
     652 000042 09CE          MOVA      r9,r14                ; [] |247| 
     653            $C$DW$63        .dwtag  DW_TAG_TI_branch
     654                    .dwattr $C$DW$63, DW_AT_low_pc(0x00)
     655                    .dwattr $C$DW$63, DW_AT_name("UINT32_TO_STREAM_f")
     656                    .dwattr $C$DW$63, DW_AT_TI_call
     657 000044 13B0!         CALLA     #UINT32_TO_STREAM_f   ; [] |247| 
         000046 0000 
     658                                                      ; [] |247| 
     659                    .dwpsn  file "C:/Users/409010855/Documents/GitHub/CHARM/Embedded_Voltmeter/Basic WiFi Source/S
     660 000048 403C          MOV.W     #8194,r12             ; [] |250| 
         00004a 2002 
     661 00004c 0ACD          MOVA      r10,r13               ; [] |250| 
     662 00004e 407E          MOV.B     #16,r14               ; [] |250| 
         000050 0010 
     663            $C$DW$64        .dwtag  DW_TAG_TI_branch
     664                    .dwattr $C$DW$64, DW_AT_low_pc(0x00)
     665                    .dwattr $C$DW$64, DW_AT_name("hci_command_send")
     666                    .dwattr $C$DW$64, DW_AT_TI_call
     667 000052 13B0!         CALLA     #hci_command_send     ; [] |250| 
         000054 0000 
     668                                                      ; [] |250| 
     669                    .dwpsn  file "C:/Users/409010855/Documents/GitHub/CHARM/Embedded_Voltmeter/Basic WiFi Source/S
     670 000056 403C          MOV.W     #8194,r12             ; [] |253| 
         000058 2002 
     671 00005a 01CD          MOVA      SP,r13                ; [] |253| 
     672            $C$DW$65        .dwtag  DW_TAG_TI_branch
     673                    .dwattr $C$DW$65, DW_AT_low_pc(0x00)
     674                    .dwattr $C$DW$65, DW_AT_name("SimpleLinkWaitEvent")
     675                    .dwattr $C$DW$65, DW_AT_TI_call
     676 00005c 13B0!         CALLA     #SimpleLinkWaitEvent  ; [] |253| 
         00005e 0000 
     677                                                      ; [] |253| 
     678                    .dwpsn  file "C:/Users/409010855/Documents/GitHub/CHARM/Embedded_Voltmeter/Basic WiFi Source/S
     679 000060 416C          MOV.B     0(SP),r12             ; [] |255| 
     680 000062 118C          SXT       r12                   ; [] |255| 
     681 000064 B03C          BIT.W     #32768,r12            ; [] |255| 
         000066 8000 
     682 000068 7D0D          SUBC.W    r13,r13               ; [] |255| 
     683 00006a E33D          INV.W     r13                   ; [] |255| 
     684 00006c 5321          ADD.W     #2,SP                 ; [] 
     685                    .dwcfi  cfa_offset, 32
     686 00006e 1664          POPM.A    #7,r10                ; [] 
     687                    .dwcfi  restore_reg, 4
     688                    .dwcfi  restore_reg, 5
MSP430 Assembler PC v4.2.1 Fri Mar 21 13:42:32 2014

Tools Copyright (c) 2003-2013 Texas Instruments Incorporated
C:\Users\409010~1\AppData\Local\Temp\0527610                         PAGE   15

     689                    .dwcfi  restore_reg, 6
     690                    .dwcfi  restore_reg, 7
     691                    .dwcfi  restore_reg, 8
     692                    .dwcfi  restore_reg, 9
     693                    .dwcfi  restore_reg, 10
     694                    .dwcfi  cfa_offset, 4
     695            $C$DW$66        .dwtag  DW_TAG_TI_branch
     696                    .dwattr $C$DW$66, DW_AT_low_pc(0x00)
     697                    .dwattr $C$DW$66, DW_AT_TI_return
     698 000070 0110          RETA      ; [] 
     699                    ; [] 
     700                    .dwattr $C$DW$48, DW_AT_TI_end_file("C:/Users/409010855/Documents/GitHub/CHARM/Embedded_Voltme
     701                    .dwattr $C$DW$48, DW_AT_TI_end_line(0x100)
     702                    .dwattr $C$DW$48, DW_AT_TI_end_column(0x01)
     703                    .dwendentry
     704                    .dwendtag $C$DW$48
     705            
     706 000000               .sect   ".text:netapp_ping_report"
     707                    .align  2
     708                    .clink
     709                    .global netapp_ping_report
     710            
     711            $C$DW$67        .dwtag  DW_TAG_subprogram, DW_AT_name("netapp_ping_report")
     712                    .dwattr $C$DW$67, DW_AT_low_pc(netapp_ping_report)
     713                    .dwattr $C$DW$67, DW_AT_high_pc(0x00)
     714                    .dwattr $C$DW$67, DW_AT_TI_symbol_name("netapp_ping_report")
     715                    .dwattr $C$DW$67, DW_AT_external
     716                    .dwattr $C$DW$67, DW_AT_TI_begin_file("C:/Users/409010855/Documents/GitHub/CHARM/Embedded_Volt
     717                    .dwattr $C$DW$67, DW_AT_TI_begin_line(0x11c)
     718                    .dwattr $C$DW$67, DW_AT_TI_begin_column(0x06)
     719                    .dwattr $C$DW$67, DW_AT_TI_max_frame_size(0x06)
     720                    .dwpsn  file "C:/Users/409010855/Documents/GitHub/CHARM/Embedded_Voltmeter/Basic WiFi Source/S
     721            
     722                    .dwfde $C$DW$CIE, netapp_ping_report
     723            
     724            ;*****************************************************************************
     725            ;* FUNCTION NAME: netapp_ping_report                                         *
     726            ;*                                                                           *
     727            ;*   Regs Modified     : SP,SR,r11,r12,r13,r14,r15                           *
     728            ;*   Regs Used         : SP,SR,r11,r12,r13,r14,r15                           *
     729            ;*   Local Frame Size  : 0 Args + 2 Auto + 0 Save = 2 byte                   *
     730            ;*****************************************************************************
     731            netapp_ping_report:
     732            ;* --------------------------------------------------------------------------*
     733            ;* r13   assigned to ptr
     734            $C$DW$68        .dwtag  DW_TAG_variable, DW_AT_name("ptr")
     735                    .dwattr $C$DW$68, DW_AT_TI_symbol_name("ptr")
     736                    .dwattr $C$DW$68, DW_AT_type(*$C$DW$T$21)
     737                    .dwattr $C$DW$68, DW_AT_location[DW_OP_reg13]
     738            $C$DW$69        .dwtag  DW_TAG_variable, DW_AT_name("scRet")
     739                    .dwattr $C$DW$69, DW_AT_TI_symbol_name("scRet")
     740                    .dwattr $C$DW$69, DW_AT_type(*$C$DW$T$60)
     741                    .dwattr $C$DW$69, DW_AT_location[DW_OP_breg1 0]
     742                    .dwcfi  cfa_offset, 4
     743                    .dwcfi  save_reg_to_mem, 16, -4
MSP430 Assembler PC v4.2.1 Fri Mar 21 13:42:32 2014

Tools Copyright (c) 2003-2013 Texas Instruments Incorporated
C:\Users\409010~1\AppData\Local\Temp\0527610                         PAGE   16

     744 000000 8321          SUB.W     #2,SP                 ; [] 
     745                    .dwcfi  cfa_offset, 6
     746                    .dwpsn  file "C:/Users/409010855/Documents/GitHub/CHARM/Embedded_Voltmeter/Basic WiFi Source/S
     747 000002 421D          MOV.W     &tSLInformation+6,r13 ; [] |287| 
         000004 0006!
     748                    .dwpsn  file "C:/Users/409010855/Documents/GitHub/CHARM/Embedded_Voltmeter/Basic WiFi Source/S
     749 000006 43F1          MOV.B     #-1,0(SP)             ; [] |290| 
         000008 0000 
     750                    .dwpsn  file "C:/Users/409010855/Documents/GitHub/CHARM/Embedded_Voltmeter/Basic WiFi Source/S
     751 00000a 403C          MOV.W     #8195,r12             ; [] |293| 
         00000c 2003 
     752 00000e 434E          MOV.B     #0,r14                ; [] |293| 
     753            $C$DW$70        .dwtag  DW_TAG_TI_branch
     754                    .dwattr $C$DW$70, DW_AT_low_pc(0x00)
     755                    .dwattr $C$DW$70, DW_AT_name("hci_command_send")
     756                    .dwattr $C$DW$70, DW_AT_TI_call
     757 000010 13B0!         CALLA     #hci_command_send     ; [] |293| 
         000012 0000 
     758                                                      ; [] |293| 
     759                    .dwpsn  file "C:/Users/409010855/Documents/GitHub/CHARM/Embedded_Voltmeter/Basic WiFi Source/S
     760 000014 403C          MOV.W     #8195,r12             ; [] |296| 
         000016 2003 
     761 000018 01CD          MOVA      SP,r13                ; [] |296| 
     762            $C$DW$71        .dwtag  DW_TAG_TI_branch
     763                    .dwattr $C$DW$71, DW_AT_low_pc(0x00)
     764                    .dwattr $C$DW$71, DW_AT_name("SimpleLinkWaitEvent")
     765                    .dwattr $C$DW$71, DW_AT_TI_call
     766 00001a 13B0!         CALLA     #SimpleLinkWaitEvent  ; [] |296| 
         00001c 0000 
     767                                                      ; [] |296| 
     768 00001e 5321          ADD.W     #2,SP                 ; [] 
     769                    .dwcfi  cfa_offset, 4
     770            $C$DW$72        .dwtag  DW_TAG_TI_branch
     771                    .dwattr $C$DW$72, DW_AT_low_pc(0x00)
     772                    .dwattr $C$DW$72, DW_AT_TI_return
     773 000020 0110          RETA      ; [] 
     774                    ; [] 
     775                    .dwattr $C$DW$67, DW_AT_TI_end_file("C:/Users/409010855/Documents/GitHub/CHARM/Embedded_Voltme
     776                    .dwattr $C$DW$67, DW_AT_TI_end_line(0x129)
     777                    .dwattr $C$DW$67, DW_AT_TI_end_column(0x01)
     778                    .dwendentry
     779                    .dwendtag $C$DW$67
     780            
     781 000000               .sect   ".text:netapp_ipconfig"
     782                    .align  2
     783                    .clink
     784                    .global netapp_ipconfig
     785            
     786            $C$DW$73        .dwtag  DW_TAG_subprogram, DW_AT_name("netapp_ipconfig")
     787                    .dwattr $C$DW$73, DW_AT_low_pc(netapp_ipconfig)
     788                    .dwattr $C$DW$73, DW_AT_high_pc(0x00)
     789                    .dwattr $C$DW$73, DW_AT_TI_symbol_name("netapp_ipconfig")
     790                    .dwattr $C$DW$73, DW_AT_external
     791                    .dwattr $C$DW$73, DW_AT_TI_begin_file("C:/Users/409010855/Documents/GitHub/CHARM/Embedded_Volt
     792                    .dwattr $C$DW$73, DW_AT_TI_begin_line(0x167)
MSP430 Assembler PC v4.2.1 Fri Mar 21 13:42:32 2014

Tools Copyright (c) 2003-2013 Texas Instruments Incorporated
C:\Users\409010~1\AppData\Local\Temp\0527610                         PAGE   17

     793                    .dwattr $C$DW$73, DW_AT_TI_begin_column(0x06)
     794                    .dwattr $C$DW$73, DW_AT_TI_max_frame_size(0x08)
     795                    .dwpsn  file "C:/Users/409010855/Documents/GitHub/CHARM/Embedded_Voltmeter/Basic WiFi Source/S
     796            
     797                    .dwfde $C$DW$CIE, netapp_ipconfig
     798            $C$DW$74        .dwtag  DW_TAG_formal_parameter, DW_AT_name("ipconfig")
     799                    .dwattr $C$DW$74, DW_AT_TI_symbol_name("ipconfig")
     800                    .dwattr $C$DW$74, DW_AT_type(*$C$DW$T$58)
     801                    .dwattr $C$DW$74, DW_AT_location[DW_OP_reg12]
     802            
     803            ;*****************************************************************************
     804            ;* FUNCTION NAME: netapp_ipconfig                                            *
     805            ;*                                                                           *
     806            ;*   Regs Modified     : SP,SR,r10,r11,r12,r13,r14,r15                       *
     807            ;*   Regs Used         : SP,SR,r10,r11,r12,r13,r14,r15                       *
     808            ;*   Local Frame Size  : 0 Args + 0 Auto + 4 Save = 4 byte                   *
     809            ;*****************************************************************************
     810            netapp_ipconfig:
     811            ;* --------------------------------------------------------------------------*
     812            ;* r10   assigned to ipconfig
     813            $C$DW$75        .dwtag  DW_TAG_variable, DW_AT_name("ipconfig")
     814                    .dwattr $C$DW$75, DW_AT_TI_symbol_name("ipconfig")
     815                    .dwattr $C$DW$75, DW_AT_type(*$C$DW$T$94)
     816                    .dwattr $C$DW$75, DW_AT_location[DW_OP_reg10]
     817            ;* r13   assigned to ptr
     818            $C$DW$76        .dwtag  DW_TAG_variable, DW_AT_name("ptr")
     819                    .dwattr $C$DW$76, DW_AT_TI_symbol_name("ptr")
     820                    .dwattr $C$DW$76, DW_AT_type(*$C$DW$T$21)
     821                    .dwattr $C$DW$76, DW_AT_location[DW_OP_reg13]
     822                    .dwcfi  cfa_offset, 4
     823                    .dwcfi  save_reg_to_mem, 16, -4
     824 000000 140A          PUSHM.A   #1,r10                ; [] 
     825                    .dwcfi  save_reg_to_mem, 10, -8
     826                    .dwcfi  cfa_offset, 8
     827 000002 0CCA          MOVA      r12,r10               ; [] |360| 
     828                    .dwpsn  file "C:/Users/409010855/Documents/GitHub/CHARM/Embedded_Voltmeter/Basic WiFi Source/S
     829 000004 421D          MOV.W     &tSLInformation+6,r13 ; [] |363| 
         000006 0006!
     830                    .dwpsn  file "C:/Users/409010855/Documents/GitHub/CHARM/Embedded_Voltmeter/Basic WiFi Source/S
     831 000008 403C          MOV.W     #8197,r12             ; [] |366| 
         00000a 2005 
     832 00000c 434E          MOV.B     #0,r14                ; [] |366| 
     833            $C$DW$77        .dwtag  DW_TAG_TI_branch
     834                    .dwattr $C$DW$77, DW_AT_low_pc(0x00)
     835                    .dwattr $C$DW$77, DW_AT_name("hci_command_send")
     836                    .dwattr $C$DW$77, DW_AT_TI_call
     837 00000e 13B0!         CALLA     #hci_command_send     ; [] |366| 
         000010 0000 
     838                                                      ; [] |366| 
     839                    .dwpsn  file "C:/Users/409010855/Documents/GitHub/CHARM/Embedded_Voltmeter/Basic WiFi Source/S
     840 000012 403C          MOV.W     #8197,r12             ; [] |369| 
         000014 2005 
     841 000016 0ACD          MOVA      r10,r13               ; [] |369| 
     842            $C$DW$78        .dwtag  DW_TAG_TI_branch
     843                    .dwattr $C$DW$78, DW_AT_low_pc(0x00)
MSP430 Assembler PC v4.2.1 Fri Mar 21 13:42:32 2014

Tools Copyright (c) 2003-2013 Texas Instruments Incorporated
C:\Users\409010~1\AppData\Local\Temp\0527610                         PAGE   18

     844                    .dwattr $C$DW$78, DW_AT_name("SimpleLinkWaitEvent")
     845                    .dwattr $C$DW$78, DW_AT_TI_call
     846 000018 13B0!         CALLA     #SimpleLinkWaitEvent  ; [] |369| 
         00001a 0000 
     847                                                      ; [] |369| 
     848 00001c 160A          POPM.A    #1,r10                ; [] 
     849                    .dwcfi  restore_reg, 10
     850                    .dwcfi  cfa_offset, 4
     851            $C$DW$79        .dwtag  DW_TAG_TI_branch
     852                    .dwattr $C$DW$79, DW_AT_low_pc(0x00)
     853                    .dwattr $C$DW$79, DW_AT_TI_return
     854 00001e 0110          RETA      ; [] 
     855                    ; [] 
     856                    .dwattr $C$DW$73, DW_AT_TI_end_file("C:/Users/409010855/Documents/GitHub/CHARM/Embedded_Voltme
     857                    .dwattr $C$DW$73, DW_AT_TI_end_line(0x173)
     858                    .dwattr $C$DW$73, DW_AT_TI_end_column(0x01)
     859                    .dwendentry
     860                    .dwendtag $C$DW$73
     861            
     862 000000               .sect   ".text:netapp_dhcp"
     863                    .align  2
     864                    .clink
     865                    .global netapp_dhcp
     866            
     867            $C$DW$80        .dwtag  DW_TAG_subprogram, DW_AT_name("netapp_dhcp")
     868                    .dwattr $C$DW$80, DW_AT_low_pc(netapp_dhcp)
     869                    .dwattr $C$DW$80, DW_AT_high_pc(0x00)
     870                    .dwattr $C$DW$80, DW_AT_TI_symbol_name("netapp_dhcp")
     871                    .dwattr $C$DW$80, DW_AT_external
     872                    .dwattr $C$DW$80, DW_AT_type(*$C$DW$T$32)
     873                    .dwattr $C$DW$80, DW_AT_TI_begin_file("C:/Users/409010855/Documents/GitHub/CHARM/Embedded_Volt
     874                    .dwattr $C$DW$80, DW_AT_TI_begin_line(0x64)
     875                    .dwattr $C$DW$80, DW_AT_TI_begin_column(0x07)
     876                    .dwattr $C$DW$80, DW_AT_TI_max_frame_size(0x0e)
     877                    .dwpsn  file "C:/Users/409010855/Documents/GitHub/CHARM/Embedded_Voltmeter/Basic WiFi Source/S
     878            
     879                    .dwfde $C$DW$CIE, netapp_dhcp
     880            $C$DW$81        .dwtag  DW_TAG_formal_parameter, DW_AT_name("aucIP")
     881                    .dwattr $C$DW$81, DW_AT_TI_symbol_name("aucIP")
     882                    .dwattr $C$DW$81, DW_AT_type(*$C$DW$T$26)
     883                    .dwattr $C$DW$81, DW_AT_location[DW_OP_reg12]
     884            $C$DW$82        .dwtag  DW_TAG_formal_parameter, DW_AT_name("aucSubnetMask")
     885                    .dwattr $C$DW$82, DW_AT_TI_symbol_name("aucSubnetMask")
     886                    .dwattr $C$DW$82, DW_AT_type(*$C$DW$T$26)
     887                    .dwattr $C$DW$82, DW_AT_location[DW_OP_reg13]
     888            $C$DW$83        .dwtag  DW_TAG_formal_parameter, DW_AT_name("aucDefaultGateway")
     889                    .dwattr $C$DW$83, DW_AT_TI_symbol_name("aucDefaultGateway")
     890                    .dwattr $C$DW$83, DW_AT_type(*$C$DW$T$26)
     891                    .dwattr $C$DW$83, DW_AT_location[DW_OP_reg14]
     892            $C$DW$84        .dwtag  DW_TAG_formal_parameter, DW_AT_name("aucDNSServer")
     893                    .dwattr $C$DW$84, DW_AT_TI_symbol_name("aucDNSServer")
     894                    .dwattr $C$DW$84, DW_AT_type(*$C$DW$T$26)
     895                    .dwattr $C$DW$84, DW_AT_location[DW_OP_reg15]
     896            
     897            ;*****************************************************************************
MSP430 Assembler PC v4.2.1 Fri Mar 21 13:42:32 2014

Tools Copyright (c) 2003-2013 Texas Instruments Incorporated
C:\Users\409010~1\AppData\Local\Temp\0527610                         PAGE   19

     898            ;* FUNCTION NAME: netapp_dhcp                                                *
     899            ;*                                                                           *
     900            ;*   Regs Modified     : SP,SR,r9,r10,r11,r12,r13,r14,r15                    *
     901            ;*   Regs Used         : SP,SR,r9,r10,r11,r12,r13,r14,r15                    *
     902            ;*   Local Frame Size  : 0 Args + 2 Auto + 8 Save = 10 byte                  *
     903            ;*****************************************************************************
     904            netapp_dhcp:
     905            ;* --------------------------------------------------------------------------*
     906            ;* r15   assigned to aucIP
     907            $C$DW$85        .dwtag  DW_TAG_variable, DW_AT_name("aucIP")
     908                    .dwattr $C$DW$85, DW_AT_TI_symbol_name("aucIP")
     909                    .dwattr $C$DW$85, DW_AT_type(*$C$DW$T$88)
     910                    .dwattr $C$DW$85, DW_AT_location[DW_OP_reg15]
     911            ;* r13   assigned to aucSubnetMask
     912            $C$DW$86        .dwtag  DW_TAG_variable, DW_AT_name("aucSubnetMask")
     913                    .dwattr $C$DW$86, DW_AT_TI_symbol_name("aucSubnetMask")
     914                    .dwattr $C$DW$86, DW_AT_type(*$C$DW$T$88)
     915                    .dwattr $C$DW$86, DW_AT_location[DW_OP_reg13]
     916            ;* r14   assigned to aucDefaultGateway
     917            $C$DW$87        .dwtag  DW_TAG_variable, DW_AT_name("aucDefaultGateway")
     918                    .dwattr $C$DW$87, DW_AT_TI_symbol_name("aucDefaultGateway")
     919                    .dwattr $C$DW$87, DW_AT_type(*$C$DW$T$88)
     920                    .dwattr $C$DW$87, DW_AT_location[DW_OP_reg14]
     921            ;* r10   assigned to aucDNSServer
     922            $C$DW$88        .dwtag  DW_TAG_variable, DW_AT_name("aucDNSServer")
     923                    .dwattr $C$DW$88, DW_AT_TI_symbol_name("aucDNSServer")
     924                    .dwattr $C$DW$88, DW_AT_type(*$C$DW$T$88)
     925                    .dwattr $C$DW$88, DW_AT_location[DW_OP_reg10]
     926            $C$DW$89        .dwtag  DW_TAG_variable, DW_AT_name("scRet")
     927                    .dwattr $C$DW$89, DW_AT_TI_symbol_name("scRet")
     928                    .dwattr $C$DW$89, DW_AT_type(*$C$DW$T$60)
     929                    .dwattr $C$DW$89, DW_AT_location[DW_OP_breg1 0]
     930            ;* r9    assigned to ptr
     931            $C$DW$90        .dwtag  DW_TAG_variable, DW_AT_name("ptr")
     932                    .dwattr $C$DW$90, DW_AT_TI_symbol_name("ptr")
     933                    .dwattr $C$DW$90, DW_AT_type(*$C$DW$T$21)
     934                    .dwattr $C$DW$90, DW_AT_location[DW_OP_reg9]
     935            ;* r12   assigned to args
     936            $C$DW$91        .dwtag  DW_TAG_variable, DW_AT_name("args")
     937                    .dwattr $C$DW$91, DW_AT_TI_symbol_name("args")
     938                    .dwattr $C$DW$91, DW_AT_type(*$C$DW$T$21)
     939                    .dwattr $C$DW$91, DW_AT_location[DW_OP_reg12]
     940            ;* r15   assigned to $O$L4
     941            ;* r15   assigned to $O$L3
     942            ;* r15   assigned to $O$L2
     943            ;* r11   assigned to $O$L1
     944            ;* r10   assigned to $O$U34
     945            ;* r14   assigned to $O$U28
     946            ;* r13   assigned to $O$U22
     947            ;* r15   assigned to $O$U12
     948                    .dwcfi  cfa_offset, 4
     949                    .dwcfi  save_reg_to_mem, 16, -4
     950 000000 141A          PUSHM.A   #2,r10                ; [] 
     951                    .dwcfi  save_reg_to_mem, 10, -8
     952                    .dwcfi  save_reg_to_mem, 9, -12
MSP430 Assembler PC v4.2.1 Fri Mar 21 13:42:32 2014

Tools Copyright (c) 2003-2013 Texas Instruments Incorporated
C:\Users\409010~1\AppData\Local\Temp\0527610                         PAGE   20

     953                    .dwcfi  cfa_offset, 12
     954 000002 8321          SUB.W     #2,SP                 ; [] 
     955                    .dwcfi  cfa_offset, 14
     956 000004 0FCA          MOVA      r15,r10               ; [] |101| 
     957 000006 0CCF          MOVA      r12,r15               ; [] |101| 
     958                    .dwpsn  file "C:/Users/409010855/Documents/GitHub/CHARM/Embedded_Voltmeter/Basic WiFi Source/S
     959 000008 43F1          MOV.B     #-1,0(SP)             ; [] |106| 
         00000a 0000 
     960                    .dwpsn  file "C:/Users/409010855/Documents/GitHub/CHARM/Embedded_Voltmeter/Basic WiFi Source/S
     961 00000c 4219          MOV.W     &tSLInformation+6,r9  ; [] |107| 
         00000e 0006!
     962                    .dwpsn  file "C:/Users/409010855/Documents/GitHub/CHARM/Embedded_Voltmeter/Basic WiFi Source/S
     963 000010 403C          MOV.W     #9,r12                ; [] |108| 
         000012 0009 
     964 000014 590C          ADD.W     r9,r12                ; [] |108| 
     965                    .dwpsn  file "C:/Users/409010855/Documents/GitHub/CHARM/Embedded_Voltmeter/Basic WiFi Source/S
     966 000016 422B          MOV.W     #4,r11                ; [] |111| 
     967            ;* --------------------------------------------------------------------------*
     968            ;*   BEGIN LOOP $C$L9
     969            ;*
     970            ;*   Loop source line                : 111
     971            ;*   Loop closing brace source line  : 111
     972            ;*   Known Minimum Trip Count        : 4
     973            ;*   Known Maximum Trip Count        : 4
     974            ;*   Known Max Trip Count Factor     : 4
     975            ;* --------------------------------------------------------------------------*
     976 000018       $C$L9:    
     977 000018 531C          ADD.W     #1,r12                ; [] |111| 
     978 00001a 4FFC          MOV.B     @r15+,-1(r12)         ; [] |111| 
         00001c FFFF 
     979 00001e 831B          SUB.W     #1,r11                ; [] |111| 
     980 000020 23FB          JNE       $C$L9                 ; [] |111| 
     981                                                      ; [] |111| 
     982            ;* --------------------------------------------------------------------------*
     983                    .dwpsn  file "C:/Users/409010855/Documents/GitHub/CHARM/Embedded_Voltmeter/Basic WiFi Source/S
     984 000022 422F          MOV.W     #4,r15                ; [] |112| 
     985            ;* --------------------------------------------------------------------------*
     986            ;*   BEGIN LOOP $C$L10
     987            ;*
     988            ;*   Loop source line                : 112
     989            ;*   Loop closing brace source line  : 112
     990            ;*   Known Minimum Trip Count        : 4
     991            ;*   Known Maximum Trip Count        : 4
     992            ;*   Known Max Trip Count Factor     : 4
     993            ;* --------------------------------------------------------------------------*
     994 000024       $C$L10:    
     995 000024 531C          ADD.W     #1,r12                ; [] |112| 
     996 000026 4DFC          MOV.B     @r13+,-1(r12)         ; [] |112| 
         000028 FFFF 
     997 00002a 831F          SUB.W     #1,r15                ; [] |112| 
     998 00002c 23FB          JNE       $C$L10                ; [] |112| 
     999                                                      ; [] |112| 
    1000            ;* --------------------------------------------------------------------------*
    1001                    .dwpsn  file "C:/Users/409010855/Documents/GitHub/CHARM/Embedded_Voltmeter/Basic WiFi Source/S
    1002 00002e 422F          MOV.W     #4,r15                ; [] |113| 
MSP430 Assembler PC v4.2.1 Fri Mar 21 13:42:32 2014

Tools Copyright (c) 2003-2013 Texas Instruments Incorporated
C:\Users\409010~1\AppData\Local\Temp\0527610                         PAGE   21

    1003            ;* --------------------------------------------------------------------------*
    1004            ;*   BEGIN LOOP $C$L11
    1005            ;*
    1006            ;*   Loop source line                : 113
    1007            ;*   Loop closing brace source line  : 113
    1008            ;*   Known Minimum Trip Count        : 4
    1009            ;*   Known Maximum Trip Count        : 4
    1010            ;*   Known Max Trip Count Factor     : 4
    1011            ;* --------------------------------------------------------------------------*
    1012 000030       $C$L11:    
    1013 000030 531C          ADD.W     #1,r12                ; [] |113| 
    1014 000032 4EFC          MOV.B     @r14+,-1(r12)         ; [] |113| 
         000034 FFFF 
    1015 000036 831F          SUB.W     #1,r15                ; [] |113| 
    1016 000038 23FB          JNE       $C$L11                ; [] |113| 
    1017                                                      ; [] |113| 
    1018            ;* --------------------------------------------------------------------------*
    1019                    .dwpsn  file "C:/Users/409010855/Documents/GitHub/CHARM/Embedded_Voltmeter/Basic WiFi Source/S
    1020 00003a 430D          MOV.W     #0,r13                ; [] |114| 
    1021 00003c 430E          MOV.W     #0,r14                ; [] |114| 
    1022            $C$DW$92        .dwtag  DW_TAG_TI_branch
    1023                    .dwattr $C$DW$92, DW_AT_low_pc(0x00)
    1024                    .dwattr $C$DW$92, DW_AT_name("UINT32_TO_STREAM_f")
    1025                    .dwattr $C$DW$92, DW_AT_TI_call
    1026 00003e 13B0!         CALLA     #UINT32_TO_STREAM_f   ; [] |114| 
         000040 0000 
    1027                                                      ; [] |114| 
    1028                    .dwpsn  file "C:/Users/409010855/Documents/GitHub/CHARM/Embedded_Voltmeter/Basic WiFi Source/S
    1029 000042 422F          MOV.W     #4,r15                ; [] |115| 
    1030            ;* --------------------------------------------------------------------------*
    1031            ;*   BEGIN LOOP $C$L12
    1032            ;*
    1033            ;*   Loop source line                : 115
    1034            ;*   Loop closing brace source line  : 115
    1035            ;*   Known Minimum Trip Count        : 4
    1036            ;*   Known Maximum Trip Count        : 4
    1037            ;*   Known Max Trip Count Factor     : 4
    1038            ;* --------------------------------------------------------------------------*
    1039 000044       $C$L12:    
    1040 000044 531C          ADD.W     #1,r12                ; [] |115| 
    1041 000046 4AFC          MOV.B     @r10+,-1(r12)         ; [] |115| 
         000048 FFFF 
    1042 00004a 831F          SUB.W     #1,r15                ; [] |115| 
    1043 00004c 23FB          JNE       $C$L12                ; [] |115| 
    1044                                                      ; [] |115| 
    1045            ;* --------------------------------------------------------------------------*
    1046                    .dwpsn  file "C:/Users/409010855/Documents/GitHub/CHARM/Embedded_Voltmeter/Basic WiFi Source/S
    1047 00004e 403C          MOV.W     #8193,r12             ; [] |118| 
         000050 2001 
    1048 000052 09CD          MOVA      r9,r13                ; [] |118| 
    1049 000054 407E          MOV.B     #20,r14               ; [] |118| 
         000056 0014 
    1050            $C$DW$93        .dwtag  DW_TAG_TI_branch
    1051                    .dwattr $C$DW$93, DW_AT_low_pc(0x00)
    1052                    .dwattr $C$DW$93, DW_AT_name("hci_command_send")
MSP430 Assembler PC v4.2.1 Fri Mar 21 13:42:32 2014

Tools Copyright (c) 2003-2013 Texas Instruments Incorporated
C:\Users\409010~1\AppData\Local\Temp\0527610                         PAGE   22

    1053                    .dwattr $C$DW$93, DW_AT_TI_call
    1054 000058 13B0!         CALLA     #hci_command_send     ; [] |118| 
         00005a 0000 
    1055                                                      ; [] |118| 
    1056                    .dwpsn  file "C:/Users/409010855/Documents/GitHub/CHARM/Embedded_Voltmeter/Basic WiFi Source/S
    1057 00005c 403C          MOV.W     #8193,r12             ; [] |121| 
         00005e 2001 
    1058 000060 01CD          MOVA      SP,r13                ; [] |121| 
    1059            $C$DW$94        .dwtag  DW_TAG_TI_branch
    1060                    .dwattr $C$DW$94, DW_AT_low_pc(0x00)
    1061                    .dwattr $C$DW$94, DW_AT_name("SimpleLinkWaitEvent")
    1062                    .dwattr $C$DW$94, DW_AT_TI_call
    1063 000062 13B0!         CALLA     #SimpleLinkWaitEvent  ; [] |121| 
         000064 0000 
    1064                                                      ; [] |121| 
    1065                    .dwpsn  file "C:/Users/409010855/Documents/GitHub/CHARM/Embedded_Voltmeter/Basic WiFi Source/S
    1066 000066 416C          MOV.B     0(SP),r12             ; [] |123| 
    1067 000068 118C          SXT       r12                   ; [] |123| 
    1068 00006a B03C          BIT.W     #32768,r12            ; [] |123| 
         00006c 8000 
    1069 00006e 7D0D          SUBC.W    r13,r13               ; [] |123| 
    1070 000070 E33D          INV.W     r13                   ; [] |123| 
    1071 000072 5321          ADD.W     #2,SP                 ; [] 
    1072                    .dwcfi  cfa_offset, 12
    1073 000074 1619          POPM.A    #2,r10                ; [] 
    1074                    .dwcfi  restore_reg, 9
    1075                    .dwcfi  restore_reg, 10
    1076                    .dwcfi  cfa_offset, 4
    1077            $C$DW$95        .dwtag  DW_TAG_TI_branch
    1078                    .dwattr $C$DW$95, DW_AT_low_pc(0x00)
    1079                    .dwattr $C$DW$95, DW_AT_TI_return
    1080 000076 0110          RETA      ; [] 
    1081                    ; [] 
    1082                    .dwattr $C$DW$80, DW_AT_TI_end_file("C:/Users/409010855/Documents/GitHub/CHARM/Embedded_Voltme
    1083                    .dwattr $C$DW$80, DW_AT_TI_end_line(0x7c)
    1084                    .dwattr $C$DW$80, DW_AT_TI_end_column(0x01)
    1085                    .dwendentry
    1086                    .dwendtag $C$DW$80
    1087            
    1088 000000               .sect   ".text:netapp_config_mac_adrress"
    1089                    .align  2
    1090                    .clink
    1091                    .global netapp_config_mac_adrress
    1092            
    1093            $C$DW$96        .dwtag  DW_TAG_subprogram, DW_AT_name("netapp_config_mac_adrress")
    1094                    .dwattr $C$DW$96, DW_AT_low_pc(netapp_config_mac_adrress)
    1095                    .dwattr $C$DW$96, DW_AT_high_pc(0x00)
    1096                    .dwattr $C$DW$96, DW_AT_TI_symbol_name("netapp_config_mac_adrress")
    1097                    .dwattr $C$DW$96, DW_AT_external
    1098                    .dwattr $C$DW$96, DW_AT_type(*$C$DW$T$32)
    1099                    .dwattr $C$DW$96, DW_AT_TI_begin_file("C:/Users/409010855/Documents/GitHub/CHARM/Embedded_Volt
    1100                    .dwattr $C$DW$96, DW_AT_TI_begin_line(0x45)
    1101                    .dwattr $C$DW$96, DW_AT_TI_begin_column(0x07)
    1102                    .dwattr $C$DW$96, DW_AT_TI_max_frame_size(0x04)
    1103                    .dwpsn  file "C:/Users/409010855/Documents/GitHub/CHARM/Embedded_Voltmeter/Basic WiFi Source/S
MSP430 Assembler PC v4.2.1 Fri Mar 21 13:42:32 2014

Tools Copyright (c) 2003-2013 Texas Instruments Incorporated
C:\Users\409010~1\AppData\Local\Temp\0527610                         PAGE   23

    1104            
    1105                    .dwfde $C$DW$CIE, netapp_config_mac_adrress
    1106            $C$DW$97        .dwtag  DW_TAG_formal_parameter, DW_AT_name("mac")
    1107                    .dwattr $C$DW$97, DW_AT_TI_symbol_name("mac")
    1108                    .dwattr $C$DW$97, DW_AT_type(*$C$DW$T$21)
    1109                    .dwattr $C$DW$97, DW_AT_location[DW_OP_reg12]
    1110            
    1111            ;*****************************************************************************
    1112            ;* FUNCTION NAME: netapp_config_mac_adrress                                  *
    1113            ;*                                                                           *
    1114            ;*   Regs Modified     : SP,SR,r11,r12,r13,r14,r15                           *
    1115            ;*   Regs Used         : SP,SR,r11,r12,r13,r14,r15                           *
    1116            ;*   Local Frame Size  : 0 Args + 0 Auto + 0 Save = 0 byte                   *
    1117            ;*****************************************************************************
    1118            netapp_config_mac_adrress:
    1119            ;* --------------------------------------------------------------------------*
    1120            ;* r15   assigned to mac
    1121            $C$DW$98        .dwtag  DW_TAG_variable, DW_AT_name("mac")
    1122                    .dwattr $C$DW$98, DW_AT_TI_symbol_name("mac")
    1123                    .dwattr $C$DW$98, DW_AT_type(*$C$DW$T$63)
    1124                    .dwattr $C$DW$98, DW_AT_location[DW_OP_reg15]
    1125                    .dwcfi  cfa_offset, 4
    1126                    .dwcfi  save_reg_to_mem, 16, -4
    1127                    .dwpsn  file "C:/Users/409010855/Documents/GitHub/CHARM/Embedded_Voltmeter/Basic WiFi Source/S
    1128            $C$DW$99        .dwtag  DW_TAG_TI_branch
    1129                    .dwattr $C$DW$99, DW_AT_low_pc(0x00)
    1130                    .dwattr $C$DW$99, DW_AT_name("nvmem_set_mac_address")
    1131                    .dwattr $C$DW$99, DW_AT_TI_call
    1132 000000 13B0!         CALLA     #nvmem_set_mac_address ; [] |71| 
         000002 0000 
    1133                                                      ; [] |71| 
    1134 000004 4C4C          MOV.B     r12,r12               ; [] |71| 
    1135 000006 430D          MOV.W     #0,r13                ; [] |71| 
    1136            $C$DW$100       .dwtag  DW_TAG_TI_branch
    1137                    .dwattr $C$DW$100, DW_AT_low_pc(0x00)
    1138                    .dwattr $C$DW$100, DW_AT_TI_return
    1139 000008 0110          RETA      ; [] 
    1140                    ; [] 
    1141                    .dwattr $C$DW$96, DW_AT_TI_end_file("C:/Users/409010855/Documents/GitHub/CHARM/Embedded_Voltme
    1142                    .dwattr $C$DW$96, DW_AT_TI_end_line(0x48)
    1143                    .dwattr $C$DW$96, DW_AT_TI_end_column(0x01)
    1144                    .dwendentry
    1145                    .dwendtag $C$DW$96
    1146            
    1147 000000               .sect   ".text:netapp_arp_flush"
    1148                    .align  2
    1149                    .clink
    1150                    .global netapp_arp_flush
    1151            
    1152            $C$DW$101       .dwtag  DW_TAG_subprogram, DW_AT_name("netapp_arp_flush")
    1153                    .dwattr $C$DW$101, DW_AT_low_pc(netapp_arp_flush)
    1154                    .dwattr $C$DW$101, DW_AT_high_pc(0x00)
    1155                    .dwattr $C$DW$101, DW_AT_TI_symbol_name("netapp_arp_flush")
    1156                    .dwattr $C$DW$101, DW_AT_external
    1157                    .dwattr $C$DW$101, DW_AT_type(*$C$DW$T$32)
MSP430 Assembler PC v4.2.1 Fri Mar 21 13:42:32 2014

Tools Copyright (c) 2003-2013 Texas Instruments Incorporated
C:\Users\409010~1\AppData\Local\Temp\0527610                         PAGE   24

    1158                    .dwattr $C$DW$101, DW_AT_TI_begin_file("C:/Users/409010855/Documents/GitHub/CHARM/Embedded_Vol
    1159                    .dwattr $C$DW$101, DW_AT_TI_begin_line(0x188)
    1160                    .dwattr $C$DW$101, DW_AT_TI_begin_column(0x07)
    1161                    .dwattr $C$DW$101, DW_AT_TI_max_frame_size(0x06)
    1162                    .dwpsn  file "C:/Users/409010855/Documents/GitHub/CHARM/Embedded_Voltmeter/Basic WiFi Source/S
    1163            
    1164                    .dwfde $C$DW$CIE, netapp_arp_flush
    1165            
    1166            ;*****************************************************************************
    1167            ;* FUNCTION NAME: netapp_arp_flush                                           *
    1168            ;*                                                                           *
    1169            ;*   Regs Modified     : SP,SR,r11,r12,r13,r14,r15                           *
    1170            ;*   Regs Used         : SP,SR,r11,r12,r13,r14,r15                           *
    1171            ;*   Local Frame Size  : 0 Args + 2 Auto + 0 Save = 2 byte                   *
    1172            ;*****************************************************************************
    1173            netapp_arp_flush:
    1174            ;* --------------------------------------------------------------------------*
    1175            $C$DW$102       .dwtag  DW_TAG_variable, DW_AT_name("scRet")
    1176                    .dwattr $C$DW$102, DW_AT_TI_symbol_name("scRet")
    1177                    .dwattr $C$DW$102, DW_AT_type(*$C$DW$T$60)
    1178                    .dwattr $C$DW$102, DW_AT_location[DW_OP_breg1 0]
    1179            ;* r13   assigned to ptr
    1180            $C$DW$103       .dwtag  DW_TAG_variable, DW_AT_name("ptr")
    1181                    .dwattr $C$DW$103, DW_AT_TI_symbol_name("ptr")
    1182                    .dwattr $C$DW$103, DW_AT_type(*$C$DW$T$21)
    1183                    .dwattr $C$DW$103, DW_AT_location[DW_OP_reg13]
    1184                    .dwcfi  cfa_offset, 4
    1185                    .dwcfi  save_reg_to_mem, 16, -4
    1186 000000 8321          SUB.W     #2,SP                 ; [] 
    1187                    .dwcfi  cfa_offset, 6
    1188                    .dwpsn  file "C:/Users/409010855/Documents/GitHub/CHARM/Embedded_Voltmeter/Basic WiFi Source/S
    1189 000002 43F1          MOV.B     #-1,0(SP)             ; [] |397| 
         000004 0000 
    1190                    .dwpsn  file "C:/Users/409010855/Documents/GitHub/CHARM/Embedded_Voltmeter/Basic WiFi Source/S
    1191 000006 421D          MOV.W     &tSLInformation+6,r13 ; [] |398| 
         000008 0006!
    1192                    .dwpsn  file "C:/Users/409010855/Documents/GitHub/CHARM/Embedded_Voltmeter/Basic WiFi Source/S
    1193 00000a 403C          MOV.W     #8198,r12             ; [] |401| 
         00000c 2006 
    1194 00000e 434E          MOV.B     #0,r14                ; [] |401| 
    1195            $C$DW$104       .dwtag  DW_TAG_TI_branch
    1196                    .dwattr $C$DW$104, DW_AT_low_pc(0x00)
    1197                    .dwattr $C$DW$104, DW_AT_name("hci_command_send")
    1198                    .dwattr $C$DW$104, DW_AT_TI_call
    1199 000010 13B0!         CALLA     #hci_command_send     ; [] |401| 
         000012 0000 
    1200                                                      ; [] |401| 
    1201                    .dwpsn  file "C:/Users/409010855/Documents/GitHub/CHARM/Embedded_Voltmeter/Basic WiFi Source/S
    1202 000014 403C          MOV.W     #8198,r12             ; [] |404| 
         000016 2006 
    1203 000018 01CD          MOVA      SP,r13                ; [] |404| 
    1204            $C$DW$105       .dwtag  DW_TAG_TI_branch
    1205                    .dwattr $C$DW$105, DW_AT_low_pc(0x00)
    1206                    .dwattr $C$DW$105, DW_AT_name("SimpleLinkWaitEvent")
    1207                    .dwattr $C$DW$105, DW_AT_TI_call
MSP430 Assembler PC v4.2.1 Fri Mar 21 13:42:32 2014

Tools Copyright (c) 2003-2013 Texas Instruments Incorporated
C:\Users\409010~1\AppData\Local\Temp\0527610                         PAGE   25

    1208 00001a 13B0!         CALLA     #SimpleLinkWaitEvent  ; [] |404| 
         00001c 0000 
    1209                                                      ; [] |404| 
    1210                    .dwpsn  file "C:/Users/409010855/Documents/GitHub/CHARM/Embedded_Voltmeter/Basic WiFi Source/S
    1211 00001e 416C          MOV.B     0(SP),r12             ; [] |406| 
    1212 000020 118C          SXT       r12                   ; [] |406| 
    1213 000022 B03C          BIT.W     #32768,r12            ; [] |406| 
         000024 8000 
    1214 000026 7D0D          SUBC.W    r13,r13               ; [] |406| 
    1215 000028 E33D          INV.W     r13                   ; [] |406| 
    1216 00002a 5321          ADD.W     #2,SP                 ; [] 
    1217                    .dwcfi  cfa_offset, 4
    1218            $C$DW$106       .dwtag  DW_TAG_TI_branch
    1219                    .dwattr $C$DW$106, DW_AT_low_pc(0x00)
    1220                    .dwattr $C$DW$106, DW_AT_TI_return
    1221 00002c 0110          RETA      ; [] 
    1222                    ; [] 
    1223                    .dwattr $C$DW$101, DW_AT_TI_end_file("C:/Users/409010855/Documents/GitHub/CHARM/Embedded_Voltm
    1224                    .dwattr $C$DW$101, DW_AT_TI_end_line(0x197)
    1225                    .dwattr $C$DW$101, DW_AT_TI_end_column(0x01)
    1226                    .dwendentry
    1227                    .dwendtag $C$DW$101
    1228            
    1229            ;*****************************************************************************
    1230            ;* UNDEFINED EXTERNAL REFERENCES                                             *
    1231            ;*****************************************************************************
    1232                    .global SimpleLinkWaitEvent
    1233                    .global UINT32_TO_STREAM_f
    1234                    .global hci_command_send
    1235                    .global nvmem_set_mac_address
    1236                    .global tSLInformation
    1237            
    1238            ;******************************************************************************
    1239            ;* BUILD ATTRIBUTES                                                           *
    1240            ;******************************************************************************
    1241                    .battr "TI", Tag_File, 1, Tag_ABI_enum_size(3)
    1242            
    1243            ;******************************************************************************
    1244            ;* TYPE INFORMATION                                                           *
    1245            ;******************************************************************************
    1246            
    1247            $C$DW$T$46      .dwtag  DW_TAG_structure_type
    1248                    .dwattr $C$DW$T$46, DW_AT_byte_size(0x3e)
    1249            $C$DW$107       .dwtag  DW_TAG_member
    1250                    .dwattr $C$DW$107, DW_AT_type(*$C$DW$T$19)
    1251                    .dwattr $C$DW$107, DW_AT_name("usRxEventOpcode")
    1252                    .dwattr $C$DW$107, DW_AT_TI_symbol_name("usRxEventOpcode")
    1253                    .dwattr $C$DW$107, DW_AT_data_member_location[DW_OP_plus_uconst 0x0]
    1254                    .dwattr $C$DW$107, DW_AT_accessibility(DW_ACCESS_public)
    1255            $C$DW$108       .dwtag  DW_TAG_member
    1256                    .dwattr $C$DW$108, DW_AT_type(*$C$DW$T$19)
    1257                    .dwattr $C$DW$108, DW_AT_name("usEventOrDataReceived")
    1258                    .dwattr $C$DW$108, DW_AT_TI_symbol_name("usEventOrDataReceived")
    1259                    .dwattr $C$DW$108, DW_AT_data_member_location[DW_OP_plus_uconst 0x2]
    1260                    .dwattr $C$DW$108, DW_AT_accessibility(DW_ACCESS_public)
MSP430 Assembler PC v4.2.1 Fri Mar 21 13:42:32 2014

Tools Copyright (c) 2003-2013 Texas Instruments Incorporated
C:\Users\409010~1\AppData\Local\Temp\0527610                         PAGE   26

    1261            $C$DW$109       .dwtag  DW_TAG_member
    1262                    .dwattr $C$DW$109, DW_AT_type(*$C$DW$T$21)
    1263                    .dwattr $C$DW$109, DW_AT_name("pucReceivedData")
    1264                    .dwattr $C$DW$109, DW_AT_TI_symbol_name("pucReceivedData")
    1265                    .dwattr $C$DW$109, DW_AT_data_member_location[DW_OP_plus_uconst 0x4]
    1266                    .dwattr $C$DW$109, DW_AT_accessibility(DW_ACCESS_public)
    1267            $C$DW$110       .dwtag  DW_TAG_member
    1268                    .dwattr $C$DW$110, DW_AT_type(*$C$DW$T$21)
    1269                    .dwattr $C$DW$110, DW_AT_name("pucTxCommandBuffer")
    1270                    .dwattr $C$DW$110, DW_AT_TI_symbol_name("pucTxCommandBuffer")
    1271                    .dwattr $C$DW$110, DW_AT_data_member_location[DW_OP_plus_uconst 0x6]
    1272                    .dwattr $C$DW$110, DW_AT_accessibility(DW_ACCESS_public)
    1273            $C$DW$111       .dwtag  DW_TAG_member
    1274                    .dwattr $C$DW$111, DW_AT_type(*$C$DW$T$29)
    1275                    .dwattr $C$DW$111, DW_AT_name("sFWPatches")
    1276                    .dwattr $C$DW$111, DW_AT_TI_symbol_name("sFWPatches")
    1277                    .dwattr $C$DW$111, DW_AT_data_member_location[DW_OP_plus_uconst 0x8]
    1278                    .dwattr $C$DW$111, DW_AT_accessibility(DW_ACCESS_public)
    1279            $C$DW$112       .dwtag  DW_TAG_member
    1280                    .dwattr $C$DW$112, DW_AT_type(*$C$DW$T$30)
    1281                    .dwattr $C$DW$112, DW_AT_name("sDriverPatches")
    1282                    .dwattr $C$DW$112, DW_AT_TI_symbol_name("sDriverPatches")
    1283                    .dwattr $C$DW$112, DW_AT_data_member_location[DW_OP_plus_uconst 0xc]
    1284                    .dwattr $C$DW$112, DW_AT_accessibility(DW_ACCESS_public)
    1285            $C$DW$113       .dwtag  DW_TAG_member
    1286                    .dwattr $C$DW$113, DW_AT_type(*$C$DW$T$31)
    1287                    .dwattr $C$DW$113, DW_AT_name("sBootLoaderPatches")
    1288                    .dwattr $C$DW$113, DW_AT_TI_symbol_name("sBootLoaderPatches")
    1289                    .dwattr $C$DW$113, DW_AT_data_member_location[DW_OP_plus_uconst 0x10]
    1290                    .dwattr $C$DW$113, DW_AT_accessibility(DW_ACCESS_public)
    1291            $C$DW$114       .dwtag  DW_TAG_member
    1292                    .dwattr $C$DW$114, DW_AT_type(*$C$DW$T$35)
    1293                    .dwattr $C$DW$114, DW_AT_name("sWlanCB")
    1294                    .dwattr $C$DW$114, DW_AT_TI_symbol_name("sWlanCB")
    1295                    .dwattr $C$DW$114, DW_AT_data_member_location[DW_OP_plus_uconst 0x14]
    1296                    .dwattr $C$DW$114, DW_AT_accessibility(DW_ACCESS_public)
    1297            $C$DW$115       .dwtag  DW_TAG_member
    1298                    .dwattr $C$DW$115, DW_AT_type(*$C$DW$T$38)
    1299                    .dwattr $C$DW$115, DW_AT_name("ReadWlanInterruptPin")
    1300                    .dwattr $C$DW$115, DW_AT_TI_symbol_name("ReadWlanInterruptPin")
    1301                    .dwattr $C$DW$115, DW_AT_data_member_location[DW_OP_plus_uconst 0x18]
    1302                    .dwattr $C$DW$115, DW_AT_accessibility(DW_ACCESS_public)
    1303            $C$DW$116       .dwtag  DW_TAG_member
    1304                    .dwattr $C$DW$116, DW_AT_type(*$C$DW$T$41)
    1305                    .dwattr $C$DW$116, DW_AT_name("WlanInterruptEnable")
    1306                    .dwattr $C$DW$116, DW_AT_TI_symbol_name("WlanInterruptEnable")
    1307                    .dwattr $C$DW$116, DW_AT_data_member_location[DW_OP_plus_uconst 0x1c]
    1308                    .dwattr $C$DW$116, DW_AT_accessibility(DW_ACCESS_public)
    1309            $C$DW$117       .dwtag  DW_TAG_member
    1310                    .dwattr $C$DW$117, DW_AT_type(*$C$DW$T$42)
    1311                    .dwattr $C$DW$117, DW_AT_name("WlanInterruptDisable")
    1312                    .dwattr $C$DW$117, DW_AT_TI_symbol_name("WlanInterruptDisable")
    1313                    .dwattr $C$DW$117, DW_AT_data_member_location[DW_OP_plus_uconst 0x20]
    1314                    .dwattr $C$DW$117, DW_AT_accessibility(DW_ACCESS_public)
    1315            $C$DW$118       .dwtag  DW_TAG_member
MSP430 Assembler PC v4.2.1 Fri Mar 21 13:42:32 2014

Tools Copyright (c) 2003-2013 Texas Instruments Incorporated
C:\Users\409010~1\AppData\Local\Temp\0527610                         PAGE   27

    1316                    .dwattr $C$DW$118, DW_AT_type(*$C$DW$T$45)
    1317                    .dwattr $C$DW$118, DW_AT_name("WriteWlanPin")
    1318                    .dwattr $C$DW$118, DW_AT_TI_symbol_name("WriteWlanPin")
    1319                    .dwattr $C$DW$118, DW_AT_data_member_location[DW_OP_plus_uconst 0x24]
    1320                    .dwattr $C$DW$118, DW_AT_accessibility(DW_ACCESS_public)
    1321            $C$DW$119       .dwtag  DW_TAG_member
    1322                    .dwattr $C$DW$119, DW_AT_type(*$C$DW$T$32)
    1323                    .dwattr $C$DW$119, DW_AT_name("slTransmitDataError")
    1324                    .dwattr $C$DW$119, DW_AT_TI_symbol_name("slTransmitDataError")
    1325                    .dwattr $C$DW$119, DW_AT_data_member_location[DW_OP_plus_uconst 0x28]
    1326                    .dwattr $C$DW$119, DW_AT_accessibility(DW_ACCESS_public)
    1327            $C$DW$120       .dwtag  DW_TAG_member
    1328                    .dwattr $C$DW$120, DW_AT_type(*$C$DW$T$19)
    1329                    .dwattr $C$DW$120, DW_AT_name("usNumberOfFreeBuffers")
    1330                    .dwattr $C$DW$120, DW_AT_TI_symbol_name("usNumberOfFreeBuffers")
    1331                    .dwattr $C$DW$120, DW_AT_data_member_location[DW_OP_plus_uconst 0x2c]
    1332                    .dwattr $C$DW$120, DW_AT_accessibility(DW_ACCESS_public)
    1333            $C$DW$121       .dwtag  DW_TAG_member
    1334                    .dwattr $C$DW$121, DW_AT_type(*$C$DW$T$19)
    1335                    .dwattr $C$DW$121, DW_AT_name("usSlBufferLength")
    1336                    .dwattr $C$DW$121, DW_AT_TI_symbol_name("usSlBufferLength")
    1337                    .dwattr $C$DW$121, DW_AT_data_member_location[DW_OP_plus_uconst 0x2e]
    1338                    .dwattr $C$DW$121, DW_AT_accessibility(DW_ACCESS_public)
    1339            $C$DW$122       .dwtag  DW_TAG_member
    1340                    .dwattr $C$DW$122, DW_AT_type(*$C$DW$T$19)
    1341                    .dwattr $C$DW$122, DW_AT_name("usBufferSize")
    1342                    .dwattr $C$DW$122, DW_AT_TI_symbol_name("usBufferSize")
    1343                    .dwattr $C$DW$122, DW_AT_data_member_location[DW_OP_plus_uconst 0x30]
    1344                    .dwattr $C$DW$122, DW_AT_accessibility(DW_ACCESS_public)
    1345            $C$DW$123       .dwtag  DW_TAG_member
    1346                    .dwattr $C$DW$123, DW_AT_type(*$C$DW$T$19)
    1347                    .dwattr $C$DW$123, DW_AT_name("usRxDataPending")
    1348                    .dwattr $C$DW$123, DW_AT_TI_symbol_name("usRxDataPending")
    1349                    .dwattr $C$DW$123, DW_AT_data_member_location[DW_OP_plus_uconst 0x32]
    1350                    .dwattr $C$DW$123, DW_AT_accessibility(DW_ACCESS_public)
    1351            $C$DW$124       .dwtag  DW_TAG_member
    1352                    .dwattr $C$DW$124, DW_AT_type(*$C$DW$T$25)
    1353                    .dwattr $C$DW$124, DW_AT_name("NumberOfSentPackets")
    1354                    .dwattr $C$DW$124, DW_AT_TI_symbol_name("NumberOfSentPackets")
    1355                    .dwattr $C$DW$124, DW_AT_data_member_location[DW_OP_plus_uconst 0x34]
    1356                    .dwattr $C$DW$124, DW_AT_accessibility(DW_ACCESS_public)
    1357            $C$DW$125       .dwtag  DW_TAG_member
    1358                    .dwattr $C$DW$125, DW_AT_type(*$C$DW$T$25)
    1359                    .dwattr $C$DW$125, DW_AT_name("NumberOfReleasedPackets")
    1360                    .dwattr $C$DW$125, DW_AT_TI_symbol_name("NumberOfReleasedPackets")
    1361                    .dwattr $C$DW$125, DW_AT_data_member_location[DW_OP_plus_uconst 0x38]
    1362                    .dwattr $C$DW$125, DW_AT_accessibility(DW_ACCESS_public)
    1363            $C$DW$126       .dwtag  DW_TAG_member
    1364                    .dwattr $C$DW$126, DW_AT_type(*$C$DW$T$20)
    1365                    .dwattr $C$DW$126, DW_AT_name("InformHostOnTxComplete")
    1366                    .dwattr $C$DW$126, DW_AT_TI_symbol_name("InformHostOnTxComplete")
    1367                    .dwattr $C$DW$126, DW_AT_data_member_location[DW_OP_plus_uconst 0x3c]
    1368                    .dwattr $C$DW$126, DW_AT_accessibility(DW_ACCESS_public)
    1369                    .dwendtag $C$DW$T$46
    1370            
MSP430 Assembler PC v4.2.1 Fri Mar 21 13:42:32 2014

Tools Copyright (c) 2003-2013 Texas Instruments Incorporated
C:\Users\409010~1\AppData\Local\Temp\0527610                         PAGE   28

    1371            $C$DW$T$52      .dwtag  DW_TAG_typedef, DW_AT_name("sSimplLinkInformation")
    1372                    .dwattr $C$DW$T$52, DW_AT_type(*$C$DW$T$46)
    1373                    .dwattr $C$DW$T$52, DW_AT_language(DW_LANG_C)
    1374            $C$DW$T$53      .dwtag  DW_TAG_volatile_type
    1375                    .dwattr $C$DW$T$53, DW_AT_type(*$C$DW$T$52)
    1376            $C$DW$T$3       .dwtag  DW_TAG_pointer_type
    1377                    .dwattr $C$DW$T$3, DW_AT_address_class(0x10)
    1378            
    1379            $C$DW$T$33      .dwtag  DW_TAG_subroutine_type
    1380                    .dwattr $C$DW$T$33, DW_AT_language(DW_LANG_C)
    1381            $C$DW$127       .dwtag  DW_TAG_formal_parameter
    1382                    .dwattr $C$DW$127, DW_AT_type(*$C$DW$T$32)
    1383            $C$DW$128       .dwtag  DW_TAG_formal_parameter
    1384                    .dwattr $C$DW$128, DW_AT_type(*$C$DW$T$24)
    1385            $C$DW$129       .dwtag  DW_TAG_formal_parameter
    1386                    .dwattr $C$DW$129, DW_AT_type(*$C$DW$T$20)
    1387                    .dwendtag $C$DW$T$33
    1388            
    1389            $C$DW$T$34      .dwtag  DW_TAG_pointer_type
    1390                    .dwattr $C$DW$T$34, DW_AT_type(*$C$DW$T$33)
    1391                    .dwattr $C$DW$T$34, DW_AT_address_class(0x14)
    1392            $C$DW$T$35      .dwtag  DW_TAG_typedef, DW_AT_name("tWlanCB")
    1393                    .dwattr $C$DW$T$35, DW_AT_type(*$C$DW$T$34)
    1394                    .dwattr $C$DW$T$35, DW_AT_language(DW_LANG_C)
    1395            
    1396            $C$DW$T$39      .dwtag  DW_TAG_subroutine_type
    1397                    .dwattr $C$DW$T$39, DW_AT_language(DW_LANG_C)
    1398            $C$DW$T$40      .dwtag  DW_TAG_pointer_type
    1399                    .dwattr $C$DW$T$40, DW_AT_type(*$C$DW$T$39)
    1400                    .dwattr $C$DW$T$40, DW_AT_address_class(0x14)
    1401            $C$DW$T$42      .dwtag  DW_TAG_typedef, DW_AT_name("tWlanInterruptDisable")
    1402                    .dwattr $C$DW$T$42, DW_AT_type(*$C$DW$T$40)
    1403                    .dwattr $C$DW$T$42, DW_AT_language(DW_LANG_C)
    1404            $C$DW$T$41      .dwtag  DW_TAG_typedef, DW_AT_name("tWlanInterruptEnable")
    1405                    .dwattr $C$DW$T$41, DW_AT_type(*$C$DW$T$40)
    1406                    .dwattr $C$DW$T$41, DW_AT_language(DW_LANG_C)
    1407            
    1408            $C$DW$T$43      .dwtag  DW_TAG_subroutine_type
    1409                    .dwattr $C$DW$T$43, DW_AT_language(DW_LANG_C)
    1410            $C$DW$130       .dwtag  DW_TAG_formal_parameter
    1411                    .dwattr $C$DW$130, DW_AT_type(*$C$DW$T$20)
    1412                    .dwendtag $C$DW$T$43
    1413            
    1414            $C$DW$T$44      .dwtag  DW_TAG_pointer_type
    1415                    .dwattr $C$DW$T$44, DW_AT_type(*$C$DW$T$43)
    1416                    .dwattr $C$DW$T$44, DW_AT_address_class(0x14)
    1417            $C$DW$T$45      .dwtag  DW_TAG_typedef, DW_AT_name("tWriteWlanPin")
    1418                    .dwattr $C$DW$T$45, DW_AT_type(*$C$DW$T$44)
    1419                    .dwattr $C$DW$T$45, DW_AT_language(DW_LANG_C)
    1420            $C$DW$T$4       .dwtag  DW_TAG_base_type
    1421                    .dwattr $C$DW$T$4, DW_AT_encoding(DW_ATE_boolean)
    1422                    .dwattr $C$DW$T$4, DW_AT_name("bool")
    1423                    .dwattr $C$DW$T$4, DW_AT_byte_size(0x01)
    1424            $C$DW$T$5       .dwtag  DW_TAG_base_type
    1425                    .dwattr $C$DW$T$5, DW_AT_encoding(DW_ATE_signed_char)
MSP430 Assembler PC v4.2.1 Fri Mar 21 13:42:32 2014

Tools Copyright (c) 2003-2013 Texas Instruments Incorporated
C:\Users\409010~1\AppData\Local\Temp\0527610                         PAGE   29

    1426                    .dwattr $C$DW$T$5, DW_AT_name("signed char")
    1427                    .dwattr $C$DW$T$5, DW_AT_byte_size(0x01)
    1428            $C$DW$T$60      .dwtag  DW_TAG_typedef, DW_AT_name("INT8")
    1429                    .dwattr $C$DW$T$60, DW_AT_type(*$C$DW$T$5)
    1430                    .dwattr $C$DW$T$60, DW_AT_language(DW_LANG_C)
    1431            $C$DW$T$6       .dwtag  DW_TAG_base_type
    1432                    .dwattr $C$DW$T$6, DW_AT_encoding(DW_ATE_unsigned_char)
    1433                    .dwattr $C$DW$T$6, DW_AT_name("unsigned char")
    1434                    .dwattr $C$DW$T$6, DW_AT_byte_size(0x01)
    1435            $C$DW$T$20      .dwtag  DW_TAG_typedef, DW_AT_name("UINT8")
    1436                    .dwattr $C$DW$T$20, DW_AT_type(*$C$DW$T$6)
    1437                    .dwattr $C$DW$T$20, DW_AT_language(DW_LANG_C)
    1438            $C$DW$T$21      .dwtag  DW_TAG_pointer_type
    1439                    .dwattr $C$DW$T$21, DW_AT_type(*$C$DW$T$20)
    1440                    .dwattr $C$DW$T$21, DW_AT_address_class(0x10)
    1441            $C$DW$T$63      .dwtag  DW_TAG_const_type
    1442                    .dwattr $C$DW$T$63, DW_AT_type(*$C$DW$T$21)
    1443            
    1444            $C$DW$T$47      .dwtag  DW_TAG_array_type
    1445                    .dwattr $C$DW$T$47, DW_AT_type(*$C$DW$T$20)
    1446                    .dwattr $C$DW$T$47, DW_AT_language(DW_LANG_C)
    1447                    .dwattr $C$DW$T$47, DW_AT_byte_size(0x04)
    1448            $C$DW$131       .dwtag  DW_TAG_subrange_type
    1449                    .dwattr $C$DW$131, DW_AT_upper_bound(0x03)
    1450                    .dwendtag $C$DW$T$47
    1451            
    1452            
    1453            $C$DW$T$48      .dwtag  DW_TAG_array_type
    1454                    .dwattr $C$DW$T$48, DW_AT_type(*$C$DW$T$20)
    1455                    .dwattr $C$DW$T$48, DW_AT_language(DW_LANG_C)
    1456                    .dwattr $C$DW$T$48, DW_AT_byte_size(0x06)
    1457            $C$DW$132       .dwtag  DW_TAG_subrange_type
    1458                    .dwattr $C$DW$132, DW_AT_upper_bound(0x05)
    1459                    .dwendtag $C$DW$T$48
    1460            
    1461            
    1462            $C$DW$T$49      .dwtag  DW_TAG_array_type
    1463                    .dwattr $C$DW$T$49, DW_AT_type(*$C$DW$T$20)
    1464                    .dwattr $C$DW$T$49, DW_AT_language(DW_LANG_C)
    1465                    .dwattr $C$DW$T$49, DW_AT_byte_size(0x20)
    1466            $C$DW$133       .dwtag  DW_TAG_subrange_type
    1467                    .dwattr $C$DW$133, DW_AT_upper_bound(0x1f)
    1468                    .dwendtag $C$DW$T$49
    1469            
    1470            $C$DW$T$7       .dwtag  DW_TAG_base_type
    1471                    .dwattr $C$DW$T$7, DW_AT_encoding(DW_ATE_signed_char)
    1472                    .dwattr $C$DW$T$7, DW_AT_name("wchar_t")
    1473                    .dwattr $C$DW$T$7, DW_AT_byte_size(0x02)
    1474            $C$DW$T$8       .dwtag  DW_TAG_base_type
    1475                    .dwattr $C$DW$T$8, DW_AT_encoding(DW_ATE_signed)
    1476                    .dwattr $C$DW$T$8, DW_AT_name("short")
    1477                    .dwattr $C$DW$T$8, DW_AT_byte_size(0x02)
    1478            $C$DW$T$72      .dwtag  DW_TAG_typedef, DW_AT_name("INT16")
    1479                    .dwattr $C$DW$T$72, DW_AT_type(*$C$DW$T$8)
    1480                    .dwattr $C$DW$T$72, DW_AT_language(DW_LANG_C)
MSP430 Assembler PC v4.2.1 Fri Mar 21 13:42:32 2014

Tools Copyright (c) 2003-2013 Texas Instruments Incorporated
C:\Users\409010~1\AppData\Local\Temp\0527610                         PAGE   30

    1481            $C$DW$T$9       .dwtag  DW_TAG_base_type
    1482                    .dwattr $C$DW$T$9, DW_AT_encoding(DW_ATE_unsigned)
    1483                    .dwattr $C$DW$T$9, DW_AT_name("unsigned short")
    1484                    .dwattr $C$DW$T$9, DW_AT_byte_size(0x02)
    1485            $C$DW$T$19      .dwtag  DW_TAG_typedef, DW_AT_name("UINT16")
    1486                    .dwattr $C$DW$T$19, DW_AT_type(*$C$DW$T$9)
    1487                    .dwattr $C$DW$T$19, DW_AT_language(DW_LANG_C)
    1488            $C$DW$T$10      .dwtag  DW_TAG_base_type
    1489                    .dwattr $C$DW$T$10, DW_AT_encoding(DW_ATE_signed)
    1490                    .dwattr $C$DW$T$10, DW_AT_name("int")
    1491                    .dwattr $C$DW$T$10, DW_AT_byte_size(0x02)
    1492            $C$DW$T$11      .dwtag  DW_TAG_base_type
    1493                    .dwattr $C$DW$T$11, DW_AT_encoding(DW_ATE_unsigned)
    1494                    .dwattr $C$DW$T$11, DW_AT_name("unsigned int")
    1495                    .dwattr $C$DW$T$11, DW_AT_byte_size(0x02)
    1496            $C$DW$T$12      .dwtag  DW_TAG_base_type
    1497                    .dwattr $C$DW$T$12, DW_AT_encoding(DW_ATE_signed)
    1498                    .dwattr $C$DW$T$12, DW_AT_name("long")
    1499                    .dwattr $C$DW$T$12, DW_AT_byte_size(0x04)
    1500            $C$DW$T$32      .dwtag  DW_TAG_typedef, DW_AT_name("INT32")
    1501                    .dwattr $C$DW$T$32, DW_AT_type(*$C$DW$T$12)
    1502                    .dwattr $C$DW$T$32, DW_AT_language(DW_LANG_C)
    1503            
    1504            $C$DW$T$36      .dwtag  DW_TAG_subroutine_type
    1505                    .dwattr $C$DW$T$36, DW_AT_type(*$C$DW$T$32)
    1506                    .dwattr $C$DW$T$36, DW_AT_language(DW_LANG_C)
    1507            $C$DW$T$37      .dwtag  DW_TAG_pointer_type
    1508                    .dwattr $C$DW$T$37, DW_AT_type(*$C$DW$T$36)
    1509                    .dwattr $C$DW$T$37, DW_AT_address_class(0x14)
    1510            $C$DW$T$38      .dwtag  DW_TAG_typedef, DW_AT_name("tWlanReadInteruptPin")
    1511                    .dwattr $C$DW$T$38, DW_AT_type(*$C$DW$T$37)
    1512                    .dwattr $C$DW$T$38, DW_AT_language(DW_LANG_C)
    1513            $C$DW$T$13      .dwtag  DW_TAG_base_type
    1514                    .dwattr $C$DW$T$13, DW_AT_encoding(DW_ATE_unsigned)
    1515                    .dwattr $C$DW$T$13, DW_AT_name("unsigned long")
    1516                    .dwattr $C$DW$T$13, DW_AT_byte_size(0x04)
    1517            $C$DW$T$25      .dwtag  DW_TAG_typedef, DW_AT_name("UINT32")
    1518                    .dwattr $C$DW$T$25, DW_AT_type(*$C$DW$T$13)
    1519                    .dwattr $C$DW$T$25, DW_AT_language(DW_LANG_C)
    1520            $C$DW$T$87      .dwtag  DW_TAG_const_type
    1521                    .dwattr $C$DW$T$87, DW_AT_type(*$C$DW$T$25)
    1522            $C$DW$T$26      .dwtag  DW_TAG_pointer_type
    1523                    .dwattr $C$DW$T$26, DW_AT_type(*$C$DW$T$25)
    1524                    .dwattr $C$DW$T$26, DW_AT_address_class(0x10)
    1525            $C$DW$T$88      .dwtag  DW_TAG_const_type
    1526                    .dwattr $C$DW$T$88, DW_AT_type(*$C$DW$T$26)
    1527            $C$DW$T$14      .dwtag  DW_TAG_base_type
    1528                    .dwattr $C$DW$T$14, DW_AT_encoding(DW_ATE_signed)
    1529                    .dwattr $C$DW$T$14, DW_AT_name("long long")
    1530                    .dwattr $C$DW$T$14, DW_AT_byte_size(0x08)
    1531            $C$DW$T$15      .dwtag  DW_TAG_base_type
    1532                    .dwattr $C$DW$T$15, DW_AT_encoding(DW_ATE_unsigned)
    1533                    .dwattr $C$DW$T$15, DW_AT_name("unsigned long long")
    1534                    .dwattr $C$DW$T$15, DW_AT_byte_size(0x08)
    1535            $C$DW$T$16      .dwtag  DW_TAG_base_type
MSP430 Assembler PC v4.2.1 Fri Mar 21 13:42:32 2014

Tools Copyright (c) 2003-2013 Texas Instruments Incorporated
C:\Users\409010~1\AppData\Local\Temp\0527610                         PAGE   31

    1536                    .dwattr $C$DW$T$16, DW_AT_encoding(DW_ATE_float)
    1537                    .dwattr $C$DW$T$16, DW_AT_name("float")
    1538                    .dwattr $C$DW$T$16, DW_AT_byte_size(0x04)
    1539            $C$DW$T$17      .dwtag  DW_TAG_base_type
    1540                    .dwattr $C$DW$T$17, DW_AT_encoding(DW_ATE_float)
    1541                    .dwattr $C$DW$T$17, DW_AT_name("double")
    1542                    .dwattr $C$DW$T$17, DW_AT_byte_size(0x04)
    1543            $C$DW$T$18      .dwtag  DW_TAG_base_type
    1544                    .dwattr $C$DW$T$18, DW_AT_encoding(DW_ATE_float)
    1545                    .dwattr $C$DW$T$18, DW_AT_name("long double")
    1546                    .dwattr $C$DW$T$18, DW_AT_byte_size(0x04)
    1547            $C$DW$T$23      .dwtag  DW_TAG_typedef, DW_AT_name("CHAR")
    1548                    .dwattr $C$DW$T$23, DW_AT_type(*$C$DW$T$6)
    1549                    .dwattr $C$DW$T$23, DW_AT_language(DW_LANG_C)
    1550            $C$DW$T$24      .dwtag  DW_TAG_pointer_type
    1551                    .dwattr $C$DW$T$24, DW_AT_type(*$C$DW$T$23)
    1552                    .dwattr $C$DW$T$24, DW_AT_address_class(0x10)
    1553            
    1554            $C$DW$T$27      .dwtag  DW_TAG_subroutine_type
    1555                    .dwattr $C$DW$T$27, DW_AT_type(*$C$DW$T$24)
    1556                    .dwattr $C$DW$T$27, DW_AT_language(DW_LANG_C)
    1557            $C$DW$134       .dwtag  DW_TAG_formal_parameter
    1558                    .dwattr $C$DW$134, DW_AT_type(*$C$DW$T$26)
    1559                    .dwendtag $C$DW$T$27
    1560            
    1561            $C$DW$T$28      .dwtag  DW_TAG_pointer_type
    1562                    .dwattr $C$DW$T$28, DW_AT_type(*$C$DW$T$27)
    1563                    .dwattr $C$DW$T$28, DW_AT_address_class(0x14)
    1564            $C$DW$T$31      .dwtag  DW_TAG_typedef, DW_AT_name("tBootLoaderPatches")
    1565                    .dwattr $C$DW$T$31, DW_AT_type(*$C$DW$T$28)
    1566                    .dwattr $C$DW$T$31, DW_AT_language(DW_LANG_C)
    1567            $C$DW$T$30      .dwtag  DW_TAG_typedef, DW_AT_name("tDriverPatches")
    1568                    .dwattr $C$DW$T$30, DW_AT_type(*$C$DW$T$28)
    1569                    .dwattr $C$DW$T$30, DW_AT_language(DW_LANG_C)
    1570            $C$DW$T$29      .dwtag  DW_TAG_typedef, DW_AT_name("tFWPatches")
    1571                    .dwattr $C$DW$T$29, DW_AT_type(*$C$DW$T$28)
    1572                    .dwattr $C$DW$T$29, DW_AT_language(DW_LANG_C)
    1573            
    1574            $C$DW$T$50      .dwtag  DW_TAG_structure_type
    1575                    .dwattr $C$DW$T$50, DW_AT_name("_netapp_ipconfig_ret_args_t")
    1576                    .dwattr $C$DW$T$50, DW_AT_byte_size(0x3a)
    1577            $C$DW$135       .dwtag  DW_TAG_member
    1578                    .dwattr $C$DW$135, DW_AT_type(*$C$DW$T$47)
    1579                    .dwattr $C$DW$135, DW_AT_name("aucIP")
    1580                    .dwattr $C$DW$135, DW_AT_TI_symbol_name("aucIP")
    1581                    .dwattr $C$DW$135, DW_AT_data_member_location[DW_OP_plus_uconst 0x0]
    1582                    .dwattr $C$DW$135, DW_AT_accessibility(DW_ACCESS_public)
    1583            $C$DW$136       .dwtag  DW_TAG_member
    1584                    .dwattr $C$DW$136, DW_AT_type(*$C$DW$T$47)
    1585                    .dwattr $C$DW$136, DW_AT_name("aucSubnetMask")
    1586                    .dwattr $C$DW$136, DW_AT_TI_symbol_name("aucSubnetMask")
    1587                    .dwattr $C$DW$136, DW_AT_data_member_location[DW_OP_plus_uconst 0x4]
    1588                    .dwattr $C$DW$136, DW_AT_accessibility(DW_ACCESS_public)
    1589            $C$DW$137       .dwtag  DW_TAG_member
    1590                    .dwattr $C$DW$137, DW_AT_type(*$C$DW$T$47)
MSP430 Assembler PC v4.2.1 Fri Mar 21 13:42:32 2014

Tools Copyright (c) 2003-2013 Texas Instruments Incorporated
C:\Users\409010~1\AppData\Local\Temp\0527610                         PAGE   32

    1591                    .dwattr $C$DW$137, DW_AT_name("aucDefaultGateway")
    1592                    .dwattr $C$DW$137, DW_AT_TI_symbol_name("aucDefaultGateway")
    1593                    .dwattr $C$DW$137, DW_AT_data_member_location[DW_OP_plus_uconst 0x8]
    1594                    .dwattr $C$DW$137, DW_AT_accessibility(DW_ACCESS_public)
    1595            $C$DW$138       .dwtag  DW_TAG_member
    1596                    .dwattr $C$DW$138, DW_AT_type(*$C$DW$T$47)
    1597                    .dwattr $C$DW$138, DW_AT_name("aucDHCPServer")
    1598                    .dwattr $C$DW$138, DW_AT_TI_symbol_name("aucDHCPServer")
    1599                    .dwattr $C$DW$138, DW_AT_data_member_location[DW_OP_plus_uconst 0xc]
    1600                    .dwattr $C$DW$138, DW_AT_accessibility(DW_ACCESS_public)
    1601            $C$DW$139       .dwtag  DW_TAG_member
    1602                    .dwattr $C$DW$139, DW_AT_type(*$C$DW$T$47)
    1603                    .dwattr $C$DW$139, DW_AT_name("aucDNSServer")
    1604                    .dwattr $C$DW$139, DW_AT_TI_symbol_name("aucDNSServer")
    1605                    .dwattr $C$DW$139, DW_AT_data_member_location[DW_OP_plus_uconst 0x10]
    1606                    .dwattr $C$DW$139, DW_AT_accessibility(DW_ACCESS_public)
    1607            $C$DW$140       .dwtag  DW_TAG_member
    1608                    .dwattr $C$DW$140, DW_AT_type(*$C$DW$T$48)
    1609                    .dwattr $C$DW$140, DW_AT_name("uaMacAddr")
    1610                    .dwattr $C$DW$140, DW_AT_TI_symbol_name("uaMacAddr")
    1611                    .dwattr $C$DW$140, DW_AT_data_member_location[DW_OP_plus_uconst 0x14]
    1612                    .dwattr $C$DW$140, DW_AT_accessibility(DW_ACCESS_public)
    1613            $C$DW$141       .dwtag  DW_TAG_member
    1614                    .dwattr $C$DW$141, DW_AT_type(*$C$DW$T$49)
    1615                    .dwattr $C$DW$141, DW_AT_name("uaSSID")
    1616                    .dwattr $C$DW$141, DW_AT_TI_symbol_name("uaSSID")
    1617                    .dwattr $C$DW$141, DW_AT_data_member_location[DW_OP_plus_uconst 0x1a]
    1618                    .dwattr $C$DW$141, DW_AT_accessibility(DW_ACCESS_public)
    1619                    .dwendtag $C$DW$T$50
    1620            
    1621            $C$DW$T$57      .dwtag  DW_TAG_typedef, DW_AT_name("tNetappIpconfigRetArgs")
    1622                    .dwattr $C$DW$T$57, DW_AT_type(*$C$DW$T$50)
    1623                    .dwattr $C$DW$T$57, DW_AT_language(DW_LANG_C)
    1624            $C$DW$T$58      .dwtag  DW_TAG_pointer_type
    1625                    .dwattr $C$DW$T$58, DW_AT_type(*$C$DW$T$57)
    1626                    .dwattr $C$DW$T$58, DW_AT_address_class(0x10)
    1627            $C$DW$T$94      .dwtag  DW_TAG_const_type
    1628                    .dwattr $C$DW$T$94, DW_AT_type(*$C$DW$T$58)
    1629                    .dwattr $C$DW$CU, DW_AT_language(DW_LANG_C)
    1630            
    1631            ;***************************************************************
    1632            ;* DWARF CIE ENTRIES                                           *
    1633            ;***************************************************************
    1634            
    1635            $C$DW$CIE       .dwcie 16
    1636                    .dwcfi  cfa_register, 1
    1637                    .dwcfi  cfa_offset, 0
    1638                    .dwcfi  undefined, 0
    1639                    .dwcfi  undefined, 1
    1640                    .dwcfi  undefined, 2
    1641                    .dwcfi  undefined, 3
    1642                    .dwcfi  same_value, 4
    1643                    .dwcfi  same_value, 5
    1644                    .dwcfi  same_value, 6
    1645                    .dwcfi  same_value, 7
MSP430 Assembler PC v4.2.1 Fri Mar 21 13:42:32 2014

Tools Copyright (c) 2003-2013 Texas Instruments Incorporated
C:\Users\409010~1\AppData\Local\Temp\0527610                         PAGE   33

    1646                    .dwcfi  same_value, 8
    1647                    .dwcfi  same_value, 9
    1648                    .dwcfi  same_value, 10
    1649                    .dwcfi  undefined, 11
    1650                    .dwcfi  undefined, 12
    1651                    .dwcfi  undefined, 13
    1652                    .dwcfi  undefined, 14
    1653                    .dwcfi  undefined, 15
    1654                    .dwcfi  undefined, 16
    1655                    .dwendentry
    1656            
    1657            ;***************************************************************
    1658            ;* DWARF REGISTER MAP                                          *
    1659            ;***************************************************************
    1660            
    1661            $C$DW$142       .dwtag  DW_TAG_TI_assign_register, DW_AT_name("PC")
    1662                    .dwattr $C$DW$142, DW_AT_location[DW_OP_reg0]
    1663            $C$DW$143       .dwtag  DW_TAG_TI_assign_register, DW_AT_name("SP")
    1664                    .dwattr $C$DW$143, DW_AT_location[DW_OP_reg1]
    1665            $C$DW$144       .dwtag  DW_TAG_TI_assign_register, DW_AT_name("SR")
    1666                    .dwattr $C$DW$144, DW_AT_location[DW_OP_reg2]
    1667            $C$DW$145       .dwtag  DW_TAG_TI_assign_register, DW_AT_name("CG")
    1668                    .dwattr $C$DW$145, DW_AT_location[DW_OP_reg3]
    1669            $C$DW$146       .dwtag  DW_TAG_TI_assign_register, DW_AT_name("r4")
    1670                    .dwattr $C$DW$146, DW_AT_location[DW_OP_reg4]
    1671            $C$DW$147       .dwtag  DW_TAG_TI_assign_register, DW_AT_name("r5")
    1672                    .dwattr $C$DW$147, DW_AT_location[DW_OP_reg5]
    1673            $C$DW$148       .dwtag  DW_TAG_TI_assign_register, DW_AT_name("r6")
    1674                    .dwattr $C$DW$148, DW_AT_location[DW_OP_reg6]
    1675            $C$DW$149       .dwtag  DW_TAG_TI_assign_register, DW_AT_name("r7")
    1676                    .dwattr $C$DW$149, DW_AT_location[DW_OP_reg7]
    1677            $C$DW$150       .dwtag  DW_TAG_TI_assign_register, DW_AT_name("r8")
    1678                    .dwattr $C$DW$150, DW_AT_location[DW_OP_reg8]
    1679            $C$DW$151       .dwtag  DW_TAG_TI_assign_register, DW_AT_name("r9")
    1680                    .dwattr $C$DW$151, DW_AT_location[DW_OP_reg9]
    1681            $C$DW$152       .dwtag  DW_TAG_TI_assign_register, DW_AT_name("r10")
    1682                    .dwattr $C$DW$152, DW_AT_location[DW_OP_reg10]
    1683            $C$DW$153       .dwtag  DW_TAG_TI_assign_register, DW_AT_name("r11")
    1684                    .dwattr $C$DW$153, DW_AT_location[DW_OP_reg11]
    1685            $C$DW$154       .dwtag  DW_TAG_TI_assign_register, DW_AT_name("r12")
    1686                    .dwattr $C$DW$154, DW_AT_location[DW_OP_reg12]
    1687            $C$DW$155       .dwtag  DW_TAG_TI_assign_register, DW_AT_name("r13")
    1688                    .dwattr $C$DW$155, DW_AT_location[DW_OP_reg13]
    1689            $C$DW$156       .dwtag  DW_TAG_TI_assign_register, DW_AT_name("r14")
    1690                    .dwattr $C$DW$156, DW_AT_location[DW_OP_reg14]
    1691            $C$DW$157       .dwtag  DW_TAG_TI_assign_register, DW_AT_name("r15")
    1692                    .dwattr $C$DW$157, DW_AT_location[DW_OP_reg15]
    1693            $C$DW$158       .dwtag  DW_TAG_TI_assign_register, DW_AT_name("CIE_RETA")
    1694                    .dwattr $C$DW$158, DW_AT_location[DW_OP_reg16]
    1695                    .dwendtag $C$DW$CU
    1696            

No Assembly Errors, No Assembly Warnings
