MSP430 Assembler PC v4.2.1 Fri Mar 21 13:42:36 2014

Tools Copyright (c) 2003-2013 Texas Instruments Incorporated
C:\Users\409010~1\AppData\Local\Temp\0593210                         PAGE    1

       1            ;******************************************************************************
       2            ;* MSP430 C/C++ Codegen                                             PC v4.2.1 *
       3            ;* Date/Time created: Fri Mar 21 13:42:34 2014                                *
       4            ;******************************************************************************
       5                    .compiler_opts --abi=coffabi --hll_source=on --mem_model:code=large --mem_model:data=small --o
       6            
       7            $C$DW$CU        .dwtag  DW_TAG_compile_unit
       8                    .dwattr $C$DW$CU, DW_AT_name("C:/Users/409010855/Documents/GitHub/CHARM/Embedded_Voltmeter/Bas
       9                    .dwattr $C$DW$CU, DW_AT_producer("MSP430 C/C++ Codegen PC v4.2.1 Copyright (c) 2003-2013 Texas
      10                    .dwattr $C$DW$CU, DW_AT_TI_version(0x01)
      11                    .dwattr $C$DW$CU, DW_AT_comp_dir("C:\Users\409010855\Documents\GitHub\CHARM\Embedded_Voltmeter
      12            
      13            $C$DW$1 .dwtag  DW_TAG_subprogram, DW_AT_name("nvmem_read")
      14                    .dwattr $C$DW$1, DW_AT_TI_symbol_name("nvmem_read")
      15                    .dwattr $C$DW$1, DW_AT_type(*$C$DW$T$39)
      16                    .dwattr $C$DW$1, DW_AT_declaration
      17                    .dwattr $C$DW$1, DW_AT_external
      18            $C$DW$2 .dwtag  DW_TAG_formal_parameter
      19                    .dwattr $C$DW$2, DW_AT_type(*$C$DW$T$40)
      20            $C$DW$3 .dwtag  DW_TAG_formal_parameter
      21                    .dwattr $C$DW$3, DW_AT_type(*$C$DW$T$40)
      22            $C$DW$4 .dwtag  DW_TAG_formal_parameter
      23                    .dwattr $C$DW$4, DW_AT_type(*$C$DW$T$40)
      24            $C$DW$5 .dwtag  DW_TAG_formal_parameter
      25                    .dwattr $C$DW$5, DW_AT_type(*$C$DW$T$20)
      26                    .dwendtag $C$DW$1
      27            
      28            
      29            $C$DW$6 .dwtag  DW_TAG_subprogram, DW_AT_name("nvmem_write")
      30                    .dwattr $C$DW$6, DW_AT_TI_symbol_name("nvmem_write")
      31                    .dwattr $C$DW$6, DW_AT_type(*$C$DW$T$39)
      32                    .dwattr $C$DW$6, DW_AT_declaration
      33                    .dwattr $C$DW$6, DW_AT_external
      34            $C$DW$7 .dwtag  DW_TAG_formal_parameter
      35                    .dwattr $C$DW$7, DW_AT_type(*$C$DW$T$40)
      36            $C$DW$8 .dwtag  DW_TAG_formal_parameter
      37                    .dwattr $C$DW$8, DW_AT_type(*$C$DW$T$40)
      38            $C$DW$9 .dwtag  DW_TAG_formal_parameter
      39                    .dwattr $C$DW$9, DW_AT_type(*$C$DW$T$40)
      40            $C$DW$10        .dwtag  DW_TAG_formal_parameter
      41                    .dwattr $C$DW$10, DW_AT_type(*$C$DW$T$20)
      42                    .dwendtag $C$DW$6
      43            
      44                    .global sbox
      45 000000               .sect   ".const:.string:sbox"
      46                    .clink
      47                    .align  2
      48 000000       sbox:
      49 000000 0063          .bits   99,8                    ; sbox[0] @ 0
      50 000000 7C63          .bits   124,8                   ; sbox[1] @ 8
      51 000002 0077          .bits   119,8                   ; sbox[2] @ 16
      52 000002 7B77          .bits   123,8                   ; sbox[3] @ 24
      53 000004 00F2          .bits   242,8                   ; sbox[4] @ 32
      54 000004 6BF2          .bits   107,8                   ; sbox[5] @ 40
      55 000006 006F          .bits   111,8                   ; sbox[6] @ 48
MSP430 Assembler PC v4.2.1 Fri Mar 21 13:42:36 2014

Tools Copyright (c) 2003-2013 Texas Instruments Incorporated
C:\Users\409010~1\AppData\Local\Temp\0593210                         PAGE    2

      56 000006 C56F          .bits   197,8                   ; sbox[7] @ 56
      57 000008 0030          .bits   48,8                    ; sbox[8] @ 64
      58 000008 0130          .bits   1,8                     ; sbox[9] @ 72
      59 00000a 0067          .bits   103,8                   ; sbox[10] @ 80
      60 00000a 2B67          .bits   43,8                    ; sbox[11] @ 88
      61 00000c 00FE          .bits   254,8                   ; sbox[12] @ 96
      62 00000c D7FE          .bits   215,8                   ; sbox[13] @ 104
      63 00000e 00AB          .bits   171,8                   ; sbox[14] @ 112
      64 00000e 76AB          .bits   118,8                   ; sbox[15] @ 120
      65 000010 00CA          .bits   202,8                   ; sbox[16] @ 128
      66 000010 82CA          .bits   130,8                   ; sbox[17] @ 136
      67 000012 00C9          .bits   201,8                   ; sbox[18] @ 144
      68 000012 7DC9          .bits   125,8                   ; sbox[19] @ 152
      69 000014 00FA          .bits   250,8                   ; sbox[20] @ 160
      70 000014 59FA          .bits   89,8                    ; sbox[21] @ 168
      71 000016 0047          .bits   71,8                    ; sbox[22] @ 176
      72 000016 F047          .bits   240,8                   ; sbox[23] @ 184
      73 000018 00AD          .bits   173,8                   ; sbox[24] @ 192
      74 000018 D4AD          .bits   212,8                   ; sbox[25] @ 200
      75 00001a 00A2          .bits   162,8                   ; sbox[26] @ 208
      76 00001a AFA2          .bits   175,8                   ; sbox[27] @ 216
      77 00001c 009C          .bits   156,8                   ; sbox[28] @ 224
      78 00001c A49C          .bits   164,8                   ; sbox[29] @ 232
      79 00001e 0072          .bits   114,8                   ; sbox[30] @ 240
      80 00001e C072          .bits   192,8                   ; sbox[31] @ 248
      81 000020 00B7          .bits   183,8                   ; sbox[32] @ 256
      82 000020 FDB7          .bits   253,8                   ; sbox[33] @ 264
      83 000022 0093          .bits   147,8                   ; sbox[34] @ 272
      84 000022 2693          .bits   38,8                    ; sbox[35] @ 280
      85 000024 0036          .bits   54,8                    ; sbox[36] @ 288
      86 000024 3F36          .bits   63,8                    ; sbox[37] @ 296
      87 000026 00F7          .bits   247,8                   ; sbox[38] @ 304
      88 000026 CCF7          .bits   204,8                   ; sbox[39] @ 312
      89 000028 0034          .bits   52,8                    ; sbox[40] @ 320
      90 000028 A534          .bits   165,8                   ; sbox[41] @ 328
      91 00002a 00E5          .bits   229,8                   ; sbox[42] @ 336
      92 00002a F1E5          .bits   241,8                   ; sbox[43] @ 344
      93 00002c 0071          .bits   113,8                   ; sbox[44] @ 352
      94 00002c D871          .bits   216,8                   ; sbox[45] @ 360
      95 00002e 0031          .bits   49,8                    ; sbox[46] @ 368
      96 00002e 1531          .bits   21,8                    ; sbox[47] @ 376
      97 000030 0004          .bits   4,8                     ; sbox[48] @ 384
      98 000030 C704          .bits   199,8                   ; sbox[49] @ 392
      99 000032 0023          .bits   35,8                    ; sbox[50] @ 400
     100 000032 C323          .bits   195,8                   ; sbox[51] @ 408
     101 000034 0018          .bits   24,8                    ; sbox[52] @ 416
     102 000034 9618          .bits   150,8                   ; sbox[53] @ 424
     103 000036 0005          .bits   5,8                     ; sbox[54] @ 432
     104 000036 9A05          .bits   154,8                   ; sbox[55] @ 440
     105 000038 0007          .bits   7,8                     ; sbox[56] @ 448
     106 000038 1207          .bits   18,8                    ; sbox[57] @ 456
     107 00003a 0080          .bits   128,8                   ; sbox[58] @ 464
     108 00003a E280          .bits   226,8                   ; sbox[59] @ 472
     109 00003c 00EB          .bits   235,8                   ; sbox[60] @ 480
     110 00003c 27EB          .bits   39,8                    ; sbox[61] @ 488
MSP430 Assembler PC v4.2.1 Fri Mar 21 13:42:36 2014

Tools Copyright (c) 2003-2013 Texas Instruments Incorporated
C:\Users\409010~1\AppData\Local\Temp\0593210                         PAGE    3

     111 00003e 00B2          .bits   178,8                   ; sbox[62] @ 496
     112 00003e 75B2          .bits   117,8                   ; sbox[63] @ 504
     113 000040 0009          .bits   9,8                     ; sbox[64] @ 512
     114 000040 8309          .bits   131,8                   ; sbox[65] @ 520
     115 000042 002C          .bits   44,8                    ; sbox[66] @ 528
     116 000042 1A2C          .bits   26,8                    ; sbox[67] @ 536
     117 000044 001B          .bits   27,8                    ; sbox[68] @ 544
     118 000044 6E1B          .bits   110,8                   ; sbox[69] @ 552
     119 000046 005A          .bits   90,8                    ; sbox[70] @ 560
     120 000046 A05A          .bits   160,8                   ; sbox[71] @ 568
     121 000048 0052          .bits   82,8                    ; sbox[72] @ 576
     122 000048 3B52          .bits   59,8                    ; sbox[73] @ 584
     123 00004a 00D6          .bits   214,8                   ; sbox[74] @ 592
     124 00004a B3D6          .bits   179,8                   ; sbox[75] @ 600
     125 00004c 0029          .bits   41,8                    ; sbox[76] @ 608
     126 00004c E329          .bits   227,8                   ; sbox[77] @ 616
     127 00004e 002F          .bits   47,8                    ; sbox[78] @ 624
     128 00004e 842F          .bits   132,8                   ; sbox[79] @ 632
     129 000050 0053          .bits   83,8                    ; sbox[80] @ 640
     130 000050 D153          .bits   209,8                   ; sbox[81] @ 648
     131 000052 0000          .bits   0,8                     ; sbox[82] @ 656
     132 000052 ED00          .bits   237,8                   ; sbox[83] @ 664
     133 000054 0020          .bits   32,8                    ; sbox[84] @ 672
     134 000054 FC20          .bits   252,8                   ; sbox[85] @ 680
     135 000056 00B1          .bits   177,8                   ; sbox[86] @ 688
     136 000056 5BB1          .bits   91,8                    ; sbox[87] @ 696
     137 000058 006A          .bits   106,8                   ; sbox[88] @ 704
     138 000058 CB6A          .bits   203,8                   ; sbox[89] @ 712
     139 00005a 00BE          .bits   190,8                   ; sbox[90] @ 720
     140 00005a 39BE          .bits   57,8                    ; sbox[91] @ 728
     141 00005c 004A          .bits   74,8                    ; sbox[92] @ 736
     142 00005c 4C4A          .bits   76,8                    ; sbox[93] @ 744
     143 00005e 0058          .bits   88,8                    ; sbox[94] @ 752
     144 00005e CF58          .bits   207,8                   ; sbox[95] @ 760
     145 000060 00D0          .bits   208,8                   ; sbox[96] @ 768
     146 000060 EFD0          .bits   239,8                   ; sbox[97] @ 776
     147 000062 00AA          .bits   170,8                   ; sbox[98] @ 784
     148 000062 FBAA          .bits   251,8                   ; sbox[99] @ 792
     149 000064 0043          .bits   67,8                    ; sbox[100] @ 800
     150 000064 4D43          .bits   77,8                    ; sbox[101] @ 808
     151 000066 0033          .bits   51,8                    ; sbox[102] @ 816
     152 000066 8533          .bits   133,8                   ; sbox[103] @ 824
     153 000068 0045          .bits   69,8                    ; sbox[104] @ 832
     154 000068 F945          .bits   249,8                   ; sbox[105] @ 840
     155 00006a 0002          .bits   2,8                     ; sbox[106] @ 848
     156 00006a 7F02          .bits   127,8                   ; sbox[107] @ 856
     157 00006c 0050          .bits   80,8                    ; sbox[108] @ 864
     158 00006c 3C50          .bits   60,8                    ; sbox[109] @ 872
     159 00006e 009F          .bits   159,8                   ; sbox[110] @ 880
     160 00006e A89F          .bits   168,8                   ; sbox[111] @ 888
     161 000070 0051          .bits   81,8                    ; sbox[112] @ 896
     162 000070 A351          .bits   163,8                   ; sbox[113] @ 904
     163 000072 0040          .bits   64,8                    ; sbox[114] @ 912
     164 000072 8F40          .bits   143,8                   ; sbox[115] @ 920
     165 000074 0092          .bits   146,8                   ; sbox[116] @ 928
MSP430 Assembler PC v4.2.1 Fri Mar 21 13:42:36 2014

Tools Copyright (c) 2003-2013 Texas Instruments Incorporated
C:\Users\409010~1\AppData\Local\Temp\0593210                         PAGE    4

     166 000074 9D92          .bits   157,8                   ; sbox[117] @ 936
     167 000076 0038          .bits   56,8                    ; sbox[118] @ 944
     168 000076 F538          .bits   245,8                   ; sbox[119] @ 952
     169 000078 00BC          .bits   188,8                   ; sbox[120] @ 960
     170 000078 B6BC          .bits   182,8                   ; sbox[121] @ 968
     171 00007a 00DA          .bits   218,8                   ; sbox[122] @ 976
     172 00007a 21DA          .bits   33,8                    ; sbox[123] @ 984
     173 00007c 0010          .bits   16,8                    ; sbox[124] @ 992
     174 00007c FF10          .bits   255,8                   ; sbox[125] @ 1000
     175 00007e 00F3          .bits   243,8                   ; sbox[126] @ 1008
     176 00007e D2F3          .bits   210,8                   ; sbox[127] @ 1016
     177 000080 00CD          .bits   205,8                   ; sbox[128] @ 1024
     178 000080 0CCD          .bits   12,8                    ; sbox[129] @ 1032
     179 000082 0013          .bits   19,8                    ; sbox[130] @ 1040
     180 000082 EC13          .bits   236,8                   ; sbox[131] @ 1048
     181 000084 005F          .bits   95,8                    ; sbox[132] @ 1056
     182 000084 975F          .bits   151,8                   ; sbox[133] @ 1064
     183 000086 0044          .bits   68,8                    ; sbox[134] @ 1072
     184 000086 1744          .bits   23,8                    ; sbox[135] @ 1080
     185 000088 00C4          .bits   196,8                   ; sbox[136] @ 1088
     186 000088 A7C4          .bits   167,8                   ; sbox[137] @ 1096
     187 00008a 007E          .bits   126,8                   ; sbox[138] @ 1104
     188 00008a 3D7E          .bits   61,8                    ; sbox[139] @ 1112
     189 00008c 0064          .bits   100,8                   ; sbox[140] @ 1120
     190 00008c 5D64          .bits   93,8                    ; sbox[141] @ 1128
     191 00008e 0019          .bits   25,8                    ; sbox[142] @ 1136
     192 00008e 7319          .bits   115,8                   ; sbox[143] @ 1144
     193 000090 0060          .bits   96,8                    ; sbox[144] @ 1152
     194 000090 8160          .bits   129,8                   ; sbox[145] @ 1160
     195 000092 004F          .bits   79,8                    ; sbox[146] @ 1168
     196 000092 DC4F          .bits   220,8                   ; sbox[147] @ 1176
     197 000094 0022          .bits   34,8                    ; sbox[148] @ 1184
     198 000094 2A22          .bits   42,8                    ; sbox[149] @ 1192
     199 000096 0090          .bits   144,8                   ; sbox[150] @ 1200
     200 000096 8890          .bits   136,8                   ; sbox[151] @ 1208
     201 000098 0046          .bits   70,8                    ; sbox[152] @ 1216
     202 000098 EE46          .bits   238,8                   ; sbox[153] @ 1224
     203 00009a 00B8          .bits   184,8                   ; sbox[154] @ 1232
     204 00009a 14B8          .bits   20,8                    ; sbox[155] @ 1240
     205 00009c 00DE          .bits   222,8                   ; sbox[156] @ 1248
     206 00009c 5EDE          .bits   94,8                    ; sbox[157] @ 1256
     207 00009e 000B          .bits   11,8                    ; sbox[158] @ 1264
     208 00009e DB0B          .bits   219,8                   ; sbox[159] @ 1272
     209 0000a0 00E0          .bits   224,8                   ; sbox[160] @ 1280
     210 0000a0 32E0          .bits   50,8                    ; sbox[161] @ 1288
     211 0000a2 003A          .bits   58,8                    ; sbox[162] @ 1296
     212 0000a2 0A3A          .bits   10,8                    ; sbox[163] @ 1304
     213 0000a4 0049          .bits   73,8                    ; sbox[164] @ 1312
     214 0000a4 0649          .bits   6,8                     ; sbox[165] @ 1320
     215 0000a6 0024          .bits   36,8                    ; sbox[166] @ 1328
     216 0000a6 5C24          .bits   92,8                    ; sbox[167] @ 1336
     217 0000a8 00C2          .bits   194,8                   ; sbox[168] @ 1344
     218 0000a8 D3C2          .bits   211,8                   ; sbox[169] @ 1352
     219 0000aa 00AC          .bits   172,8                   ; sbox[170] @ 1360
     220 0000aa 62AC          .bits   98,8                    ; sbox[171] @ 1368
MSP430 Assembler PC v4.2.1 Fri Mar 21 13:42:36 2014

Tools Copyright (c) 2003-2013 Texas Instruments Incorporated
C:\Users\409010~1\AppData\Local\Temp\0593210                         PAGE    5

     221 0000ac 0091          .bits   145,8                   ; sbox[172] @ 1376
     222 0000ac 9591          .bits   149,8                   ; sbox[173] @ 1384
     223 0000ae 00E4          .bits   228,8                   ; sbox[174] @ 1392
     224 0000ae 79E4          .bits   121,8                   ; sbox[175] @ 1400
     225 0000b0 00E7          .bits   231,8                   ; sbox[176] @ 1408
     226 0000b0 C8E7          .bits   200,8                   ; sbox[177] @ 1416
     227 0000b2 0037          .bits   55,8                    ; sbox[178] @ 1424
     228 0000b2 6D37          .bits   109,8                   ; sbox[179] @ 1432
     229 0000b4 008D          .bits   141,8                   ; sbox[180] @ 1440
     230 0000b4 D58D          .bits   213,8                   ; sbox[181] @ 1448
     231 0000b6 004E          .bits   78,8                    ; sbox[182] @ 1456
     232 0000b6 A94E          .bits   169,8                   ; sbox[183] @ 1464
     233 0000b8 006C          .bits   108,8                   ; sbox[184] @ 1472
     234 0000b8 566C          .bits   86,8                    ; sbox[185] @ 1480
     235 0000ba 00F4          .bits   244,8                   ; sbox[186] @ 1488
     236 0000ba EAF4          .bits   234,8                   ; sbox[187] @ 1496
     237 0000bc 0065          .bits   101,8                   ; sbox[188] @ 1504
     238 0000bc 7A65          .bits   122,8                   ; sbox[189] @ 1512
     239 0000be 00AE          .bits   174,8                   ; sbox[190] @ 1520
     240 0000be 08AE          .bits   8,8                     ; sbox[191] @ 1528
     241 0000c0 00BA          .bits   186,8                   ; sbox[192] @ 1536
     242 0000c0 78BA          .bits   120,8                   ; sbox[193] @ 1544
     243 0000c2 0025          .bits   37,8                    ; sbox[194] @ 1552
     244 0000c2 2E25          .bits   46,8                    ; sbox[195] @ 1560
     245 0000c4 001C          .bits   28,8                    ; sbox[196] @ 1568
     246 0000c4 A61C          .bits   166,8                   ; sbox[197] @ 1576
     247 0000c6 00B4          .bits   180,8                   ; sbox[198] @ 1584
     248 0000c6 C6B4          .bits   198,8                   ; sbox[199] @ 1592
     249 0000c8 00E8          .bits   232,8                   ; sbox[200] @ 1600
     250 0000c8 DDE8          .bits   221,8                   ; sbox[201] @ 1608
     251 0000ca 0074          .bits   116,8                   ; sbox[202] @ 1616
     252 0000ca 1F74          .bits   31,8                    ; sbox[203] @ 1624
     253 0000cc 004B          .bits   75,8                    ; sbox[204] @ 1632
     254 0000cc BD4B          .bits   189,8                   ; sbox[205] @ 1640
     255 0000ce 008B          .bits   139,8                   ; sbox[206] @ 1648
     256 0000ce 8A8B          .bits   138,8                   ; sbox[207] @ 1656
     257 0000d0 0070          .bits   112,8                   ; sbox[208] @ 1664
     258 0000d0 3E70          .bits   62,8                    ; sbox[209] @ 1672
     259 0000d2 00B5          .bits   181,8                   ; sbox[210] @ 1680
     260 0000d2 66B5          .bits   102,8                   ; sbox[211] @ 1688
     261 0000d4 0048          .bits   72,8                    ; sbox[212] @ 1696
     262 0000d4 0348          .bits   3,8                     ; sbox[213] @ 1704
     263 0000d6 00F6          .bits   246,8                   ; sbox[214] @ 1712
     264 0000d6 0EF6          .bits   14,8                    ; sbox[215] @ 1720
     265 0000d8 0061          .bits   97,8                    ; sbox[216] @ 1728
     266 0000d8 3561          .bits   53,8                    ; sbox[217] @ 1736
     267 0000da 0057          .bits   87,8                    ; sbox[218] @ 1744
     268 0000da B957          .bits   185,8                   ; sbox[219] @ 1752
     269 0000dc 0086          .bits   134,8                   ; sbox[220] @ 1760
     270 0000dc C186          .bits   193,8                   ; sbox[221] @ 1768
     271 0000de 001D          .bits   29,8                    ; sbox[222] @ 1776
     272 0000de 9E1D          .bits   158,8                   ; sbox[223] @ 1784
     273 0000e0 00E1          .bits   225,8                   ; sbox[224] @ 1792
     274 0000e0 F8E1          .bits   248,8                   ; sbox[225] @ 1800
     275 0000e2 0098          .bits   152,8                   ; sbox[226] @ 1808
MSP430 Assembler PC v4.2.1 Fri Mar 21 13:42:36 2014

Tools Copyright (c) 2003-2013 Texas Instruments Incorporated
C:\Users\409010~1\AppData\Local\Temp\0593210                         PAGE    6

     276 0000e2 1198          .bits   17,8                    ; sbox[227] @ 1816
     277 0000e4 0069          .bits   105,8                   ; sbox[228] @ 1824
     278 0000e4 D969          .bits   217,8                   ; sbox[229] @ 1832
     279 0000e6 008E          .bits   142,8                   ; sbox[230] @ 1840
     280 0000e6 948E          .bits   148,8                   ; sbox[231] @ 1848
     281 0000e8 009B          .bits   155,8                   ; sbox[232] @ 1856
     282 0000e8 1E9B          .bits   30,8                    ; sbox[233] @ 1864
     283 0000ea 0087          .bits   135,8                   ; sbox[234] @ 1872
     284 0000ea E987          .bits   233,8                   ; sbox[235] @ 1880
     285 0000ec 00CE          .bits   206,8                   ; sbox[236] @ 1888
     286 0000ec 55CE          .bits   85,8                    ; sbox[237] @ 1896
     287 0000ee 0028          .bits   40,8                    ; sbox[238] @ 1904
     288 0000ee DF28          .bits   223,8                   ; sbox[239] @ 1912
     289 0000f0 008C          .bits   140,8                   ; sbox[240] @ 1920
     290 0000f0 A18C          .bits   161,8                   ; sbox[241] @ 1928
     291 0000f2 0089          .bits   137,8                   ; sbox[242] @ 1936
     292 0000f2 0D89          .bits   13,8                    ; sbox[243] @ 1944
     293 0000f4 00BF          .bits   191,8                   ; sbox[244] @ 1952
     294 0000f4 E6BF          .bits   230,8                   ; sbox[245] @ 1960
     295 0000f6 0042          .bits   66,8                    ; sbox[246] @ 1968
     296 0000f6 6842          .bits   104,8                   ; sbox[247] @ 1976
     297 0000f8 0041          .bits   65,8                    ; sbox[248] @ 1984
     298 0000f8 9941          .bits   153,8                   ; sbox[249] @ 1992
     299 0000fa 002D          .bits   45,8                    ; sbox[250] @ 2000
     300 0000fa 0F2D          .bits   15,8                    ; sbox[251] @ 2008
     301 0000fc 00B0          .bits   176,8                   ; sbox[252] @ 2016
     302 0000fc 54B0          .bits   84,8                    ; sbox[253] @ 2024
     303 0000fe 00BB          .bits   187,8                   ; sbox[254] @ 2032
     304 0000fe 16BB          .bits   22,8                    ; sbox[255] @ 2040
     305            
     306            $C$DW$11        .dwtag  DW_TAG_variable, DW_AT_name("sbox")
     307                    .dwattr $C$DW$11, DW_AT_TI_symbol_name("sbox")
     308                    .dwattr $C$DW$11, DW_AT_location[DW_OP_addr sbox]
     309                    .dwattr $C$DW$11, DW_AT_type(*$C$DW$T$25)
     310                    .dwattr $C$DW$11, DW_AT_external
     311                    .global rsbox
     312 000000               .sect   ".const:.string:rsbox"
     313                    .clink
     314                    .align  2
     315 000000       rsbox:
     316 000000 0052          .bits   82,8                    ; rsbox[0] @ 0
     317 000000 0952          .bits   9,8                     ; rsbox[1] @ 8
     318 000002 006A          .bits   106,8                   ; rsbox[2] @ 16
     319 000002 D56A          .bits   213,8                   ; rsbox[3] @ 24
     320 000004 0030          .bits   48,8                    ; rsbox[4] @ 32
     321 000004 3630          .bits   54,8                    ; rsbox[5] @ 40
     322 000006 00A5          .bits   165,8                   ; rsbox[6] @ 48
     323 000006 38A5          .bits   56,8                    ; rsbox[7] @ 56
     324 000008 00BF          .bits   191,8                   ; rsbox[8] @ 64
     325 000008 40BF          .bits   64,8                    ; rsbox[9] @ 72
     326 00000a 00A3          .bits   163,8                   ; rsbox[10] @ 80
     327 00000a 9EA3          .bits   158,8                   ; rsbox[11] @ 88
     328 00000c 0081          .bits   129,8                   ; rsbox[12] @ 96
     329 00000c F381          .bits   243,8                   ; rsbox[13] @ 104
     330 00000e 00D7          .bits   215,8                   ; rsbox[14] @ 112
MSP430 Assembler PC v4.2.1 Fri Mar 21 13:42:36 2014

Tools Copyright (c) 2003-2013 Texas Instruments Incorporated
C:\Users\409010~1\AppData\Local\Temp\0593210                         PAGE    7

     331 00000e FBD7          .bits   251,8                   ; rsbox[15] @ 120
     332 000010 007C          .bits   124,8                   ; rsbox[16] @ 128
     333 000010 E37C          .bits   227,8                   ; rsbox[17] @ 136
     334 000012 0039          .bits   57,8                    ; rsbox[18] @ 144
     335 000012 8239          .bits   130,8                   ; rsbox[19] @ 152
     336 000014 009B          .bits   155,8                   ; rsbox[20] @ 160
     337 000014 2F9B          .bits   47,8                    ; rsbox[21] @ 168
     338 000016 00FF          .bits   255,8                   ; rsbox[22] @ 176
     339 000016 87FF          .bits   135,8                   ; rsbox[23] @ 184
     340 000018 0034          .bits   52,8                    ; rsbox[24] @ 192
     341 000018 8E34          .bits   142,8                   ; rsbox[25] @ 200
     342 00001a 0043          .bits   67,8                    ; rsbox[26] @ 208
     343 00001a 4443          .bits   68,8                    ; rsbox[27] @ 216
     344 00001c 00C4          .bits   196,8                   ; rsbox[28] @ 224
     345 00001c DEC4          .bits   222,8                   ; rsbox[29] @ 232
     346 00001e 00E9          .bits   233,8                   ; rsbox[30] @ 240
     347 00001e CBE9          .bits   203,8                   ; rsbox[31] @ 248
     348 000020 0054          .bits   84,8                    ; rsbox[32] @ 256
     349 000020 7B54          .bits   123,8                   ; rsbox[33] @ 264
     350 000022 0094          .bits   148,8                   ; rsbox[34] @ 272
     351 000022 3294          .bits   50,8                    ; rsbox[35] @ 280
     352 000024 00A6          .bits   166,8                   ; rsbox[36] @ 288
     353 000024 C2A6          .bits   194,8                   ; rsbox[37] @ 296
     354 000026 0023          .bits   35,8                    ; rsbox[38] @ 304
     355 000026 3D23          .bits   61,8                    ; rsbox[39] @ 312
     356 000028 00EE          .bits   238,8                   ; rsbox[40] @ 320
     357 000028 4CEE          .bits   76,8                    ; rsbox[41] @ 328
     358 00002a 0095          .bits   149,8                   ; rsbox[42] @ 336
     359 00002a 0B95          .bits   11,8                    ; rsbox[43] @ 344
     360 00002c 0042          .bits   66,8                    ; rsbox[44] @ 352
     361 00002c FA42          .bits   250,8                   ; rsbox[45] @ 360
     362 00002e 00C3          .bits   195,8                   ; rsbox[46] @ 368
     363 00002e 4EC3          .bits   78,8                    ; rsbox[47] @ 376
     364 000030 0008          .bits   8,8                     ; rsbox[48] @ 384
     365 000030 2E08          .bits   46,8                    ; rsbox[49] @ 392
     366 000032 00A1          .bits   161,8                   ; rsbox[50] @ 400
     367 000032 66A1          .bits   102,8                   ; rsbox[51] @ 408
     368 000034 0028          .bits   40,8                    ; rsbox[52] @ 416
     369 000034 D928          .bits   217,8                   ; rsbox[53] @ 424
     370 000036 0024          .bits   36,8                    ; rsbox[54] @ 432
     371 000036 B224          .bits   178,8                   ; rsbox[55] @ 440
     372 000038 0076          .bits   118,8                   ; rsbox[56] @ 448
     373 000038 5B76          .bits   91,8                    ; rsbox[57] @ 456
     374 00003a 00A2          .bits   162,8                   ; rsbox[58] @ 464
     375 00003a 49A2          .bits   73,8                    ; rsbox[59] @ 472
     376 00003c 006D          .bits   109,8                   ; rsbox[60] @ 480
     377 00003c 8B6D          .bits   139,8                   ; rsbox[61] @ 488
     378 00003e 00D1          .bits   209,8                   ; rsbox[62] @ 496
     379 00003e 25D1          .bits   37,8                    ; rsbox[63] @ 504
     380 000040 0072          .bits   114,8                   ; rsbox[64] @ 512
     381 000040 F872          .bits   248,8                   ; rsbox[65] @ 520
     382 000042 00F6          .bits   246,8                   ; rsbox[66] @ 528
     383 000042 64F6          .bits   100,8                   ; rsbox[67] @ 536
     384 000044 0086          .bits   134,8                   ; rsbox[68] @ 544
     385 000044 6886          .bits   104,8                   ; rsbox[69] @ 552
MSP430 Assembler PC v4.2.1 Fri Mar 21 13:42:36 2014

Tools Copyright (c) 2003-2013 Texas Instruments Incorporated
C:\Users\409010~1\AppData\Local\Temp\0593210                         PAGE    8

     386 000046 0098          .bits   152,8                   ; rsbox[70] @ 560
     387 000046 1698          .bits   22,8                    ; rsbox[71] @ 568
     388 000048 00D4          .bits   212,8                   ; rsbox[72] @ 576
     389 000048 A4D4          .bits   164,8                   ; rsbox[73] @ 584
     390 00004a 005C          .bits   92,8                    ; rsbox[74] @ 592
     391 00004a CC5C          .bits   204,8                   ; rsbox[75] @ 600
     392 00004c 005D          .bits   93,8                    ; rsbox[76] @ 608
     393 00004c 655D          .bits   101,8                   ; rsbox[77] @ 616
     394 00004e 00B6          .bits   182,8                   ; rsbox[78] @ 624
     395 00004e 92B6          .bits   146,8                   ; rsbox[79] @ 632
     396 000050 006C          .bits   108,8                   ; rsbox[80] @ 640
     397 000050 706C          .bits   112,8                   ; rsbox[81] @ 648
     398 000052 0048          .bits   72,8                    ; rsbox[82] @ 656
     399 000052 5048          .bits   80,8                    ; rsbox[83] @ 664
     400 000054 00FD          .bits   253,8                   ; rsbox[84] @ 672
     401 000054 EDFD          .bits   237,8                   ; rsbox[85] @ 680
     402 000056 00B9          .bits   185,8                   ; rsbox[86] @ 688
     403 000056 DAB9          .bits   218,8                   ; rsbox[87] @ 696
     404 000058 005E          .bits   94,8                    ; rsbox[88] @ 704
     405 000058 155E          .bits   21,8                    ; rsbox[89] @ 712
     406 00005a 0046          .bits   70,8                    ; rsbox[90] @ 720
     407 00005a 5746          .bits   87,8                    ; rsbox[91] @ 728
     408 00005c 00A7          .bits   167,8                   ; rsbox[92] @ 736
     409 00005c 8DA7          .bits   141,8                   ; rsbox[93] @ 744
     410 00005e 009D          .bits   157,8                   ; rsbox[94] @ 752
     411 00005e 849D          .bits   132,8                   ; rsbox[95] @ 760
     412 000060 0090          .bits   144,8                   ; rsbox[96] @ 768
     413 000060 D890          .bits   216,8                   ; rsbox[97] @ 776
     414 000062 00AB          .bits   171,8                   ; rsbox[98] @ 784
     415 000062 00AB          .bits   0,8                     ; rsbox[99] @ 792
     416 000064 008C          .bits   140,8                   ; rsbox[100] @ 800
     417 000064 BC8C          .bits   188,8                   ; rsbox[101] @ 808
     418 000066 00D3          .bits   211,8                   ; rsbox[102] @ 816
     419 000066 0AD3          .bits   10,8                    ; rsbox[103] @ 824
     420 000068 00F7          .bits   247,8                   ; rsbox[104] @ 832
     421 000068 E4F7          .bits   228,8                   ; rsbox[105] @ 840
     422 00006a 0058          .bits   88,8                    ; rsbox[106] @ 848
     423 00006a 0558          .bits   5,8                     ; rsbox[107] @ 856
     424 00006c 00B8          .bits   184,8                   ; rsbox[108] @ 864
     425 00006c B3B8          .bits   179,8                   ; rsbox[109] @ 872
     426 00006e 0045          .bits   69,8                    ; rsbox[110] @ 880
     427 00006e 0645          .bits   6,8                     ; rsbox[111] @ 888
     428 000070 00D0          .bits   208,8                   ; rsbox[112] @ 896
     429 000070 2CD0          .bits   44,8                    ; rsbox[113] @ 904
     430 000072 001E          .bits   30,8                    ; rsbox[114] @ 912
     431 000072 8F1E          .bits   143,8                   ; rsbox[115] @ 920
     432 000074 00CA          .bits   202,8                   ; rsbox[116] @ 928
     433 000074 3FCA          .bits   63,8                    ; rsbox[117] @ 936
     434 000076 000F          .bits   15,8                    ; rsbox[118] @ 944
     435 000076 020F          .bits   2,8                     ; rsbox[119] @ 952
     436 000078 00C1          .bits   193,8                   ; rsbox[120] @ 960
     437 000078 AFC1          .bits   175,8                   ; rsbox[121] @ 968
     438 00007a 00BD          .bits   189,8                   ; rsbox[122] @ 976
     439 00007a 03BD          .bits   3,8                     ; rsbox[123] @ 984
     440 00007c 0001          .bits   1,8                     ; rsbox[124] @ 992
MSP430 Assembler PC v4.2.1 Fri Mar 21 13:42:36 2014

Tools Copyright (c) 2003-2013 Texas Instruments Incorporated
C:\Users\409010~1\AppData\Local\Temp\0593210                         PAGE    9

     441 00007c 1301          .bits   19,8                    ; rsbox[125] @ 1000
     442 00007e 008A          .bits   138,8                   ; rsbox[126] @ 1008
     443 00007e 6B8A          .bits   107,8                   ; rsbox[127] @ 1016
     444 000080 003A          .bits   58,8                    ; rsbox[128] @ 1024
     445 000080 913A          .bits   145,8                   ; rsbox[129] @ 1032
     446 000082 0011          .bits   17,8                    ; rsbox[130] @ 1040
     447 000082 4111          .bits   65,8                    ; rsbox[131] @ 1048
     448 000084 004F          .bits   79,8                    ; rsbox[132] @ 1056
     449 000084 674F          .bits   103,8                   ; rsbox[133] @ 1064
     450 000086 00DC          .bits   220,8                   ; rsbox[134] @ 1072
     451 000086 EADC          .bits   234,8                   ; rsbox[135] @ 1080
     452 000088 0097          .bits   151,8                   ; rsbox[136] @ 1088
     453 000088 F297          .bits   242,8                   ; rsbox[137] @ 1096
     454 00008a 00CF          .bits   207,8                   ; rsbox[138] @ 1104
     455 00008a CECF          .bits   206,8                   ; rsbox[139] @ 1112
     456 00008c 00F0          .bits   240,8                   ; rsbox[140] @ 1120
     457 00008c B4F0          .bits   180,8                   ; rsbox[141] @ 1128
     458 00008e 00E6          .bits   230,8                   ; rsbox[142] @ 1136
     459 00008e 73E6          .bits   115,8                   ; rsbox[143] @ 1144
     460 000090 0096          .bits   150,8                   ; rsbox[144] @ 1152
     461 000090 AC96          .bits   172,8                   ; rsbox[145] @ 1160
     462 000092 0074          .bits   116,8                   ; rsbox[146] @ 1168
     463 000092 2274          .bits   34,8                    ; rsbox[147] @ 1176
     464 000094 00E7          .bits   231,8                   ; rsbox[148] @ 1184
     465 000094 ADE7          .bits   173,8                   ; rsbox[149] @ 1192
     466 000096 0035          .bits   53,8                    ; rsbox[150] @ 1200
     467 000096 8535          .bits   133,8                   ; rsbox[151] @ 1208
     468 000098 00E2          .bits   226,8                   ; rsbox[152] @ 1216
     469 000098 F9E2          .bits   249,8                   ; rsbox[153] @ 1224
     470 00009a 0037          .bits   55,8                    ; rsbox[154] @ 1232
     471 00009a E837          .bits   232,8                   ; rsbox[155] @ 1240
     472 00009c 001C          .bits   28,8                    ; rsbox[156] @ 1248
     473 00009c 751C          .bits   117,8                   ; rsbox[157] @ 1256
     474 00009e 00DF          .bits   223,8                   ; rsbox[158] @ 1264
     475 00009e 6EDF          .bits   110,8                   ; rsbox[159] @ 1272
     476 0000a0 0047          .bits   71,8                    ; rsbox[160] @ 1280
     477 0000a0 F147          .bits   241,8                   ; rsbox[161] @ 1288
     478 0000a2 001A          .bits   26,8                    ; rsbox[162] @ 1296
     479 0000a2 711A          .bits   113,8                   ; rsbox[163] @ 1304
     480 0000a4 001D          .bits   29,8                    ; rsbox[164] @ 1312
     481 0000a4 291D          .bits   41,8                    ; rsbox[165] @ 1320
     482 0000a6 00C5          .bits   197,8                   ; rsbox[166] @ 1328
     483 0000a6 89C5          .bits   137,8                   ; rsbox[167] @ 1336
     484 0000a8 006F          .bits   111,8                   ; rsbox[168] @ 1344
     485 0000a8 B76F          .bits   183,8                   ; rsbox[169] @ 1352
     486 0000aa 0062          .bits   98,8                    ; rsbox[170] @ 1360
     487 0000aa 0E62          .bits   14,8                    ; rsbox[171] @ 1368
     488 0000ac 00AA          .bits   170,8                   ; rsbox[172] @ 1376
     489 0000ac 18AA          .bits   24,8                    ; rsbox[173] @ 1384
     490 0000ae 00BE          .bits   190,8                   ; rsbox[174] @ 1392
     491 0000ae 1BBE          .bits   27,8                    ; rsbox[175] @ 1400
     492 0000b0 00FC          .bits   252,8                   ; rsbox[176] @ 1408
     493 0000b0 56FC          .bits   86,8                    ; rsbox[177] @ 1416
     494 0000b2 003E          .bits   62,8                    ; rsbox[178] @ 1424
     495 0000b2 4B3E          .bits   75,8                    ; rsbox[179] @ 1432
MSP430 Assembler PC v4.2.1 Fri Mar 21 13:42:36 2014

Tools Copyright (c) 2003-2013 Texas Instruments Incorporated
C:\Users\409010~1\AppData\Local\Temp\0593210                         PAGE   10

     496 0000b4 00C6          .bits   198,8                   ; rsbox[180] @ 1440
     497 0000b4 D2C6          .bits   210,8                   ; rsbox[181] @ 1448
     498 0000b6 0079          .bits   121,8                   ; rsbox[182] @ 1456
     499 0000b6 2079          .bits   32,8                    ; rsbox[183] @ 1464
     500 0000b8 009A          .bits   154,8                   ; rsbox[184] @ 1472
     501 0000b8 DB9A          .bits   219,8                   ; rsbox[185] @ 1480
     502 0000ba 00C0          .bits   192,8                   ; rsbox[186] @ 1488
     503 0000ba FEC0          .bits   254,8                   ; rsbox[187] @ 1496
     504 0000bc 0078          .bits   120,8                   ; rsbox[188] @ 1504
     505 0000bc CD78          .bits   205,8                   ; rsbox[189] @ 1512
     506 0000be 005A          .bits   90,8                    ; rsbox[190] @ 1520
     507 0000be F45A          .bits   244,8                   ; rsbox[191] @ 1528
     508 0000c0 001F          .bits   31,8                    ; rsbox[192] @ 1536
     509 0000c0 DD1F          .bits   221,8                   ; rsbox[193] @ 1544
     510 0000c2 00A8          .bits   168,8                   ; rsbox[194] @ 1552
     511 0000c2 33A8          .bits   51,8                    ; rsbox[195] @ 1560
     512 0000c4 0088          .bits   136,8                   ; rsbox[196] @ 1568
     513 0000c4 0788          .bits   7,8                     ; rsbox[197] @ 1576
     514 0000c6 00C7          .bits   199,8                   ; rsbox[198] @ 1584
     515 0000c6 31C7          .bits   49,8                    ; rsbox[199] @ 1592
     516 0000c8 00B1          .bits   177,8                   ; rsbox[200] @ 1600
     517 0000c8 12B1          .bits   18,8                    ; rsbox[201] @ 1608
     518 0000ca 0010          .bits   16,8                    ; rsbox[202] @ 1616
     519 0000ca 5910          .bits   89,8                    ; rsbox[203] @ 1624
     520 0000cc 0027          .bits   39,8                    ; rsbox[204] @ 1632
     521 0000cc 8027          .bits   128,8                   ; rsbox[205] @ 1640
     522 0000ce 00EC          .bits   236,8                   ; rsbox[206] @ 1648
     523 0000ce 5FEC          .bits   95,8                    ; rsbox[207] @ 1656
     524 0000d0 0060          .bits   96,8                    ; rsbox[208] @ 1664
     525 0000d0 5160          .bits   81,8                    ; rsbox[209] @ 1672
     526 0000d2 007F          .bits   127,8                   ; rsbox[210] @ 1680
     527 0000d2 A97F          .bits   169,8                   ; rsbox[211] @ 1688
     528 0000d4 0019          .bits   25,8                    ; rsbox[212] @ 1696
     529 0000d4 B519          .bits   181,8                   ; rsbox[213] @ 1704
     530 0000d6 004A          .bits   74,8                    ; rsbox[214] @ 1712
     531 0000d6 0D4A          .bits   13,8                    ; rsbox[215] @ 1720
     532 0000d8 002D          .bits   45,8                    ; rsbox[216] @ 1728
     533 0000d8 E52D          .bits   229,8                   ; rsbox[217] @ 1736
     534 0000da 007A          .bits   122,8                   ; rsbox[218] @ 1744
     535 0000da 9F7A          .bits   159,8                   ; rsbox[219] @ 1752
     536 0000dc 0093          .bits   147,8                   ; rsbox[220] @ 1760
     537 0000dc C993          .bits   201,8                   ; rsbox[221] @ 1768
     538 0000de 009C          .bits   156,8                   ; rsbox[222] @ 1776
     539 0000de EF9C          .bits   239,8                   ; rsbox[223] @ 1784
     540 0000e0 00A0          .bits   160,8                   ; rsbox[224] @ 1792
     541 0000e0 E0A0          .bits   224,8                   ; rsbox[225] @ 1800
     542 0000e2 003B          .bits   59,8                    ; rsbox[226] @ 1808
     543 0000e2 4D3B          .bits   77,8                    ; rsbox[227] @ 1816
     544 0000e4 00AE          .bits   174,8                   ; rsbox[228] @ 1824
     545 0000e4 2AAE          .bits   42,8                    ; rsbox[229] @ 1832
     546 0000e6 00F5          .bits   245,8                   ; rsbox[230] @ 1840
     547 0000e6 B0F5          .bits   176,8                   ; rsbox[231] @ 1848
     548 0000e8 00C8          .bits   200,8                   ; rsbox[232] @ 1856
     549 0000e8 EBC8          .bits   235,8                   ; rsbox[233] @ 1864
     550 0000ea 00BB          .bits   187,8                   ; rsbox[234] @ 1872
MSP430 Assembler PC v4.2.1 Fri Mar 21 13:42:36 2014

Tools Copyright (c) 2003-2013 Texas Instruments Incorporated
C:\Users\409010~1\AppData\Local\Temp\0593210                         PAGE   11

     551 0000ea 3CBB          .bits   60,8                    ; rsbox[235] @ 1880
     552 0000ec 0083          .bits   131,8                   ; rsbox[236] @ 1888
     553 0000ec 5383          .bits   83,8                    ; rsbox[237] @ 1896
     554 0000ee 0099          .bits   153,8                   ; rsbox[238] @ 1904
     555 0000ee 6199          .bits   97,8                    ; rsbox[239] @ 1912
     556 0000f0 0017          .bits   23,8                    ; rsbox[240] @ 1920
     557 0000f0 2B17          .bits   43,8                    ; rsbox[241] @ 1928
     558 0000f2 0004          .bits   4,8                     ; rsbox[242] @ 1936
     559 0000f2 7E04          .bits   126,8                   ; rsbox[243] @ 1944
     560 0000f4 00BA          .bits   186,8                   ; rsbox[244] @ 1952
     561 0000f4 77BA          .bits   119,8                   ; rsbox[245] @ 1960
     562 0000f6 00D6          .bits   214,8                   ; rsbox[246] @ 1968
     563 0000f6 26D6          .bits   38,8                    ; rsbox[247] @ 1976
     564 0000f8 00E1          .bits   225,8                   ; rsbox[248] @ 1984
     565 0000f8 69E1          .bits   105,8                   ; rsbox[249] @ 1992
     566 0000fa 0014          .bits   20,8                    ; rsbox[250] @ 2000
     567 0000fa 6314          .bits   99,8                    ; rsbox[251] @ 2008
     568 0000fc 0055          .bits   85,8                    ; rsbox[252] @ 2016
     569 0000fc 2155          .bits   33,8                    ; rsbox[253] @ 2024
     570 0000fe 000C          .bits   12,8                    ; rsbox[254] @ 2032
     571 0000fe 7D0C          .bits   125,8                   ; rsbox[255] @ 2040
     572            
     573            $C$DW$12        .dwtag  DW_TAG_variable, DW_AT_name("rsbox")
     574                    .dwattr $C$DW$12, DW_AT_TI_symbol_name("rsbox")
     575                    .dwattr $C$DW$12, DW_AT_location[DW_OP_addr rsbox]
     576                    .dwattr $C$DW$12, DW_AT_type(*$C$DW$T$25)
     577                    .dwattr $C$DW$12, DW_AT_external
     578                    .global Rcon
     579 000000               .sect   ".const:.string:Rcon"
     580                    .clink
     581                    .align  2
     582 000000       Rcon:
     583 000000 008D          .bits   141,8                   ; Rcon[0] @ 0
     584 000000 018D          .bits   1,8                     ; Rcon[1] @ 8
     585 000002 0002          .bits   2,8                     ; Rcon[2] @ 16
     586 000002 0402          .bits   4,8                     ; Rcon[3] @ 24
     587 000004 0008          .bits   8,8                     ; Rcon[4] @ 32
     588 000004 1008          .bits   16,8                    ; Rcon[5] @ 40
     589 000006 0020          .bits   32,8                    ; Rcon[6] @ 48
     590 000006 4020          .bits   64,8                    ; Rcon[7] @ 56
     591 000008 0080          .bits   128,8                   ; Rcon[8] @ 64
     592 000008 1B80          .bits   27,8                    ; Rcon[9] @ 72
     593 00000a 0036          .bits   54,8                    ; Rcon[10] @ 80
     594            
     595            $C$DW$13        .dwtag  DW_TAG_variable, DW_AT_name("Rcon")
     596                    .dwattr $C$DW$13, DW_AT_TI_symbol_name("Rcon")
     597                    .dwattr $C$DW$13, DW_AT_location[DW_OP_addr Rcon]
     598                    .dwattr $C$DW$13, DW_AT_type(*$C$DW$T$26)
     599                    .dwattr $C$DW$13, DW_AT_external
     600                    .global expandedKey
     601 000000               .bss    expandedKey,176,2
     602            $C$DW$14        .dwtag  DW_TAG_variable, DW_AT_name("expandedKey")
     603                    .dwattr $C$DW$14, DW_AT_TI_symbol_name("expandedKey")
     604                    .dwattr $C$DW$14, DW_AT_location[DW_OP_addr expandedKey]
     605                    .dwattr $C$DW$14, DW_AT_type(*$C$DW$T$29)
MSP430 Assembler PC v4.2.1 Fri Mar 21 13:42:36 2014

Tools Copyright (c) 2003-2013 Texas Instruments Incorporated
C:\Users\409010~1\AppData\Local\Temp\0593210                         PAGE   12

     606                    .dwattr $C$DW$14, DW_AT_external
     607            ;       C:\ti\ccsv5\tools\compiler\msp430_4.2.1\bin\opt430.exe C:\\Users\\409010~1\\AppData\\Local\\Te
     608 000000               .sect   ".text:galois_mul2"
     609                    .align  2
     610                    .clink
     611                    .global galois_mul2
     612            
     613            $C$DW$15        .dwtag  DW_TAG_subprogram, DW_AT_name("galois_mul2")
     614                    .dwattr $C$DW$15, DW_AT_low_pc(galois_mul2)
     615                    .dwattr $C$DW$15, DW_AT_high_pc(0x00)
     616                    .dwattr $C$DW$15, DW_AT_TI_symbol_name("galois_mul2")
     617                    .dwattr $C$DW$15, DW_AT_external
     618                    .dwattr $C$DW$15, DW_AT_type(*$C$DW$T$19)
     619                    .dwattr $C$DW$15, DW_AT_TI_begin_file("C:/Users/409010855/Documents/GitHub/CHARM/Embedded_Volt
     620                    .dwattr $C$DW$15, DW_AT_TI_begin_line(0x8e)
     621                    .dwattr $C$DW$15, DW_AT_TI_begin_column(0x07)
     622                    .dwattr $C$DW$15, DW_AT_TI_max_frame_size(0x04)
     623                    .dwpsn  file "C:/Users/409010855/Documents/GitHub/CHARM/Embedded_Voltmeter/Basic WiFi Source/S
     624            
     625                    .dwfde $C$DW$CIE, galois_mul2
     626            $C$DW$16        .dwtag  DW_TAG_formal_parameter, DW_AT_name("value")
     627                    .dwattr $C$DW$16, DW_AT_TI_symbol_name("value")
     628                    .dwattr $C$DW$16, DW_AT_type(*$C$DW$T$19)
     629                    .dwattr $C$DW$16, DW_AT_location[DW_OP_reg12]
     630            
     631            ;*****************************************************************************
     632            ;* FUNCTION NAME: galois_mul2                                                *
     633            ;*                                                                           *
     634            ;*   Regs Modified     : SP,SR,r12,r15                                       *
     635            ;*   Regs Used         : SP,SR,r12,r15                                       *
     636            ;*   Local Frame Size  : 0 Args + 0 Auto + 0 Save = 0 byte                   *
     637            ;*****************************************************************************
     638            galois_mul2:
     639            ;* --------------------------------------------------------------------------*
     640            ;* r12   assigned to value
     641            $C$DW$17        .dwtag  DW_TAG_variable, DW_AT_name("value")
     642                    .dwattr $C$DW$17, DW_AT_TI_symbol_name("value")
     643                    .dwattr $C$DW$17, DW_AT_type(*$C$DW$T$10)
     644                    .dwattr $C$DW$17, DW_AT_location[DW_OP_reg12]
     645                    .dwcfi  cfa_offset, 4
     646                    .dwcfi  save_reg_to_mem, 16, -4
     647 000000 4C4C          MOV.B     r12,r12               ; [] |143| 
     648                    .dwpsn  file "C:/Users/409010855/Documents/GitHub/CHARM/Embedded_Voltmeter/Basic WiFi Source/S
     649 000002 B03C          BIT.W     #65408,r12            ; [] |144| 
         000004 FF80 
     650 000006 2405          JEQ       $C$L1                 ; [] |144| 
     651                                                      ; [] |144| 
     652            ;* --------------------------------------------------------------------------*
     653                    .dwpsn  file "C:/Users/409010855/Documents/GitHub/CHARM/Embedded_Voltmeter/Basic WiFi Source/S
     654 000008 5C4C          RLA.B     r12                   ; [] |146| 
     655                    .dwpsn  file "C:/Users/409010855/Documents/GitHub/CHARM/Embedded_Voltmeter/Basic WiFi Source/S
     656 00000a 403F          MOV.W     #27,r15               ; [] |147| 
         00000c 001B 
     657 00000e EF4C          XOR.B     r15,r12               ; [] |147| 
     658            $C$DW$18        .dwtag  DW_TAG_TI_branch
MSP430 Assembler PC v4.2.1 Fri Mar 21 13:42:36 2014

Tools Copyright (c) 2003-2013 Texas Instruments Incorporated
C:\Users\409010~1\AppData\Local\Temp\0593210                         PAGE   13

     659                    .dwattr $C$DW$18, DW_AT_low_pc(0x00)
     660                    .dwattr $C$DW$18, DW_AT_TI_return
     661 000010 0110          RETA      ; [] 
     662                    ; [] 
     663            ;* --------------------------------------------------------------------------*
     664 000012       $C$L1:    
     665                    .dwpsn  file "C:/Users/409010855/Documents/GitHub/CHARM/Embedded_Voltmeter/Basic WiFi Source/S
     666 000012 5C4C          RLA.B     r12                   ; [] |149| 
     667            $C$DW$19        .dwtag  DW_TAG_TI_branch
     668                    .dwattr $C$DW$19, DW_AT_low_pc(0x00)
     669                    .dwattr $C$DW$19, DW_AT_TI_return
     670 000014 0110          RETA      ; [] 
     671                    ; [] 
     672                    .dwattr $C$DW$15, DW_AT_TI_end_file("C:/Users/409010855/Documents/GitHub/CHARM/Embedded_Voltme
     673                    .dwattr $C$DW$15, DW_AT_TI_end_line(0x96)
     674                    .dwattr $C$DW$15, DW_AT_TI_end_column(0x01)
     675                    .dwendentry
     676                    .dwendtag $C$DW$15
     677            
     678 000000               .sect   ".text:expandKey"
     679                    .align  2
     680                    .clink
     681                    .global expandKey
     682            
     683            $C$DW$20        .dwtag  DW_TAG_subprogram, DW_AT_name("expandKey")
     684                    .dwattr $C$DW$20, DW_AT_low_pc(expandKey)
     685                    .dwattr $C$DW$20, DW_AT_high_pc(0x00)
     686                    .dwattr $C$DW$20, DW_AT_TI_symbol_name("expandKey")
     687                    .dwattr $C$DW$20, DW_AT_external
     688                    .dwattr $C$DW$20, DW_AT_TI_begin_file("C:/Users/409010855/Documents/GitHub/CHARM/Embedded_Volt
     689                    .dwattr $C$DW$20, DW_AT_TI_begin_line(0x67)
     690                    .dwattr $C$DW$20, DW_AT_TI_begin_column(0x06)
     691                    .dwattr $C$DW$20, DW_AT_TI_max_frame_size(0x52)
     692                    .dwpsn  file "C:/Users/409010855/Documents/GitHub/CHARM/Embedded_Voltmeter/Basic WiFi Source/S
     693            
     694                    .dwfde $C$DW$CIE, expandKey
     695            $C$DW$21        .dwtag  DW_TAG_formal_parameter, DW_AT_name("expandedKey")
     696                    .dwattr $C$DW$21, DW_AT_TI_symbol_name("expandedKey")
     697                    .dwattr $C$DW$21, DW_AT_type(*$C$DW$T$20)
     698                    .dwattr $C$DW$21, DW_AT_location[DW_OP_reg12]
     699            $C$DW$22        .dwtag  DW_TAG_formal_parameter, DW_AT_name("key")
     700                    .dwattr $C$DW$22, DW_AT_TI_symbol_name("key")
     701                    .dwattr $C$DW$22, DW_AT_type(*$C$DW$T$20)
     702                    .dwattr $C$DW$22, DW_AT_location[DW_OP_reg13]
     703            
     704            ;*****************************************************************************
     705            ;* FUNCTION NAME: expandKey                                                  *
     706            ;*                                                                           *
     707            ;*   Regs Modified     : SP,SR,r4,r5,r6,r7,r8,r9,r10,r11,r12,r13,r14,r15     *
     708            ;*   Regs Used         : SP,SR,r4,r5,r6,r7,r8,r9,r10,r11,r12,r13,r14,r15     *
     709            ;*   Local Frame Size  : 0 Args + 50 Auto + 28 Save = 78 byte                *
     710            ;*****************************************************************************
     711            expandKey:
     712            ;* --------------------------------------------------------------------------*
     713            ;* r12   assigned to expandedKey
MSP430 Assembler PC v4.2.1 Fri Mar 21 13:42:36 2014

Tools Copyright (c) 2003-2013 Texas Instruments Incorporated
C:\Users\409010~1\AppData\Local\Temp\0593210                         PAGE   14

     714            $C$DW$23        .dwtag  DW_TAG_variable, DW_AT_name("expandedKey")
     715                    .dwattr $C$DW$23, DW_AT_TI_symbol_name("expandedKey")
     716                    .dwattr $C$DW$23, DW_AT_type(*$C$DW$T$27)
     717                    .dwattr $C$DW$23, DW_AT_location[DW_OP_reg12]
     718            ;* r15   assigned to key
     719            $C$DW$24        .dwtag  DW_TAG_variable, DW_AT_name("key")
     720                    .dwattr $C$DW$24, DW_AT_TI_symbol_name("key")
     721                    .dwattr $C$DW$24, DW_AT_type(*$C$DW$T$27)
     722                    .dwattr $C$DW$24, DW_AT_location[DW_OP_reg15]
     723            ;* r5    assigned to buf1
     724            $C$DW$25        .dwtag  DW_TAG_variable, DW_AT_name("buf1")
     725                    .dwattr $C$DW$25, DW_AT_TI_symbol_name("buf1")
     726                    .dwattr $C$DW$25, DW_AT_type(*$C$DW$T$6)
     727                    .dwattr $C$DW$25, DW_AT_location[DW_OP_reg5]
     728            ;* r14   assigned to $O$L1
     729            ;* r7    assigned to $O$U150
     730            ;* r8    assigned to $O$U141
     731            ;* r9    assigned to $O$U132
     732            ;* r10   assigned to $O$U123
     733            ;* r11   assigned to $O$U114
     734            ;* r13   assigned to $O$U105
     735            ;* r14   assigned to $O$U96
     736            ;* r15   assigned to $O$U87
     737            ;* r12   assigned to $O$U29
     738            ;* r15   assigned to $O$U6
     739            ;* r13   assigned to $O$U4
     740                    .dwcfi  cfa_offset, 4
     741                    .dwcfi  save_reg_to_mem, 16, -4
     742 000000 146A          PUSHM.A   #7,r10                ; [] 
     743                    .dwcfi  save_reg_to_mem, 10, -8
     744                    .dwcfi  save_reg_to_mem, 9, -12
     745                    .dwcfi  save_reg_to_mem, 8, -16
     746                    .dwcfi  save_reg_to_mem, 7, -20
     747                    .dwcfi  save_reg_to_mem, 6, -24
     748                    .dwcfi  save_reg_to_mem, 5, -28
     749                    .dwcfi  save_reg_to_mem, 4, -32
     750                    .dwcfi  cfa_offset, 32
     751 000002 8031          SUB.W     #50,SP                ; [] 
         000004 0032 
     752                    .dwcfi  cfa_offset, 82
     753 000006 0CCF          MOVA      r12,r15               ; [] 
     754                    .dwpsn  file "C:/Users/409010855/Documents/GitHub/CHARM/Embedded_Voltmeter/Basic WiFi Source/S
     755 000008 403E          MOV.W     #16,r14               ; [] |106| 
         00000a 0010 
     756            ;* --------------------------------------------------------------------------*
     757            ;*   BEGIN LOOP $C$L2
     758            ;*
     759            ;*   Loop source line                : 106
     760            ;*   Loop closing brace source line  : 107
     761            ;*   Known Minimum Trip Count        : 16
     762            ;*   Known Maximum Trip Count        : 16
     763            ;*   Known Max Trip Count Factor     : 16
     764            ;* --------------------------------------------------------------------------*
     765 00000c       $C$L2:    
     766                    .dwpsn  file "C:/Users/409010855/Documents/GitHub/CHARM/Embedded_Voltmeter/Basic WiFi Source/S
MSP430 Assembler PC v4.2.1 Fri Mar 21 13:42:36 2014

Tools Copyright (c) 2003-2013 Texas Instruments Incorporated
C:\Users\409010~1\AppData\Local\Temp\0593210                         PAGE   15

     767 00000c 531F          ADD.W     #1,r15                ; [] |107| 
     768 00000e 4DFF          MOV.B     @r13+,-1(r15)         ; [] |107| 
         000010 FFFF 
     769                    .dwpsn  file "C:/Users/409010855/Documents/GitHub/CHARM/Embedded_Voltmeter/Basic WiFi Source/S
     770 000012 831E          SUB.W     #1,r14                ; [] |106| 
     771 000014 23FB          JNE       $C$L2                 ; [] |106| 
     772                                                      ; [] |106| 
     773            ;* --------------------------------------------------------------------------*
     774 000016 403F          MOV.W     #12,r15               ; [] 
         000018 000C 
     775 00001a 5C0F          ADD.W     r12,r15               ; [] 
     776 00001c 4F81          MOV.W     r15,48(SP)            ; [] 
         00001e 0030 
     777 000020 403F          MOV.W     #13,r15               ; [] 
         000022 000D 
     778 000024 5C0F          ADD.W     r12,r15               ; [] 
     779 000026 4F81          MOV.W     r15,44(SP)            ; [] 
         000028 002C 
     780 00002a 40B1          MOV.W     #Rcon+1,46(SP)        ; [] 
         00002c 0001!
         00002e 002E 
     781 000030 403F          MOV.W     #16,r15               ; [] 
         000032 0010 
     782 000034 5C0F          ADD.W     r12,r15               ; [] 
     783 000036 4F81          MOV.W     r15,42(SP)            ; [] 
         000038 002A 
     784 00003a 403F          MOV.W     #14,r15               ; [] 
         00003c 000E 
     785 00003e 5C0F          ADD.W     r12,r15               ; [] 
     786 000040 4F81          MOV.W     r15,38(SP)            ; [] 
         000042 0026 
     787 000044 431F          MOV.W     #1,r15                ; [] 
     788 000046 5C0F          ADD.W     r12,r15               ; [] 
     789 000048 4F81          MOV.W     r15,40(SP)            ; [] 
         00004a 0028 
     790 00004c 403F          MOV.W     #17,r15               ; [] 
         00004e 0011 
     791 000050 5C0F          ADD.W     r12,r15               ; [] 
     792 000052 4F81          MOV.W     r15,36(SP)            ; [] 
         000054 0024 
     793 000056 403F          MOV.W     #15,r15               ; [] 
         000058 000F 
     794 00005a 5C0F          ADD.W     r12,r15               ; [] 
     795 00005c 4F81          MOV.W     r15,32(SP)            ; [] 
         00005e 0020 
     796 000060 432F          MOV.W     #2,r15                ; [] 
     797 000062 5C0F          ADD.W     r12,r15               ; [] 
     798 000064 4F81          MOV.W     r15,34(SP)            ; [] 
         000066 0022 
     799 000068 403F          MOV.W     #18,r15               ; [] 
         00006a 0012 
     800 00006c 5C0F          ADD.W     r12,r15               ; [] 
     801 00006e 4F81          MOV.W     r15,30(SP)            ; [] 
         000070 001E 
     802 000072 403F          MOV.W     #3,r15                ; [] 
MSP430 Assembler PC v4.2.1 Fri Mar 21 13:42:36 2014

Tools Copyright (c) 2003-2013 Texas Instruments Incorporated
C:\Users\409010~1\AppData\Local\Temp\0593210                         PAGE   16

         000074 0003 
     803 000076 5C0F          ADD.W     r12,r15               ; [] 
     804 000078 4F81          MOV.W     r15,28(SP)            ; [] 
         00007a 001C 
     805 00007c 403F          MOV.W     #19,r15               ; [] 
         00007e 0013 
     806 000080 5C0F          ADD.W     r12,r15               ; [] 
     807 000082 4F81          MOV.W     r15,26(SP)            ; [] 
         000084 001A 
     808 000086 422F          MOV.W     #4,r15                ; [] 
     809 000088 5C0F          ADD.W     r12,r15               ; [] 
     810 00008a 4F81          MOV.W     r15,24(SP)            ; [] 
         00008c 0018 
     811 00008e 403F          MOV.W     #20,r15               ; [] 
         000090 0014 
     812 000092 5C0F          ADD.W     r12,r15               ; [] 
     813 000094 403E          MOV.W     #5,r14                ; [] 
         000096 0005 
     814 000098 5C0E          ADD.W     r12,r14               ; [] 
     815 00009a 4E81          MOV.W     r14,22(SP)            ; [] 
         00009c 0016 
     816 00009e 403E          MOV.W     #21,r14               ; [] 
         0000a0 0015 
     817 0000a2 5C0E          ADD.W     r12,r14               ; [] 
     818 0000a4 403D          MOV.W     #6,r13                ; [] 
         0000a6 0006 
     819 0000a8 5C0D          ADD.W     r12,r13               ; [] 
     820 0000aa 4D81          MOV.W     r13,20(SP)            ; [] 
         0000ac 0014 
     821 0000ae 403D          MOV.W     #22,r13               ; [] 
         0000b0 0016 
     822 0000b2 5C0D          ADD.W     r12,r13               ; [] 
     823 0000b4 403B          MOV.W     #7,r11                ; [] 
         0000b6 0007 
     824 0000b8 5C0B          ADD.W     r12,r11               ; [] 
     825 0000ba 4B81          MOV.W     r11,18(SP)            ; [] 
         0000bc 0012 
     826 0000be 403B          MOV.W     #23,r11               ; [] 
         0000c0 0017 
     827 0000c2 5C0B          ADD.W     r12,r11               ; [] 
     828 0000c4 423A          MOV.W     #8,r10                ; [] 
     829 0000c6 5C0A          ADD.W     r12,r10               ; [] 
     830 0000c8 4A81          MOV.W     r10,16(SP)            ; [] 
         0000ca 0010 
     831 0000cc 403A          MOV.W     #24,r10               ; [] 
         0000ce 0018 
     832 0000d0 5C0A          ADD.W     r12,r10               ; [] 
     833 0000d2 4039          MOV.W     #9,r9                 ; [] 
         0000d4 0009 
     834 0000d6 5C09          ADD.W     r12,r9                ; [] 
     835 0000d8 4981          MOV.W     r9,14(SP)             ; [] 
         0000da 000E 
     836 0000dc 4039          MOV.W     #25,r9                ; [] 
         0000de 0019 
     837 0000e0 5C09          ADD.W     r12,r9                ; [] 
MSP430 Assembler PC v4.2.1 Fri Mar 21 13:42:36 2014

Tools Copyright (c) 2003-2013 Texas Instruments Incorporated
C:\Users\409010~1\AppData\Local\Temp\0593210                         PAGE   17

     838 0000e2 4038          MOV.W     #10,r8                ; [] 
         0000e4 000A 
     839 0000e6 5C08          ADD.W     r12,r8                ; [] 
     840 0000e8 4881          MOV.W     r8,12(SP)             ; [] 
         0000ea 000C 
     841 0000ec 4038          MOV.W     #26,r8                ; [] 
         0000ee 001A 
     842 0000f0 5C08          ADD.W     r12,r8                ; [] 
     843 0000f2 4037          MOV.W     #11,r7                ; [] 
         0000f4 000B 
     844 0000f6 5C07          ADD.W     r12,r7                ; [] 
     845 0000f8 4781          MOV.W     r7,10(SP)             ; [] 
         0000fa 000A 
     846 0000fc 4037          MOV.W     #27,r7                ; [] 
         0000fe 001B 
     847 000100 5C07          ADD.W     r12,r7                ; [] 
     848 000102 4035          MOV.W     #28,r5                ; [] 
         000104 001C 
     849 000106 5C05          ADD.W     r12,r5                ; [] 
     850 000108 4581          MOV.W     r5,8(SP)              ; [] 
         00010a 0008 
     851 00010c 4035          MOV.W     #29,r5                ; [] 
         00010e 001D 
     852 000110 5C05          ADD.W     r12,r5                ; [] 
     853 000112 4581          MOV.W     r5,6(SP)              ; [] 
         000114 0006 
     854 000116 4035          MOV.W     #30,r5                ; [] 
         000118 001E 
     855 00011a 5C05          ADD.W     r12,r5                ; [] 
     856 00011c 4581          MOV.W     r5,4(SP)              ; [] 
         00011e 0004 
     857 000120 4035          MOV.W     #31,r5                ; [] 
         000122 001F 
     858 000124 5C05          ADD.W     r12,r5                ; [] 
     859 000126 4581          MOV.W     r5,2(SP)              ; [] 
         000128 0002 
     860                    .dwpsn  file "C:/Users/409010855/Documents/GitHub/CHARM/Embedded_Voltmeter/Basic WiFi Source/S
     861 00012a 40B1          MOV.W     #10,0(SP)             ; [] |108| 
         00012c 000A 
         00012e 0000 
     862            ;* --------------------------------------------------------------------------*
     863            ;*   BEGIN LOOP $C$L3
     864            ;*
     865            ;*   Loop source line                : 108
     866            ;*   Loop closing brace source line  : 126
     867            ;*   Known Minimum Trip Count        : 10
     868            ;*   Known Maximum Trip Count        : 10
     869            ;*   Known Max Trip Count Factor     : 10
     870            ;* --------------------------------------------------------------------------*
     871 000130       $C$L3:    
     872 000130 4115          MOV.W     48(SP),r5             ; [] 
         000132 0030 
     873                    .dwpsn  file "C:/Users/409010855/Documents/GitHub/CHARM/Embedded_Voltmeter/Basic WiFi Source/S
     874 000134 4565          MOV.B     @r5,r5                ; [] |109| 
     875 000136 4114          MOV.W     44(SP),r4             ; [] 
MSP430 Assembler PC v4.2.1 Fri Mar 21 13:42:36 2014

Tools Copyright (c) 2003-2013 Texas Instruments Incorporated
C:\Users\409010~1\AppData\Local\Temp\0593210                         PAGE   18

         000138 002C 
     876                    .dwpsn  file "C:/Users/409010855/Documents/GitHub/CHARM/Embedded_Voltmeter/Basic WiFi Source/S
     877 00013a 4466          MOV.B     @r4,r6                ; [] |110| 
     878 00013c 4C64          MOV.B     @r12,r4               ; [] |110| 
     879 00013e E654          XOR.B     sbox+0(r6),r4         ; [] |110| 
         000140 0000!
     880 000142 4116          MOV.W     46(SP),r6             ; [] 
         000144 002E 
     881 000146 E674          XOR.B     @r6+,r4               ; [] |110| 
     882 000148 4681          MOV.W     r6,46(SP)             ; [] 
         00014a 002E 
     883 00014c 4116          MOV.W     42(SP),r6             ; [] 
         00014e 002A 
     884 000150 44C6          MOV.B     r4,0(r6)              ; [] |110| 
         000152 0000 
     885 000154 4114          MOV.W     38(SP),r4             ; [] 
         000156 0026 
     886                    .dwpsn  file "C:/Users/409010855/Documents/GitHub/CHARM/Embedded_Voltmeter/Basic WiFi Source/S
     887 000158 4466          MOV.B     @r4,r6                ; [] |111| 
     888 00015a 4114          MOV.W     40(SP),r4             ; [] 
         00015c 0028 
     889 00015e 4464          MOV.B     @r4,r4                ; [] |111| 
     890 000160 E654          XOR.B     sbox+0(r6),r4         ; [] |111| 
         000162 0000!
     891 000164 4116          MOV.W     36(SP),r6             ; [] 
         000166 0024 
     892 000168 44C6          MOV.B     r4,0(r6)              ; [] |111| 
         00016a 0000 
     893 00016c 4114          MOV.W     32(SP),r4             ; [] 
         00016e 0020 
     894                    .dwpsn  file "C:/Users/409010855/Documents/GitHub/CHARM/Embedded_Voltmeter/Basic WiFi Source/S
     895 000170 4466          MOV.B     @r4,r6                ; [] |112| 
     896 000172 4114          MOV.W     34(SP),r4             ; [] 
         000174 0022 
     897 000176 4464          MOV.B     @r4,r4                ; [] |112| 
     898 000178 E654          XOR.B     sbox+0(r6),r4         ; [] |112| 
         00017a 0000!
     899 00017c 4116          MOV.W     30(SP),r6             ; [] 
         00017e 001E 
     900 000180 44C6          MOV.B     r4,0(r6)              ; [] |112| 
         000182 0000 
     901                    .dwpsn  file "C:/Users/409010855/Documents/GitHub/CHARM/Embedded_Voltmeter/Basic WiFi Source/S
     902 000184 4545          MOV.B     r5,r5                 ; [] |113| 
     903 000186 4114          MOV.W     28(SP),r4             ; [] 
         000188 001C 
     904 00018a 4464          MOV.B     @r4,r4                ; [] |113| 
     905 00018c E554          XOR.B     sbox+0(r5),r4         ; [] |113| 
         00018e 0000!
     906 000190 4115          MOV.W     26(SP),r5             ; [] 
         000192 001A 
     907 000194 44C5          MOV.B     r4,0(r5)              ; [] |113| 
         000196 0000 
     908 000198 4115          MOV.W     42(SP),r5             ; [] 
         00019a 002A 
     909                    .dwpsn  file "C:/Users/409010855/Documents/GitHub/CHARM/Embedded_Voltmeter/Basic WiFi Source/S
MSP430 Assembler PC v4.2.1 Fri Mar 21 13:42:36 2014

Tools Copyright (c) 2003-2013 Texas Instruments Incorporated
C:\Users\409010~1\AppData\Local\Temp\0593210                         PAGE   19

     910 00019c 4564          MOV.B     @r5,r4                ; [] |114| 
     911 00019e 4115          MOV.W     24(SP),r5             ; [] 
         0001a0 0018 
     912 0001a2 E564          XOR.B     @r5,r4                ; [] |114| 
     913 0001a4 44CF          MOV.B     r4,0(r15)             ; [] |114| 
         0001a6 0000 
     914 0001a8 4115          MOV.W     36(SP),r5             ; [] 
         0001aa 0024 
     915                    .dwpsn  file "C:/Users/409010855/Documents/GitHub/CHARM/Embedded_Voltmeter/Basic WiFi Source/S
     916 0001ac 4564          MOV.B     @r5,r4                ; [] |115| 
     917 0001ae 4115          MOV.W     22(SP),r5             ; [] 
         0001b0 0016 
     918 0001b2 E564          XOR.B     @r5,r4                ; [] |115| 
     919 0001b4 44CE          MOV.B     r4,0(r14)             ; [] |115| 
         0001b6 0000 
     920 0001b8 06C5          MOVA      r6,r5                 ; [] 
     921                    .dwpsn  file "C:/Users/409010855/Documents/GitHub/CHARM/Embedded_Voltmeter/Basic WiFi Source/S
     922 0001ba 4564          MOV.B     @r5,r4                ; [] |116| 
     923 0001bc 4115          MOV.W     20(SP),r5             ; [] 
         0001be 0014 
     924 0001c0 E564          XOR.B     @r5,r4                ; [] |116| 
     925 0001c2 44CD          MOV.B     r4,0(r13)             ; [] |116| 
         0001c4 0000 
     926 0001c6 4115          MOV.W     26(SP),r5             ; [] 
         0001c8 001A 
     927                    .dwpsn  file "C:/Users/409010855/Documents/GitHub/CHARM/Embedded_Voltmeter/Basic WiFi Source/S
     928 0001ca 4564          MOV.B     @r5,r4                ; [] |117| 
     929 0001cc 4115          MOV.W     18(SP),r5             ; [] 
         0001ce 0012 
     930 0001d0 E564          XOR.B     @r5,r4                ; [] |117| 
     931 0001d2 44CB          MOV.B     r4,0(r11)             ; [] |117| 
         0001d4 0000 
     932                    .dwpsn  file "C:/Users/409010855/Documents/GitHub/CHARM/Embedded_Voltmeter/Basic WiFi Source/S
     933 0001d6 4F64          MOV.B     @r15,r4               ; [] |118| 
     934 0001d8 4115          MOV.W     16(SP),r5             ; [] 
         0001da 0010 
     935 0001dc E564          XOR.B     @r5,r4                ; [] |118| 
     936 0001de 44CA          MOV.B     r4,0(r10)             ; [] |118| 
         0001e0 0000 
     937                    .dwpsn  file "C:/Users/409010855/Documents/GitHub/CHARM/Embedded_Voltmeter/Basic WiFi Source/S
     938 0001e2 4E64          MOV.B     @r14,r4               ; [] |119| 
     939 0001e4 4115          MOV.W     14(SP),r5             ; [] 
         0001e6 000E 
     940 0001e8 E564          XOR.B     @r5,r4                ; [] |119| 
     941 0001ea 44C9          MOV.B     r4,0(r9)              ; [] |119| 
         0001ec 0000 
     942                    .dwpsn  file "C:/Users/409010855/Documents/GitHub/CHARM/Embedded_Voltmeter/Basic WiFi Source/S
     943 0001ee 4D64          MOV.B     @r13,r4               ; [] |120| 
     944 0001f0 4115          MOV.W     12(SP),r5             ; [] 
         0001f2 000C 
     945 0001f4 E564          XOR.B     @r5,r4                ; [] |120| 
     946 0001f6 44C8          MOV.B     r4,0(r8)              ; [] |120| 
         0001f8 0000 
     947                    .dwpsn  file "C:/Users/409010855/Documents/GitHub/CHARM/Embedded_Voltmeter/Basic WiFi Source/S
     948 0001fa 4B64          MOV.B     @r11,r4               ; [] |121| 
MSP430 Assembler PC v4.2.1 Fri Mar 21 13:42:36 2014

Tools Copyright (c) 2003-2013 Texas Instruments Incorporated
C:\Users\409010~1\AppData\Local\Temp\0593210                         PAGE   20

     949 0001fc 4115          MOV.W     10(SP),r5             ; [] 
         0001fe 000A 
     950 000200 E564          XOR.B     @r5,r4                ; [] |121| 
     951 000202 44C7          MOV.B     r4,0(r7)              ; [] |121| 
         000204 0000 
     952                    .dwpsn  file "C:/Users/409010855/Documents/GitHub/CHARM/Embedded_Voltmeter/Basic WiFi Source/S
     953 000206 4A64          MOV.B     @r10,r4               ; [] |122| 
     954 000208 4115          MOV.W     48(SP),r5             ; [] 
         00020a 0030 
     955 00020c E564          XOR.B     @r5,r4                ; [] |122| 
     956 00020e 4115          MOV.W     8(SP),r5              ; [] 
         000210 0008 
     957 000212 44C5          MOV.B     r4,0(r5)              ; [] |122| 
         000214 0000 
     958                    .dwpsn  file "C:/Users/409010855/Documents/GitHub/CHARM/Embedded_Voltmeter/Basic WiFi Source/S
     959 000216 4964          MOV.B     @r9,r4                ; [] |123| 
     960 000218 4115          MOV.W     44(SP),r5             ; [] 
         00021a 002C 
     961 00021c E564          XOR.B     @r5,r4                ; [] |123| 
     962 00021e 4115          MOV.W     6(SP),r5              ; [] 
         000220 0006 
     963 000222 44C5          MOV.B     r4,0(r5)              ; [] |123| 
         000224 0000 
     964                    .dwpsn  file "C:/Users/409010855/Documents/GitHub/CHARM/Embedded_Voltmeter/Basic WiFi Source/S
     965 000226 4864          MOV.B     @r8,r4                ; [] |124| 
     966 000228 4115          MOV.W     38(SP),r5             ; [] 
         00022a 0026 
     967 00022c E564          XOR.B     @r5,r4                ; [] |124| 
     968 00022e 4115          MOV.W     4(SP),r5              ; [] 
         000230 0004 
     969 000232 44C5          MOV.B     r4,0(r5)              ; [] |124| 
         000234 0000 
     970                    .dwpsn  file "C:/Users/409010855/Documents/GitHub/CHARM/Embedded_Voltmeter/Basic WiFi Source/S
     971 000236 4764          MOV.B     @r7,r4                ; [] |125| 
     972 000238 4115          MOV.W     32(SP),r5             ; [] 
         00023a 0020 
     973 00023c E564          XOR.B     @r5,r4                ; [] |125| 
     974 00023e 4115          MOV.W     2(SP),r5              ; [] 
         000240 0002 
     975 000242 44C5          MOV.B     r4,0(r5)              ; [] |125| 
         000244 0000 
     976                    .dwpsn  file "C:/Users/409010855/Documents/GitHub/CHARM/Embedded_Voltmeter/Basic WiFi Source/S
     977 000246 50B1          ADD.W     #16,48(SP)            ; [] |108| 
         000248 0010 
         00024a 0030 
     978 00024c 50B1          ADD.W     #16,44(SP)            ; [] |108| 
         00024e 0010 
         000250 002C 
     979 000252 503C          ADD.W     #16,r12               ; [] |108| 
         000254 0010 
     980 000256 50B1          ADD.W     #16,42(SP)            ; [] |108| 
         000258 0010 
         00025a 002A 
     981 00025c 50B1          ADD.W     #16,38(SP)            ; [] |108| 
         00025e 0010 
MSP430 Assembler PC v4.2.1 Fri Mar 21 13:42:36 2014

Tools Copyright (c) 2003-2013 Texas Instruments Incorporated
C:\Users\409010~1\AppData\Local\Temp\0593210                         PAGE   21

         000260 0026 
     982 000262 50B1          ADD.W     #16,40(SP)            ; [] |108| 
         000264 0010 
         000266 0028 
     983 000268 50B1          ADD.W     #16,36(SP)            ; [] |108| 
         00026a 0010 
         00026c 0024 
     984 00026e 50B1          ADD.W     #16,32(SP)            ; [] |108| 
         000270 0010 
         000272 0020 
     985 000274 50B1          ADD.W     #16,34(SP)            ; [] |108| 
         000276 0010 
         000278 0022 
     986 00027a 06C5          MOVA      r6,r5                 ; [] 
     987 00027c 5035          ADD.W     #16,r5                ; [] |108| 
         00027e 0010 
     988 000280 4581          MOV.W     r5,30(SP)             ; [] 
         000282 001E 
     989 000284 50B1          ADD.W     #16,28(SP)            ; [] |108| 
         000286 0010 
         000288 001C 
     990 00028a 50B1          ADD.W     #16,26(SP)            ; [] |108| 
         00028c 0010 
         00028e 001A 
     991 000290 50B1          ADD.W     #16,24(SP)            ; [] |108| 
         000292 0010 
         000294 0018 
     992 000296 503F          ADD.W     #16,r15               ; [] |108| 
         000298 0010 
     993 00029a 50B1          ADD.W     #16,22(SP)            ; [] |108| 
         00029c 0010 
         00029e 0016 
     994 0002a0 503E          ADD.W     #16,r14               ; [] |108| 
         0002a2 0010 
     995 0002a4 50B1          ADD.W     #16,20(SP)            ; [] |108| 
         0002a6 0010 
         0002a8 0014 
     996 0002aa 503D          ADD.W     #16,r13               ; [] |108| 
         0002ac 0010 
     997 0002ae 50B1          ADD.W     #16,18(SP)            ; [] |108| 
         0002b0 0010 
         0002b2 0012 
     998 0002b4 503B          ADD.W     #16,r11               ; [] |108| 
         0002b6 0010 
     999 0002b8 50B1          ADD.W     #16,16(SP)            ; [] |108| 
         0002ba 0010 
         0002bc 0010 
    1000 0002be 503A          ADD.W     #16,r10               ; [] |108| 
         0002c0 0010 
    1001 0002c2 50B1          ADD.W     #16,14(SP)            ; [] |108| 
         0002c4 0010 
         0002c6 000E 
    1002 0002c8 5039          ADD.W     #16,r9                ; [] |108| 
         0002ca 0010 
    1003 0002cc 50B1          ADD.W     #16,12(SP)            ; [] |108| 
MSP430 Assembler PC v4.2.1 Fri Mar 21 13:42:36 2014

Tools Copyright (c) 2003-2013 Texas Instruments Incorporated
C:\Users\409010~1\AppData\Local\Temp\0593210                         PAGE   22

         0002ce 0010 
         0002d0 000C 
    1004 0002d2 5038          ADD.W     #16,r8                ; [] |108| 
         0002d4 0010 
    1005 0002d6 50B1          ADD.W     #16,10(SP)            ; [] |108| 
         0002d8 0010 
         0002da 000A 
    1006 0002dc 5037          ADD.W     #16,r7                ; [] |108| 
         0002de 0010 
    1007 0002e0 50B1          ADD.W     #16,8(SP)             ; [] |108| 
         0002e2 0010 
         0002e4 0008 
    1008 0002e6 50B1          ADD.W     #16,6(SP)             ; [] |108| 
         0002e8 0010 
         0002ea 0006 
    1009 0002ec 50B1          ADD.W     #16,4(SP)             ; [] |108| 
         0002ee 0010 
         0002f0 0004 
    1010 0002f2 50B1          ADD.W     #16,2(SP)             ; [] |108| 
         0002f4 0010 
         0002f6 0002 
    1011 0002f8 8391          SUB.W     #1,0(SP)              ; [] |108| 
         0002fa 0000 
    1012 0002fc 2319          JNE       $C$L3                 ; [] |108| 
    1013                                                      ; [] |108| 
    1014            ;* --------------------------------------------------------------------------*
    1015 0002fe 5031          ADD.W     #50,SP                ; [] 
         000300 0032 
    1016                    .dwcfi  cfa_offset, 32
    1017 000302 1664          POPM.A    #7,r10                ; [] 
    1018                    .dwcfi  restore_reg, 4
    1019                    .dwcfi  restore_reg, 5
    1020                    .dwcfi  restore_reg, 6
    1021                    .dwcfi  restore_reg, 7
    1022                    .dwcfi  restore_reg, 8
    1023                    .dwcfi  restore_reg, 9
    1024                    .dwcfi  restore_reg, 10
    1025                    .dwcfi  cfa_offset, 4
    1026            $C$DW$26        .dwtag  DW_TAG_TI_branch
    1027                    .dwattr $C$DW$26, DW_AT_low_pc(0x00)
    1028                    .dwattr $C$DW$26, DW_AT_TI_return
    1029 000304 0110          RETA      ; [] 
    1030                    ; [] 
    1031                    .dwattr $C$DW$20, DW_AT_TI_end_file("C:/Users/409010855/Documents/GitHub/CHARM/Embedded_Voltme
    1032                    .dwattr $C$DW$20, DW_AT_TI_end_line(0x80)
    1033                    .dwattr $C$DW$20, DW_AT_TI_end_column(0x01)
    1034                    .dwendentry
    1035                    .dwendtag $C$DW$20
    1036            
    1037 000000               .sect   ".text:aes_write_key"
    1038                    .align  2
    1039                    .clink
    1040                    .global aes_write_key
    1041            
    1042            $C$DW$27        .dwtag  DW_TAG_subprogram, DW_AT_name("aes_write_key")
MSP430 Assembler PC v4.2.1 Fri Mar 21 13:42:36 2014

Tools Copyright (c) 2003-2013 Texas Instruments Incorporated
C:\Users\409010~1\AppData\Local\Temp\0593210                         PAGE   23

    1043                    .dwattr $C$DW$27, DW_AT_low_pc(aes_write_key)
    1044                    .dwattr $C$DW$27, DW_AT_high_pc(0x00)
    1045                    .dwattr $C$DW$27, DW_AT_TI_symbol_name("aes_write_key")
    1046                    .dwattr $C$DW$27, DW_AT_external
    1047                    .dwattr $C$DW$27, DW_AT_type(*$C$DW$T$39)
    1048                    .dwattr $C$DW$27, DW_AT_TI_begin_file("C:/Users/409010855/Documents/GitHub/CHARM/Embedded_Volt
    1049                    .dwattr $C$DW$27, DW_AT_TI_begin_line(0x202)
    1050                    .dwattr $C$DW$27, DW_AT_TI_begin_column(0x07)
    1051                    .dwattr $C$DW$27, DW_AT_TI_max_frame_size(0x0a)
    1052                    .dwpsn  file "C:/Users/409010855/Documents/GitHub/CHARM/Embedded_Voltmeter/Basic WiFi Source/S
    1053            
    1054                    .dwfde $C$DW$CIE, aes_write_key
    1055            $C$DW$28        .dwtag  DW_TAG_formal_parameter, DW_AT_name("key")
    1056                    .dwattr $C$DW$28, DW_AT_TI_symbol_name("key")
    1057                    .dwattr $C$DW$28, DW_AT_type(*$C$DW$T$20)
    1058                    .dwattr $C$DW$28, DW_AT_location[DW_OP_reg12]
    1059            
    1060            ;*****************************************************************************
    1061            ;* FUNCTION NAME: aes_write_key                                              *
    1062            ;*                                                                           *
    1063            ;*   Regs Modified     : SP,SR,r11,r12,r13,r14,r15                           *
    1064            ;*   Regs Used         : SP,SR,r11,r12,r13,r14,r15                           *
    1065            ;*   Local Frame Size  : 6 Args + 0 Auto + 0 Save = 6 byte                   *
    1066            ;*****************************************************************************
    1067            aes_write_key:
    1068            ;* --------------------------------------------------------------------------*
    1069            ;* r12   assigned to key
    1070            $C$DW$29        .dwtag  DW_TAG_variable, DW_AT_name("key")
    1071                    .dwattr $C$DW$29, DW_AT_TI_symbol_name("key")
    1072                    .dwattr $C$DW$29, DW_AT_type(*$C$DW$T$27)
    1073                    .dwattr $C$DW$29, DW_AT_location[DW_OP_reg12]
    1074            ;* r15   assigned to returnValue
    1075            $C$DW$30        .dwtag  DW_TAG_variable, DW_AT_name("returnValue")
    1076                    .dwattr $C$DW$30, DW_AT_TI_symbol_name("returnValue")
    1077                    .dwattr $C$DW$30, DW_AT_type(*$C$DW$T$39)
    1078                    .dwattr $C$DW$30, DW_AT_location[DW_OP_reg15 DW_OP_piece 2 DW_OP_reg16 DW_OP_piece 2]
    1079                    .dwcfi  cfa_offset, 4
    1080                    .dwcfi  save_reg_to_mem, 16, -4
    1081 000000 8031          SUB.W     #6,SP                 ; [] 
         000002 0006 
    1082                    .dwcfi  cfa_offset, 10
    1083                    .dwpsn  file "C:/Users/409010855/Documents/GitHub/CHARM/Embedded_Voltmeter/Basic WiFi Source/S
    1084 000004 1800          MOVX.A    #0,0(SP)              ; [] |518| 
         000006 43C1 
         000008 0000 
    1085 00000a 4C81          MOV.W     r12,4(SP)             ; [] |518| 
         00000c 0004 
    1086 00000e 403C          MOV.W     #12,r12               ; [] |518| 
         000010 000C 
    1087 000012 430D          MOV.W     #0,r13                ; [] |518| 
    1088 000014 403E          MOV.W     #16,r14               ; [] |518| 
         000016 0010 
    1089 000018 430F          MOV.W     #0,r15                ; [] |518| 
    1090            $C$DW$31        .dwtag  DW_TAG_TI_branch
    1091                    .dwattr $C$DW$31, DW_AT_low_pc(0x00)
MSP430 Assembler PC v4.2.1 Fri Mar 21 13:42:36 2014

Tools Copyright (c) 2003-2013 Texas Instruments Incorporated
C:\Users\409010~1\AppData\Local\Temp\0593210                         PAGE   24

    1092                    .dwattr $C$DW$31, DW_AT_name("nvmem_write")
    1093                    .dwattr $C$DW$31, DW_AT_TI_call
    1094 00001a 13B0!         CALLA     #nvmem_write          ; [] |518| 
         00001c 0000 
    1095                                                      ; [] |518| 
    1096 00001e 5031          ADD.W     #6,SP                 ; [] 
         000020 0006 
    1097                    .dwcfi  cfa_offset, 4
    1098            $C$DW$32        .dwtag  DW_TAG_TI_branch
    1099                    .dwattr $C$DW$32, DW_AT_low_pc(0x00)
    1100                    .dwattr $C$DW$32, DW_AT_TI_return
    1101 000022 0110          RETA      ; [] 
    1102                    ; [] 
    1103                    .dwattr $C$DW$27, DW_AT_TI_end_file("C:/Users/409010855/Documents/GitHub/CHARM/Embedded_Voltme
    1104                    .dwattr $C$DW$27, DW_AT_TI_end_line(0x209)
    1105                    .dwattr $C$DW$27, DW_AT_TI_end_column(0x01)
    1106                    .dwendentry
    1107                    .dwendtag $C$DW$27
    1108            
    1109 000000               .sect   ".text:aes_read_key"
    1110                    .align  2
    1111                    .clink
    1112                    .global aes_read_key
    1113            
    1114            $C$DW$33        .dwtag  DW_TAG_subprogram, DW_AT_name("aes_read_key")
    1115                    .dwattr $C$DW$33, DW_AT_low_pc(aes_read_key)
    1116                    .dwattr $C$DW$33, DW_AT_high_pc(0x00)
    1117                    .dwattr $C$DW$33, DW_AT_TI_symbol_name("aes_read_key")
    1118                    .dwattr $C$DW$33, DW_AT_external
    1119                    .dwattr $C$DW$33, DW_AT_type(*$C$DW$T$39)
    1120                    .dwattr $C$DW$33, DW_AT_TI_begin_file("C:/Users/409010855/Documents/GitHub/CHARM/Embedded_Volt
    1121                    .dwattr $C$DW$33, DW_AT_TI_begin_line(0x1eb)
    1122                    .dwattr $C$DW$33, DW_AT_TI_begin_column(0x07)
    1123                    .dwattr $C$DW$33, DW_AT_TI_max_frame_size(0x0a)
    1124                    .dwpsn  file "C:/Users/409010855/Documents/GitHub/CHARM/Embedded_Voltmeter/Basic WiFi Source/S
    1125            
    1126                    .dwfde $C$DW$CIE, aes_read_key
    1127            $C$DW$34        .dwtag  DW_TAG_formal_parameter, DW_AT_name("key")
    1128                    .dwattr $C$DW$34, DW_AT_TI_symbol_name("key")
    1129                    .dwattr $C$DW$34, DW_AT_type(*$C$DW$T$20)
    1130                    .dwattr $C$DW$34, DW_AT_location[DW_OP_reg12]
    1131            
    1132            ;*****************************************************************************
    1133            ;* FUNCTION NAME: aes_read_key                                               *
    1134            ;*                                                                           *
    1135            ;*   Regs Modified     : SP,SR,r11,r12,r13,r14,r15                           *
    1136            ;*   Regs Used         : SP,SR,r11,r12,r13,r14,r15                           *
    1137            ;*   Local Frame Size  : 6 Args + 0 Auto + 0 Save = 6 byte                   *
    1138            ;*****************************************************************************
    1139            aes_read_key:
    1140            ;* --------------------------------------------------------------------------*
    1141            ;* r12   assigned to key
    1142            $C$DW$35        .dwtag  DW_TAG_variable, DW_AT_name("key")
    1143                    .dwattr $C$DW$35, DW_AT_TI_symbol_name("key")
    1144                    .dwattr $C$DW$35, DW_AT_type(*$C$DW$T$27)
MSP430 Assembler PC v4.2.1 Fri Mar 21 13:42:36 2014

Tools Copyright (c) 2003-2013 Texas Instruments Incorporated
C:\Users\409010~1\AppData\Local\Temp\0593210                         PAGE   25

    1145                    .dwattr $C$DW$35, DW_AT_location[DW_OP_reg12]
    1146            ;* r15   assigned to returnValue
    1147            $C$DW$36        .dwtag  DW_TAG_variable, DW_AT_name("returnValue")
    1148                    .dwattr $C$DW$36, DW_AT_TI_symbol_name("returnValue")
    1149                    .dwattr $C$DW$36, DW_AT_type(*$C$DW$T$39)
    1150                    .dwattr $C$DW$36, DW_AT_location[DW_OP_reg15 DW_OP_piece 2 DW_OP_reg16 DW_OP_piece 2]
    1151                    .dwcfi  cfa_offset, 4
    1152                    .dwcfi  save_reg_to_mem, 16, -4
    1153 000000 8031          SUB.W     #6,SP                 ; [] 
         000002 0006 
    1154                    .dwcfi  cfa_offset, 10
    1155                    .dwpsn  file "C:/Users/409010855/Documents/GitHub/CHARM/Embedded_Voltmeter/Basic WiFi Source/S
    1156 000004 1800          MOVX.A    #0,0(SP)              ; [] |495| 
         000006 43C1 
         000008 0000 
    1157 00000a 4C81          MOV.W     r12,4(SP)             ; [] |495| 
         00000c 0004 
    1158 00000e 403C          MOV.W     #12,r12               ; [] |495| 
         000010 000C 
    1159 000012 430D          MOV.W     #0,r13                ; [] |495| 
    1160 000014 403E          MOV.W     #16,r14               ; [] |495| 
         000016 0010 
    1161 000018 430F          MOV.W     #0,r15                ; [] |495| 
    1162            $C$DW$37        .dwtag  DW_TAG_TI_branch
    1163                    .dwattr $C$DW$37, DW_AT_low_pc(0x00)
    1164                    .dwattr $C$DW$37, DW_AT_name("nvmem_read")
    1165                    .dwattr $C$DW$37, DW_AT_TI_call
    1166 00001a 13B0!         CALLA     #nvmem_read           ; [] |495| 
         00001c 0000 
    1167                                                      ; [] |495| 
    1168 00001e 5031          ADD.W     #6,SP                 ; [] 
         000020 0006 
    1169                    .dwcfi  cfa_offset, 4
    1170            $C$DW$38        .dwtag  DW_TAG_TI_branch
    1171                    .dwattr $C$DW$38, DW_AT_low_pc(0x00)
    1172                    .dwattr $C$DW$38, DW_AT_TI_return
    1173 000022 0110          RETA      ; [] 
    1174                    ; [] 
    1175                    .dwattr $C$DW$33, DW_AT_TI_end_file("C:/Users/409010855/Documents/GitHub/CHARM/Embedded_Voltme
    1176                    .dwattr $C$DW$33, DW_AT_TI_end_line(0x1f2)
    1177                    .dwattr $C$DW$33, DW_AT_TI_end_column(0x01)
    1178                    .dwendentry
    1179                    .dwendtag $C$DW$33
    1180            
    1181 000000               .sect   ".text:aes_encr"
    1182                    .align  2
    1183                    .clink
    1184                    .global aes_encr
    1185            
    1186            $C$DW$39        .dwtag  DW_TAG_subprogram, DW_AT_name("aes_encr")
    1187                    .dwattr $C$DW$39, DW_AT_low_pc(aes_encr)
    1188                    .dwattr $C$DW$39, DW_AT_high_pc(0x00)
    1189                    .dwattr $C$DW$39, DW_AT_TI_symbol_name("aes_encr")
    1190                    .dwattr $C$DW$39, DW_AT_external
    1191                    .dwattr $C$DW$39, DW_AT_TI_begin_file("C:/Users/409010855/Documents/GitHub/CHARM/Embedded_Volt
MSP430 Assembler PC v4.2.1 Fri Mar 21 13:42:36 2014

Tools Copyright (c) 2003-2013 Texas Instruments Incorporated
C:\Users\409010~1\AppData\Local\Temp\0593210                         PAGE   26

    1192                    .dwattr $C$DW$39, DW_AT_TI_begin_line(0xb0)
    1193                    .dwattr $C$DW$39, DW_AT_TI_begin_column(0x06)
    1194                    .dwattr $C$DW$39, DW_AT_TI_max_frame_size(0x74)
    1195                    .dwpsn  file "C:/Users/409010855/Documents/GitHub/CHARM/Embedded_Voltmeter/Basic WiFi Source/S
    1196            
    1197                    .dwfde $C$DW$CIE, aes_encr
    1198            $C$DW$40        .dwtag  DW_TAG_formal_parameter, DW_AT_name("state")
    1199                    .dwattr $C$DW$40, DW_AT_TI_symbol_name("state")
    1200                    .dwattr $C$DW$40, DW_AT_type(*$C$DW$T$20)
    1201                    .dwattr $C$DW$40, DW_AT_location[DW_OP_reg12]
    1202            $C$DW$41        .dwtag  DW_TAG_formal_parameter, DW_AT_name("expandedKey")
    1203                    .dwattr $C$DW$41, DW_AT_TI_symbol_name("expandedKey")
    1204                    .dwattr $C$DW$41, DW_AT_type(*$C$DW$T$20)
    1205                    .dwattr $C$DW$41, DW_AT_location[DW_OP_reg13]
    1206            
    1207            ;*****************************************************************************
    1208            ;* FUNCTION NAME: aes_encr                                                   *
    1209            ;*                                                                           *
    1210            ;*   Regs Modified     : SP,SR,r4,r5,r6,r7,r8,r9,r10,r11,r12,r14,r15         *
    1211            ;*   Regs Used         : SP,SR,r4,r5,r6,r7,r8,r9,r10,r11,r12,r13,r14,r15     *
    1212            ;*   Local Frame Size  : 0 Args + 84 Auto + 28 Save = 112 byte               *
    1213            ;*****************************************************************************
    1214            aes_encr:
    1215            ;* --------------------------------------------------------------------------*
    1216            ;* r7    assigned to $O$C1
    1217            ;* r8    assigned to $O$C2
    1218            ;* r7    assigned to $O$C3
    1219            ;* r8    assigned to $O$C4
    1220            ;* r7    assigned to $O$C5
    1221            ;* r8    assigned to $O$C6
    1222            ;* r9    assigned to $O$C7
    1223            ;* r8    assigned to $O$C8
    1224            ;* r7    assigned to $O$C9
    1225            ;* r15   assigned to $O$Q1
    1226            ;* r15   assigned to $O$Q2
    1227            ;* r15   assigned to $O$Q3
    1228            ;* r15   assigned to $O$Q4
    1229            ;* r15   assigned to $O$Q5
    1230            ;* r15   assigned to $O$Q6
    1231            ;* r15   assigned to $O$Q7
    1232            ;* r15   assigned to $O$Q8
    1233            ;* r15   assigned to $O$Q9
    1234            ;* r15   assigned to $O$Q10
    1235            ;* r15   assigned to $O$Q11
    1236            ;* r15   assigned to $O$Q12
    1237            ;* r15   assigned to $O$Q13
    1238            ;* r15   assigned to $O$Q14
    1239            ;* r15   assigned to $O$Q15
    1240            ;* r4    assigned to $O$U7
    1241            ;* r10   assigned to $O$K103
    1242            ;* r11   assigned to $O$K114
    1243            ;* r14   assigned to $O$K121
    1244            ;* r15   assigned to $O$K130
    1245            ;* r9    assigned to value
    1246            $C$DW$42        .dwtag  DW_TAG_variable, DW_AT_name("value")
MSP430 Assembler PC v4.2.1 Fri Mar 21 13:42:36 2014

Tools Copyright (c) 2003-2013 Texas Instruments Incorporated
C:\Users\409010~1\AppData\Local\Temp\0593210                         PAGE   27

    1247                    .dwattr $C$DW$42, DW_AT_TI_symbol_name("value")
    1248                    .dwattr $C$DW$42, DW_AT_type(*$C$DW$T$19)
    1249                    .dwattr $C$DW$42, DW_AT_location[DW_OP_reg9]
    1250            ;* r9    assigned to value
    1251            $C$DW$43        .dwtag  DW_TAG_variable, DW_AT_name("value")
    1252                    .dwattr $C$DW$43, DW_AT_TI_symbol_name("value")
    1253                    .dwattr $C$DW$43, DW_AT_type(*$C$DW$T$19)
    1254                    .dwattr $C$DW$43, DW_AT_location[DW_OP_reg9]
    1255            ;* r9    assigned to value
    1256            $C$DW$44        .dwtag  DW_TAG_variable, DW_AT_name("value")
    1257                    .dwattr $C$DW$44, DW_AT_TI_symbol_name("value")
    1258                    .dwattr $C$DW$44, DW_AT_type(*$C$DW$T$19)
    1259                    .dwattr $C$DW$44, DW_AT_location[DW_OP_reg9]
    1260            ;* r8    assigned to value
    1261            $C$DW$45        .dwtag  DW_TAG_variable, DW_AT_name("value")
    1262                    .dwattr $C$DW$45, DW_AT_TI_symbol_name("value")
    1263                    .dwattr $C$DW$45, DW_AT_type(*$C$DW$T$19)
    1264                    .dwattr $C$DW$45, DW_AT_location[DW_OP_reg8]
    1265            ;* r7    assigned to value
    1266            $C$DW$46        .dwtag  DW_TAG_variable, DW_AT_name("value")
    1267                    .dwattr $C$DW$46, DW_AT_TI_symbol_name("value")
    1268                    .dwattr $C$DW$46, DW_AT_type(*$C$DW$T$19)
    1269                    .dwattr $C$DW$46, DW_AT_location[DW_OP_reg7]
    1270            ;* r9    assigned to value
    1271            $C$DW$47        .dwtag  DW_TAG_variable, DW_AT_name("value")
    1272                    .dwattr $C$DW$47, DW_AT_TI_symbol_name("value")
    1273                    .dwattr $C$DW$47, DW_AT_type(*$C$DW$T$19)
    1274                    .dwattr $C$DW$47, DW_AT_location[DW_OP_reg9]
    1275            ;* r7    assigned to value
    1276            $C$DW$48        .dwtag  DW_TAG_variable, DW_AT_name("value")
    1277                    .dwattr $C$DW$48, DW_AT_TI_symbol_name("value")
    1278                    .dwattr $C$DW$48, DW_AT_type(*$C$DW$T$19)
    1279                    .dwattr $C$DW$48, DW_AT_location[DW_OP_reg7]
    1280            ;* r8    assigned to value
    1281            $C$DW$49        .dwtag  DW_TAG_variable, DW_AT_name("value")
    1282                    .dwattr $C$DW$49, DW_AT_TI_symbol_name("value")
    1283                    .dwattr $C$DW$49, DW_AT_type(*$C$DW$T$19)
    1284                    .dwattr $C$DW$49, DW_AT_location[DW_OP_reg8]
    1285            ;* r7    assigned to value
    1286            $C$DW$50        .dwtag  DW_TAG_variable, DW_AT_name("value")
    1287                    .dwattr $C$DW$50, DW_AT_TI_symbol_name("value")
    1288                    .dwattr $C$DW$50, DW_AT_type(*$C$DW$T$19)
    1289                    .dwattr $C$DW$50, DW_AT_location[DW_OP_reg7]
    1290            ;* r9    assigned to value
    1291            $C$DW$51        .dwtag  DW_TAG_variable, DW_AT_name("value")
    1292                    .dwattr $C$DW$51, DW_AT_TI_symbol_name("value")
    1293                    .dwattr $C$DW$51, DW_AT_type(*$C$DW$T$19)
    1294                    .dwattr $C$DW$51, DW_AT_location[DW_OP_reg9]
    1295            ;* r7    assigned to value
    1296            $C$DW$52        .dwtag  DW_TAG_variable, DW_AT_name("value")
    1297                    .dwattr $C$DW$52, DW_AT_TI_symbol_name("value")
    1298                    .dwattr $C$DW$52, DW_AT_type(*$C$DW$T$19)
    1299                    .dwattr $C$DW$52, DW_AT_location[DW_OP_reg7]
    1300            ;* r8    assigned to value
    1301            $C$DW$53        .dwtag  DW_TAG_variable, DW_AT_name("value")
MSP430 Assembler PC v4.2.1 Fri Mar 21 13:42:36 2014

Tools Copyright (c) 2003-2013 Texas Instruments Incorporated
C:\Users\409010~1\AppData\Local\Temp\0593210                         PAGE   28

    1302                    .dwattr $C$DW$53, DW_AT_TI_symbol_name("value")
    1303                    .dwattr $C$DW$53, DW_AT_type(*$C$DW$T$19)
    1304                    .dwattr $C$DW$53, DW_AT_location[DW_OP_reg8]
    1305            ;* r7    assigned to value
    1306            $C$DW$54        .dwtag  DW_TAG_variable, DW_AT_name("value")
    1307                    .dwattr $C$DW$54, DW_AT_TI_symbol_name("value")
    1308                    .dwattr $C$DW$54, DW_AT_type(*$C$DW$T$19)
    1309                    .dwattr $C$DW$54, DW_AT_location[DW_OP_reg7]
    1310            ;* r9    assigned to value
    1311            $C$DW$55        .dwtag  DW_TAG_variable, DW_AT_name("value")
    1312                    .dwattr $C$DW$55, DW_AT_TI_symbol_name("value")
    1313                    .dwattr $C$DW$55, DW_AT_type(*$C$DW$T$19)
    1314                    .dwattr $C$DW$55, DW_AT_location[DW_OP_reg9]
    1315            ;* r7    assigned to value
    1316            $C$DW$56        .dwtag  DW_TAG_variable, DW_AT_name("value")
    1317                    .dwattr $C$DW$56, DW_AT_TI_symbol_name("value")
    1318                    .dwattr $C$DW$56, DW_AT_type(*$C$DW$T$19)
    1319                    .dwattr $C$DW$56, DW_AT_location[DW_OP_reg7]
    1320            ;* r8    assigned to value
    1321            $C$DW$57        .dwtag  DW_TAG_variable, DW_AT_name("value")
    1322                    .dwattr $C$DW$57, DW_AT_TI_symbol_name("value")
    1323                    .dwattr $C$DW$57, DW_AT_type(*$C$DW$T$19)
    1324                    .dwattr $C$DW$57, DW_AT_location[DW_OP_reg8]
    1325            ;* r13   assigned to expandedKey
    1326            $C$DW$58        .dwtag  DW_TAG_variable, DW_AT_name("expandedKey")
    1327                    .dwattr $C$DW$58, DW_AT_TI_symbol_name("expandedKey")
    1328                    .dwattr $C$DW$58, DW_AT_type(*$C$DW$T$27)
    1329                    .dwattr $C$DW$58, DW_AT_location[DW_OP_reg13]
    1330            ;* r12   assigned to state
    1331            $C$DW$59        .dwtag  DW_TAG_variable, DW_AT_name("state")
    1332                    .dwattr $C$DW$59, DW_AT_TI_symbol_name("state")
    1333                    .dwattr $C$DW$59, DW_AT_type(*$C$DW$T$27)
    1334                    .dwattr $C$DW$59, DW_AT_location[DW_OP_reg12]
    1335            ;* r9    assigned to buf3
    1336            $C$DW$60        .dwtag  DW_TAG_variable, DW_AT_name("buf3")
    1337                    .dwattr $C$DW$60, DW_AT_TI_symbol_name("buf3")
    1338                    .dwattr $C$DW$60, DW_AT_type(*$C$DW$T$10)
    1339                    .dwattr $C$DW$60, DW_AT_location[DW_OP_reg9]
    1340            ;* r7    assigned to buf3
    1341            $C$DW$61        .dwtag  DW_TAG_variable, DW_AT_name("buf3")
    1342                    .dwattr $C$DW$61, DW_AT_TI_symbol_name("buf3")
    1343                    .dwattr $C$DW$61, DW_AT_type(*$C$DW$T$10)
    1344                    .dwattr $C$DW$61, DW_AT_location[DW_OP_reg7]
    1345            ;* r7    assigned to buf3
    1346            $C$DW$62        .dwtag  DW_TAG_variable, DW_AT_name("buf3")
    1347                    .dwattr $C$DW$62, DW_AT_TI_symbol_name("buf3")
    1348                    .dwattr $C$DW$62, DW_AT_type(*$C$DW$T$10)
    1349                    .dwattr $C$DW$62, DW_AT_location[DW_OP_reg7]
    1350            ;* r7    assigned to buf3
    1351            $C$DW$63        .dwtag  DW_TAG_variable, DW_AT_name("buf3")
    1352                    .dwattr $C$DW$63, DW_AT_TI_symbol_name("buf3")
    1353                    .dwattr $C$DW$63, DW_AT_type(*$C$DW$T$10)
    1354                    .dwattr $C$DW$63, DW_AT_location[DW_OP_reg7]
    1355            ;* r7    assigned to buf3
    1356            $C$DW$64        .dwtag  DW_TAG_variable, DW_AT_name("buf3")
MSP430 Assembler PC v4.2.1 Fri Mar 21 13:42:36 2014

Tools Copyright (c) 2003-2013 Texas Instruments Incorporated
C:\Users\409010~1\AppData\Local\Temp\0593210                         PAGE   29

    1357                    .dwattr $C$DW$64, DW_AT_TI_symbol_name("buf3")
    1358                    .dwattr $C$DW$64, DW_AT_type(*$C$DW$T$10)
    1359                    .dwattr $C$DW$64, DW_AT_location[DW_OP_reg7]
    1360            ;* r7    assigned to buf3
    1361            $C$DW$65        .dwtag  DW_TAG_variable, DW_AT_name("buf3")
    1362                    .dwattr $C$DW$65, DW_AT_TI_symbol_name("buf3")
    1363                    .dwattr $C$DW$65, DW_AT_type(*$C$DW$T$10)
    1364                    .dwattr $C$DW$65, DW_AT_location[DW_OP_reg7]
    1365            ;* r7    assigned to buf3
    1366            $C$DW$66        .dwtag  DW_TAG_variable, DW_AT_name("buf3")
    1367                    .dwattr $C$DW$66, DW_AT_TI_symbol_name("buf3")
    1368                    .dwattr $C$DW$66, DW_AT_type(*$C$DW$T$10)
    1369                    .dwattr $C$DW$66, DW_AT_location[DW_OP_reg7]
    1370            ;* r8    assigned to buf3
    1371            $C$DW$67        .dwtag  DW_TAG_variable, DW_AT_name("buf3")
    1372                    .dwattr $C$DW$67, DW_AT_TI_symbol_name("buf3")
    1373                    .dwattr $C$DW$67, DW_AT_type(*$C$DW$T$10)
    1374                    .dwattr $C$DW$67, DW_AT_location[DW_OP_reg8]
    1375            ;* r7    assigned to buf3
    1376            $C$DW$68        .dwtag  DW_TAG_variable, DW_AT_name("buf3")
    1377                    .dwattr $C$DW$68, DW_AT_TI_symbol_name("buf3")
    1378                    .dwattr $C$DW$68, DW_AT_type(*$C$DW$T$10)
    1379                    .dwattr $C$DW$68, DW_AT_location[DW_OP_reg7]
    1380            ;* r7    assigned to buf3
    1381            $C$DW$69        .dwtag  DW_TAG_variable, DW_AT_name("buf3")
    1382                    .dwattr $C$DW$69, DW_AT_TI_symbol_name("buf3")
    1383                    .dwattr $C$DW$69, DW_AT_type(*$C$DW$T$10)
    1384                    .dwattr $C$DW$69, DW_AT_location[DW_OP_reg7]
    1385            ;* r7    assigned to buf3
    1386            $C$DW$70        .dwtag  DW_TAG_variable, DW_AT_name("buf3")
    1387                    .dwattr $C$DW$70, DW_AT_TI_symbol_name("buf3")
    1388                    .dwattr $C$DW$70, DW_AT_type(*$C$DW$T$10)
    1389                    .dwattr $C$DW$70, DW_AT_location[DW_OP_reg7]
    1390            ;* r8    assigned to buf3
    1391            $C$DW$71        .dwtag  DW_TAG_variable, DW_AT_name("buf3")
    1392                    .dwattr $C$DW$71, DW_AT_TI_symbol_name("buf3")
    1393                    .dwattr $C$DW$71, DW_AT_type(*$C$DW$T$10)
    1394                    .dwattr $C$DW$71, DW_AT_location[DW_OP_reg8]
    1395            ;* r7    assigned to buf3
    1396            $C$DW$72        .dwtag  DW_TAG_variable, DW_AT_name("buf3")
    1397                    .dwattr $C$DW$72, DW_AT_TI_symbol_name("buf3")
    1398                    .dwattr $C$DW$72, DW_AT_type(*$C$DW$T$10)
    1399                    .dwattr $C$DW$72, DW_AT_location[DW_OP_reg7]
    1400            ;* r7    assigned to buf3
    1401            $C$DW$73        .dwtag  DW_TAG_variable, DW_AT_name("buf3")
    1402                    .dwattr $C$DW$73, DW_AT_TI_symbol_name("buf3")
    1403                    .dwattr $C$DW$73, DW_AT_type(*$C$DW$T$10)
    1404                    .dwattr $C$DW$73, DW_AT_location[DW_OP_reg7]
    1405            ;* r7    assigned to buf3
    1406            $C$DW$74        .dwtag  DW_TAG_variable, DW_AT_name("buf3")
    1407                    .dwattr $C$DW$74, DW_AT_TI_symbol_name("buf3")
    1408                    .dwattr $C$DW$74, DW_AT_type(*$C$DW$T$10)
    1409                    .dwattr $C$DW$74, DW_AT_location[DW_OP_reg7]
    1410            ;* r8    assigned to buf3
    1411            $C$DW$75        .dwtag  DW_TAG_variable, DW_AT_name("buf3")
MSP430 Assembler PC v4.2.1 Fri Mar 21 13:42:36 2014

Tools Copyright (c) 2003-2013 Texas Instruments Incorporated
C:\Users\409010~1\AppData\Local\Temp\0593210                         PAGE   30

    1412                    .dwattr $C$DW$75, DW_AT_TI_symbol_name("buf3")
    1413                    .dwattr $C$DW$75, DW_AT_type(*$C$DW$T$10)
    1414                    .dwattr $C$DW$75, DW_AT_location[DW_OP_reg8]
    1415            ;* r6    assigned to buf2
    1416            $C$DW$76        .dwtag  DW_TAG_variable, DW_AT_name("buf2")
    1417                    .dwattr $C$DW$76, DW_AT_TI_symbol_name("buf2")
    1418                    .dwattr $C$DW$76, DW_AT_type(*$C$DW$T$19)
    1419                    .dwattr $C$DW$76, DW_AT_location[DW_OP_reg6]
    1420            ;* r8    assigned to buf2
    1421            $C$DW$77        .dwtag  DW_TAG_variable, DW_AT_name("buf2")
    1422                    .dwattr $C$DW$77, DW_AT_TI_symbol_name("buf2")
    1423                    .dwattr $C$DW$77, DW_AT_type(*$C$DW$T$19)
    1424                    .dwattr $C$DW$77, DW_AT_location[DW_OP_reg8]
    1425            ;* r8    assigned to buf2
    1426            $C$DW$78        .dwtag  DW_TAG_variable, DW_AT_name("buf2")
    1427                    .dwattr $C$DW$78, DW_AT_TI_symbol_name("buf2")
    1428                    .dwattr $C$DW$78, DW_AT_type(*$C$DW$T$19)
    1429                    .dwattr $C$DW$78, DW_AT_location[DW_OP_reg8]
    1430            ;* r8    assigned to buf2
    1431            $C$DW$79        .dwtag  DW_TAG_variable, DW_AT_name("buf2")
    1432                    .dwattr $C$DW$79, DW_AT_TI_symbol_name("buf2")
    1433                    .dwattr $C$DW$79, DW_AT_type(*$C$DW$T$19)
    1434                    .dwattr $C$DW$79, DW_AT_location[DW_OP_reg8]
    1435            ;* r8    assigned to buf2
    1436            $C$DW$80        .dwtag  DW_TAG_variable, DW_AT_name("buf2")
    1437                    .dwattr $C$DW$80, DW_AT_TI_symbol_name("buf2")
    1438                    .dwattr $C$DW$80, DW_AT_type(*$C$DW$T$19)
    1439                    .dwattr $C$DW$80, DW_AT_location[DW_OP_reg8]
    1440            ;* r7    assigned to buf2
    1441            $C$DW$81        .dwtag  DW_TAG_variable, DW_AT_name("buf2")
    1442                    .dwattr $C$DW$81, DW_AT_TI_symbol_name("buf2")
    1443                    .dwattr $C$DW$81, DW_AT_type(*$C$DW$T$19)
    1444                    .dwattr $C$DW$81, DW_AT_location[DW_OP_reg7]
    1445            ;* r7    assigned to buf1
    1446            $C$DW$82        .dwtag  DW_TAG_variable, DW_AT_name("buf1")
    1447                    .dwattr $C$DW$82, DW_AT_TI_symbol_name("buf1")
    1448                    .dwattr $C$DW$82, DW_AT_type(*$C$DW$T$19)
    1449                    .dwattr $C$DW$82, DW_AT_location[DW_OP_reg7]
    1450            ;* r7    assigned to buf1
    1451            $C$DW$83        .dwtag  DW_TAG_variable, DW_AT_name("buf1")
    1452                    .dwattr $C$DW$83, DW_AT_TI_symbol_name("buf1")
    1453                    .dwattr $C$DW$83, DW_AT_type(*$C$DW$T$19)
    1454                    .dwattr $C$DW$83, DW_AT_location[DW_OP_reg7]
    1455            ;* r7    assigned to buf1
    1456            $C$DW$84        .dwtag  DW_TAG_variable, DW_AT_name("buf1")
    1457                    .dwattr $C$DW$84, DW_AT_TI_symbol_name("buf1")
    1458                    .dwattr $C$DW$84, DW_AT_type(*$C$DW$T$19)
    1459                    .dwattr $C$DW$84, DW_AT_location[DW_OP_reg7]
    1460            ;* r6    assigned to buf1
    1461            $C$DW$85        .dwtag  DW_TAG_variable, DW_AT_name("buf1")
    1462                    .dwattr $C$DW$85, DW_AT_TI_symbol_name("buf1")
    1463                    .dwattr $C$DW$85, DW_AT_type(*$C$DW$T$19)
    1464                    .dwattr $C$DW$85, DW_AT_location[DW_OP_reg6]
    1465            ;* r6    assigned to buf1
    1466            $C$DW$86        .dwtag  DW_TAG_variable, DW_AT_name("buf1")
MSP430 Assembler PC v4.2.1 Fri Mar 21 13:42:36 2014

Tools Copyright (c) 2003-2013 Texas Instruments Incorporated
C:\Users\409010~1\AppData\Local\Temp\0593210                         PAGE   31

    1467                    .dwattr $C$DW$86, DW_AT_TI_symbol_name("buf1")
    1468                    .dwattr $C$DW$86, DW_AT_type(*$C$DW$T$19)
    1469                    .dwattr $C$DW$86, DW_AT_location[DW_OP_reg6]
    1470            ;* r6    assigned to buf1
    1471            $C$DW$87        .dwtag  DW_TAG_variable, DW_AT_name("buf1")
    1472                    .dwattr $C$DW$87, DW_AT_TI_symbol_name("buf1")
    1473                    .dwattr $C$DW$87, DW_AT_type(*$C$DW$T$19)
    1474                    .dwattr $C$DW$87, DW_AT_location[DW_OP_reg6]
    1475            ;* r6    assigned to buf1
    1476            $C$DW$88        .dwtag  DW_TAG_variable, DW_AT_name("buf1")
    1477                    .dwattr $C$DW$88, DW_AT_TI_symbol_name("buf1")
    1478                    .dwattr $C$DW$88, DW_AT_type(*$C$DW$T$19)
    1479                    .dwattr $C$DW$88, DW_AT_location[DW_OP_reg6]
    1480            ;* r7    assigned to buf1
    1481            $C$DW$89        .dwtag  DW_TAG_variable, DW_AT_name("buf1")
    1482                    .dwattr $C$DW$89, DW_AT_TI_symbol_name("buf1")
    1483                    .dwattr $C$DW$89, DW_AT_type(*$C$DW$T$19)
    1484                    .dwattr $C$DW$89, DW_AT_location[DW_OP_reg7]
    1485            ;* r8    assigned to buf1
    1486            $C$DW$90        .dwtag  DW_TAG_variable, DW_AT_name("buf1")
    1487                    .dwattr $C$DW$90, DW_AT_TI_symbol_name("buf1")
    1488                    .dwattr $C$DW$90, DW_AT_type(*$C$DW$T$19)
    1489                    .dwattr $C$DW$90, DW_AT_location[DW_OP_reg8]
    1490            ;* r8    assigned to buf1
    1491            $C$DW$91        .dwtag  DW_TAG_variable, DW_AT_name("buf1")
    1492                    .dwattr $C$DW$91, DW_AT_TI_symbol_name("buf1")
    1493                    .dwattr $C$DW$91, DW_AT_type(*$C$DW$T$19)
    1494                    .dwattr $C$DW$91, DW_AT_location[DW_OP_reg8]
    1495                    .dwcfi  cfa_offset, 4
    1496                    .dwcfi  save_reg_to_mem, 16, -4
    1497 000000 146A          PUSHM.A   #7,r10                ; [] 
    1498                    .dwcfi  save_reg_to_mem, 10, -8
    1499                    .dwcfi  save_reg_to_mem, 9, -12
    1500                    .dwcfi  save_reg_to_mem, 8, -16
    1501                    .dwcfi  save_reg_to_mem, 7, -20
    1502                    .dwcfi  save_reg_to_mem, 6, -24
    1503                    .dwcfi  save_reg_to_mem, 5, -28
    1504                    .dwcfi  save_reg_to_mem, 4, -32
    1505                    .dwcfi  cfa_offset, 32
    1506 000002 8031          SUB.W     #84,SP                ; [] 
         000004 0054 
    1507                    .dwcfi  cfa_offset, 116
    1508 000006 0DC4          MOVA      r13,r4                ; [] 
    1509 000008 422F          MOV.W     #4,r15                ; [] 
    1510 00000a 5C0F          ADD.W     r12,r15               ; [] 
    1511 00000c 4F81          MOV.W     r15,2(SP)             ; [] 
         00000e 0002 
    1512 000010 422F          MOV.W     #4,r15                ; [] 
    1513 000012 540F          ADD.W     r4,r15                ; [] 
    1514 000014 4F81          MOV.W     r15,52(SP)            ; [] 
         000016 0034 
    1515 000018 4F81          MOV.W     r15,0(SP)             ; [] 
         00001a 0000 
    1516 00001c 423F          MOV.W     #8,r15                ; [] 
    1517 00001e 5C0F          ADD.W     r12,r15               ; [] 
MSP430 Assembler PC v4.2.1 Fri Mar 21 13:42:36 2014

Tools Copyright (c) 2003-2013 Texas Instruments Incorporated
C:\Users\409010~1\AppData\Local\Temp\0593210                         PAGE   32

    1518 000020 4F81          MOV.W     r15,6(SP)             ; [] 
         000022 0006 
    1519 000024 423F          MOV.W     #8,r15                ; [] 
    1520 000026 540F          ADD.W     r4,r15                ; [] 
    1521 000028 4F81          MOV.W     r15,54(SP)            ; [] 
         00002a 0036 
    1522 00002c 4F81          MOV.W     r15,4(SP)             ; [] 
         00002e 0004 
    1523 000030 403F          MOV.W     #12,r15               ; [] 
         000032 000C 
    1524 000034 5C0F          ADD.W     r12,r15               ; [] 
    1525 000036 4F81          MOV.W     r15,10(SP)            ; [] 
         000038 000A 
    1526 00003a 403F          MOV.W     #12,r15               ; [] 
         00003c 000C 
    1527 00003e 540F          ADD.W     r4,r15                ; [] 
    1528 000040 4F81          MOV.W     r15,56(SP)            ; [] 
         000042 0038 
    1529 000044 4F81          MOV.W     r15,8(SP)             ; [] 
         000046 0008 
    1530 000048 431F          MOV.W     #1,r15                ; [] 
    1531 00004a 5C0F          ADD.W     r12,r15               ; [] 
    1532 00004c 4F81          MOV.W     r15,14(SP)            ; [] 
         00004e 000E 
    1533 000050 431F          MOV.W     #1,r15                ; [] 
    1534 000052 540F          ADD.W     r4,r15                ; [] 
    1535 000054 4F81          MOV.W     r15,58(SP)            ; [] 
         000056 003A 
    1536 000058 4F81          MOV.W     r15,12(SP)            ; [] 
         00005a 000C 
    1537 00005c 403F          MOV.W     #5,r15                ; [] 
         00005e 0005 
    1538 000060 5C0F          ADD.W     r12,r15               ; [] 
    1539 000062 4F81          MOV.W     r15,18(SP)            ; [] 
         000064 0012 
    1540 000066 403F          MOV.W     #5,r15                ; [] 
         000068 0005 
    1541 00006a 540F          ADD.W     r4,r15                ; [] 
    1542 00006c 4F81          MOV.W     r15,60(SP)            ; [] 
         00006e 003C 
    1543 000070 4F81          MOV.W     r15,16(SP)            ; [] 
         000072 0010 
    1544 000074 403F          MOV.W     #9,r15                ; [] 
         000076 0009 
    1545 000078 5C0F          ADD.W     r12,r15               ; [] 
    1546 00007a 4F81          MOV.W     r15,22(SP)            ; [] 
         00007c 0016 
    1547 00007e 403F          MOV.W     #9,r15                ; [] 
         000080 0009 
    1548 000082 540F          ADD.W     r4,r15                ; [] 
    1549 000084 4F81          MOV.W     r15,62(SP)            ; [] 
         000086 003E 
    1550 000088 4F81          MOV.W     r15,20(SP)            ; [] 
         00008a 0014 
    1551 00008c 403F          MOV.W     #13,r15               ; [] 
MSP430 Assembler PC v4.2.1 Fri Mar 21 13:42:36 2014

Tools Copyright (c) 2003-2013 Texas Instruments Incorporated
C:\Users\409010~1\AppData\Local\Temp\0593210                         PAGE   33

         00008e 000D 
    1552 000090 5C0F          ADD.W     r12,r15               ; [] 
    1553 000092 4F81          MOV.W     r15,26(SP)            ; [] 
         000094 001A 
    1554 000096 403F          MOV.W     #13,r15               ; [] 
         000098 000D 
    1555 00009a 540F          ADD.W     r4,r15                ; [] 
    1556 00009c 4F81          MOV.W     r15,64(SP)            ; [] 
         00009e 0040 
    1557 0000a0 4F81          MOV.W     r15,24(SP)            ; [] 
         0000a2 0018 
    1558 0000a4 432F          MOV.W     #2,r15                ; [] 
    1559 0000a6 5C0F          ADD.W     r12,r15               ; [] 
    1560 0000a8 4F81          MOV.W     r15,30(SP)            ; [] 
         0000aa 001E 
    1561 0000ac 432F          MOV.W     #2,r15                ; [] 
    1562 0000ae 540F          ADD.W     r4,r15                ; [] 
    1563 0000b0 4F81          MOV.W     r15,66(SP)            ; [] 
         0000b2 0042 
    1564 0000b4 4F81          MOV.W     r15,28(SP)            ; [] 
         0000b6 001C 
    1565 0000b8 403F          MOV.W     #6,r15                ; [] 
         0000ba 0006 
    1566 0000bc 5C0F          ADD.W     r12,r15               ; [] 
    1567 0000be 4F81          MOV.W     r15,34(SP)            ; [] 
         0000c0 0022 
    1568 0000c2 403F          MOV.W     #6,r15                ; [] 
         0000c4 0006 
    1569 0000c6 540F          ADD.W     r4,r15                ; [] 
    1570 0000c8 4F81          MOV.W     r15,68(SP)            ; [] 
         0000ca 0044 
    1571 0000cc 4F81          MOV.W     r15,32(SP)            ; [] 
         0000ce 0020 
    1572 0000d0 403F          MOV.W     #10,r15               ; [] 
         0000d2 000A 
    1573 0000d4 5C0F          ADD.W     r12,r15               ; [] 
    1574 0000d6 4F81          MOV.W     r15,38(SP)            ; [] 
         0000d8 0026 
    1575 0000da 403F          MOV.W     #10,r15               ; [] 
         0000dc 000A 
    1576 0000de 540F          ADD.W     r4,r15                ; [] 
    1577 0000e0 4F81          MOV.W     r15,70(SP)            ; [] 
         0000e2 0046 
    1578 0000e4 4F81          MOV.W     r15,36(SP)            ; [] 
         0000e6 0024 
    1579 0000e8 403A          MOV.W     #14,r10               ; [] 
         0000ea 000E 
    1580 0000ec 5C0A          ADD.W     r12,r10               ; [] 
    1581 0000ee 403F          MOV.W     #14,r15               ; [] 
         0000f0 000E 
    1582 0000f2 540F          ADD.W     r4,r15                ; [] 
    1583 0000f4 4F81          MOV.W     r15,72(SP)            ; [] 
         0000f6 0048 
    1584 0000f8 4F81          MOV.W     r15,40(SP)            ; [] 
         0000fa 0028 
MSP430 Assembler PC v4.2.1 Fri Mar 21 13:42:36 2014

Tools Copyright (c) 2003-2013 Texas Instruments Incorporated
C:\Users\409010~1\AppData\Local\Temp\0593210                         PAGE   34

    1585 0000fc 403B          MOV.W     #15,r11               ; [] 
         0000fe 000F 
    1586 000100 5C0B          ADD.W     r12,r11               ; [] 
    1587 000102 403F          MOV.W     #15,r15               ; [] 
         000104 000F 
    1588 000106 540F          ADD.W     r4,r15                ; [] 
    1589 000108 4F81          MOV.W     r15,74(SP)            ; [] 
         00010a 004A 
    1590 00010c 4F81          MOV.W     r15,42(SP)            ; [] 
         00010e 002A 
    1591 000110 403E          MOV.W     #11,r14               ; [] 
         000112 000B 
    1592 000114 5C0E          ADD.W     r12,r14               ; [] 
    1593 000116 403F          MOV.W     #11,r15               ; [] 
         000118 000B 
    1594 00011a 540F          ADD.W     r4,r15                ; [] 
    1595 00011c 4F81          MOV.W     r15,76(SP)            ; [] 
         00011e 004C 
    1596 000120 4F81          MOV.W     r15,44(SP)            ; [] 
         000122 002C 
    1597 000124 403F          MOV.W     #7,r15                ; [] 
         000126 0007 
    1598 000128 5C0F          ADD.W     r12,r15               ; [] 
    1599 00012a 4039          MOV.W     #7,r9                 ; [] 
         00012c 0007 
    1600 00012e 5409          ADD.W     r4,r9                 ; [] 
    1601 000130 4981          MOV.W     r9,78(SP)             ; [] 
         000132 004E 
    1602 000134 4981          MOV.W     r9,46(SP)             ; [] 
         000136 002E 
    1603 000138 4039          MOV.W     #3,r9                 ; [] 
         00013a 0003 
    1604 00013c 5C09          ADD.W     r12,r9                ; [] 
    1605 00013e 4981          MOV.W     r9,50(SP)             ; [] 
         000140 0032 
    1606 000142 4039          MOV.W     #3,r9                 ; [] 
         000144 0003 
    1607 000146 5409          ADD.W     r4,r9                 ; [] 
    1608 000148 4981          MOV.W     r9,80(SP)             ; [] 
         00014a 0050 
    1609 00014c 4981          MOV.W     r9,48(SP)             ; [] 
         00014e 0030 
    1610                    .dwpsn  file "C:/Users/409010855/Documents/GitHub/CHARM/Embedded_Voltmeter/Basic WiFi Source/S
    1611 000150 40B1          MOV.W     #9,82(SP)             ; [] |180| 
         000152 0009 
         000154 0052 
    1612            ;* --------------------------------------------------------------------------*
    1613            ;*   BEGIN LOOP $C$L4
    1614            ;*
    1615            ;*   Loop source line                : 180
    1616            ;*   Loop closing brace source line  : 237
    1617            ;*   Known Minimum Trip Count        : 9
    1618            ;*   Known Maximum Trip Count        : 9
    1619            ;*   Known Max Trip Count Factor     : 9
    1620            ;* --------------------------------------------------------------------------*
MSP430 Assembler PC v4.2.1 Fri Mar 21 13:42:36 2014

Tools Copyright (c) 2003-2013 Texas Instruments Incorporated
C:\Users\409010~1\AppData\Local\Temp\0593210                         PAGE   35

    1621 000156       $C$L4:    
    1622                    .dwpsn  file "C:/Users/409010855/Documents/GitHub/CHARM/Embedded_Voltmeter/Basic WiFi Source/S
    1623 000156 4469          MOV.B     @r4,r9                ; [] |183| 
    1624 000158 EC69          XOR.B     @r12,r9               ; [] |183| 
    1625 00015a 49DC          MOV.B     sbox+0(r9),0(r12)     ; [] |183| 
         00015c 0000!
         00015e 0000 
    1626 000160 4129          MOV.W     0(SP),r9              ; [] 
    1627                    .dwpsn  file "C:/Users/409010855/Documents/GitHub/CHARM/Embedded_Voltmeter/Basic WiFi Source/S
    1628 000162 4969          MOV.B     @r9,r9                ; [] |184| 
    1629 000164 4118          MOV.W     2(SP),r8              ; [] 
         000166 0002 
    1630                    .dwpsn  file "C:/Users/409010855/Documents/GitHub/CHARM/Embedded_Voltmeter/Basic WiFi Source/S
    1631            $C$DW$92        .dwtag  DW_TAG_TI_branch
    1632                    .dwattr $C$DW$92, DW_AT_low_pc(0x00)
    1633                    .dwattr $C$DW$92, DW_AT_name("$abproc11")
    1634                    .dwattr $C$DW$92, DW_AT_TI_call
    1635 000168 13B0!         CALLA     #$abproc11            ; [] |275| 
         00016a 073A 
    1636                                                      ; [] |275| 
    1637 00016c 4119          MOV.W     4(SP),r9              ; [] 
         00016e 0004 
    1638                    .dwpsn  file "C:/Users/409010855/Documents/GitHub/CHARM/Embedded_Voltmeter/Basic WiFi Source/S
    1639 000170 4969          MOV.B     @r9,r9                ; [] |185| 
    1640 000172 4118          MOV.W     6(SP),r8              ; [] 
         000174 0006 
    1641                    .dwpsn  file "C:/Users/409010855/Documents/GitHub/CHARM/Embedded_Voltmeter/Basic WiFi Source/S
    1642            $C$DW$93        .dwtag  DW_TAG_TI_branch
    1643                    .dwattr $C$DW$93, DW_AT_low_pc(0x00)
    1644                    .dwattr $C$DW$93, DW_AT_name("$abproc11")
    1645                    .dwattr $C$DW$93, DW_AT_TI_call
    1646 000176 13B0!         CALLA     #$abproc11            ; [] |275| 
         000178 073A 
    1647                                                      ; [] |275| 
    1648 00017a 4119          MOV.W     8(SP),r9              ; [] 
         00017c 0008 
    1649                    .dwpsn  file "C:/Users/409010855/Documents/GitHub/CHARM/Embedded_Voltmeter/Basic WiFi Source/S
    1650 00017e 4969          MOV.B     @r9,r9                ; [] |186| 
    1651 000180 4118          MOV.W     10(SP),r8             ; [] 
         000182 000A 
    1652                    .dwpsn  file "C:/Users/409010855/Documents/GitHub/CHARM/Embedded_Voltmeter/Basic WiFi Source/S
    1653            $C$DW$94        .dwtag  DW_TAG_TI_branch
    1654                    .dwattr $C$DW$94, DW_AT_low_pc(0x00)
    1655                    .dwattr $C$DW$94, DW_AT_name("$abproc11")
    1656                    .dwattr $C$DW$94, DW_AT_TI_call
    1657 000184 13B0!         CALLA     #$abproc11            ; [] |275| 
         000186 073A 
    1658                                                      ; [] |275| 
    1659 000188 4119          MOV.W     12(SP),r9             ; [] 
         00018a 000C 
    1660                    .dwpsn  file "C:/Users/409010855/Documents/GitHub/CHARM/Embedded_Voltmeter/Basic WiFi Source/S
    1661 00018c 4967          MOV.B     @r9,r7                ; [] |188| 
    1662 00018e 4119          MOV.W     14(SP),r9             ; [] 
         000190 000E 
    1663 000192 E967          XOR.B     @r9,r7                ; [] |188| 
MSP430 Assembler PC v4.2.1 Fri Mar 21 13:42:36 2014

Tools Copyright (c) 2003-2013 Texas Instruments Incorporated
C:\Users\409010~1\AppData\Local\Temp\0593210                         PAGE   36

    1664 000194 4119          MOV.W     16(SP),r9             ; [] 
         000196 0010 
    1665                    .dwpsn  file "C:/Users/409010855/Documents/GitHub/CHARM/Embedded_Voltmeter/Basic WiFi Source/S
    1666 000198 4969          MOV.B     @r9,r9                ; [] |189| 
    1667                    .dwpsn  file "C:/Users/409010855/Documents/GitHub/CHARM/Embedded_Voltmeter/Basic WiFi Source/S
    1668            $C$DW$95        .dwtag  DW_TAG_TI_branch
    1669                    .dwattr $C$DW$95, DW_AT_low_pc(0x00)
    1670                    .dwattr $C$DW$95, DW_AT_name("$abproc0")
    1671                    .dwattr $C$DW$95, DW_AT_TI_call
    1672 00019a 13B0!         CALLA     #$abproc0             ; [] |275| 
         00019c 06B8 
    1673                                                      ; [] |275| 
    1674 00019e 4119          MOV.W     20(SP),r9             ; [] 
         0001a0 0014 
    1675                    .dwpsn  file "C:/Users/409010855/Documents/GitHub/CHARM/Embedded_Voltmeter/Basic WiFi Source/S
    1676 0001a2 4969          MOV.B     @r9,r9                ; [] |190| 
    1677                    .dwpsn  file "C:/Users/409010855/Documents/GitHub/CHARM/Embedded_Voltmeter/Basic WiFi Source/S
    1678            $C$DW$96        .dwtag  DW_TAG_TI_branch
    1679                    .dwattr $C$DW$96, DW_AT_low_pc(0x00)
    1680                    .dwattr $C$DW$96, DW_AT_name("$abproc1")
    1681                    .dwattr $C$DW$96, DW_AT_TI_call
    1682 0001a4 13B0!         CALLA     #$abproc1             ; [] |275| 
         0001a6 06C8 
    1683                                                      ; [] |275| 
    1684 0001a8 4119          MOV.W     24(SP),r9             ; [] 
         0001aa 0018 
    1685                    .dwpsn  file "C:/Users/409010855/Documents/GitHub/CHARM/Embedded_Voltmeter/Basic WiFi Source/S
    1686 0001ac 4969          MOV.B     @r9,r9                ; [] |191| 
    1687 0001ae 4118          MOV.W     26(SP),r8             ; [] 
         0001b0 001A 
    1688                    .dwpsn  file "C:/Users/409010855/Documents/GitHub/CHARM/Embedded_Voltmeter/Basic WiFi Source/S
    1689            $C$DW$97        .dwtag  DW_TAG_TI_branch
    1690                    .dwattr $C$DW$97, DW_AT_low_pc(0x00)
    1691                    .dwattr $C$DW$97, DW_AT_name("$abproc2")
    1692                    .dwattr $C$DW$97, DW_AT_TI_call
    1693 0001b2 13B0!         CALLA     #$abproc2             ; [] |275| 
         0001b4 06D8 
    1694                                                      ; [] |275| 
    1695 0001b6 4119          MOV.W     26(SP),r9             ; [] 
         0001b8 001A 
    1696                    .dwpsn  file "C:/Users/409010855/Documents/GitHub/CHARM/Embedded_Voltmeter/Basic WiFi Source/S
    1697 0001ba 47D9          MOV.B     sbox+0(r7),0(r9)      ; [] |192| 
         0001bc 0000!
         0001be 0000 
    1698 0001c0 4119          MOV.W     28(SP),r9             ; [] 
         0001c2 001C 
    1699                    .dwpsn  file "C:/Users/409010855/Documents/GitHub/CHARM/Embedded_Voltmeter/Basic WiFi Source/S
    1700 0001c4 4967          MOV.B     @r9,r7                ; [] |194| 
    1701 0001c6 4119          MOV.W     30(SP),r9             ; [] 
         0001c8 001E 
    1702 0001ca E967          XOR.B     @r9,r7                ; [] |194| 
    1703 0001cc 4119          MOV.W     32(SP),r9             ; [] 
         0001ce 0020 
    1704                    .dwpsn  file "C:/Users/409010855/Documents/GitHub/CHARM/Embedded_Voltmeter/Basic WiFi Source/S
    1705 0001d0 4966          MOV.B     @r9,r6                ; [] |195| 
MSP430 Assembler PC v4.2.1 Fri Mar 21 13:42:36 2014

Tools Copyright (c) 2003-2013 Texas Instruments Incorporated
C:\Users\409010~1\AppData\Local\Temp\0593210                         PAGE   37

    1706 0001d2 4119          MOV.W     34(SP),r9             ; [] 
         0001d4 0022 
    1707 0001d6 E966          XOR.B     @r9,r6                ; [] |195| 
    1708 0001d8 4119          MOV.W     36(SP),r9             ; [] 
         0001da 0024 
    1709                    .dwpsn  file "C:/Users/409010855/Documents/GitHub/CHARM/Embedded_Voltmeter/Basic WiFi Source/S
    1710 0001dc 4968          MOV.B     @r9,r8                ; [] |196| 
    1711 0001de 4119          MOV.W     38(SP),r9             ; [] 
         0001e0 0026 
    1712 0001e2 E968          XOR.B     @r9,r8                ; [] |196| 
    1713 0001e4 4119          MOV.W     30(SP),r9             ; [] 
         0001e6 001E 
    1714 0001e8 48D9          MOV.B     sbox+0(r8),0(r9)      ; [] |196| 
         0001ea 0000!
         0001ec 0000 
    1715 0001ee 4119          MOV.W     40(SP),r9             ; [] 
         0001f0 0028 
    1716                    .dwpsn  file "C:/Users/409010855/Documents/GitHub/CHARM/Embedded_Voltmeter/Basic WiFi Source/S
    1717 0001f2 4969          MOV.B     @r9,r9                ; [] |197| 
    1718 0001f4 EA69          XOR.B     @r10,r9               ; [] |197| 
    1719 0001f6 4118          MOV.W     34(SP),r8             ; [] 
         0001f8 0022 
    1720                    .dwpsn  file "C:/Users/409010855/Documents/GitHub/CHARM/Embedded_Voltmeter/Basic WiFi Source/S
    1721            $C$DW$98        .dwtag  DW_TAG_TI_branch
    1722                    .dwattr $C$DW$98, DW_AT_low_pc(0x00)
    1723                    .dwattr $C$DW$98, DW_AT_name("$abproc13")
    1724                    .dwattr $C$DW$98, DW_AT_TI_call
    1725 0001fa 13B0!         CALLA     #$abproc13            ; [] |275| 
         0001fc 074C 
    1726                                                      ; [] |275| 
    1727 0001fe 4119          MOV.W     38(SP),r9             ; [] 
         000200 0026 
    1728                    .dwpsn  file "C:/Users/409010855/Documents/GitHub/CHARM/Embedded_Voltmeter/Basic WiFi Source/S
    1729 000202 47D9          MOV.B     sbox+0(r7),0(r9)      ; [] |198| 
         000204 0000!
         000206 0000 
    1730                    .dwpsn  file "C:/Users/409010855/Documents/GitHub/CHARM/Embedded_Voltmeter/Basic WiFi Source/S
    1731 000208 46DA          MOV.B     sbox+0(r6),0(r10)     ; [] |199| 
         00020a 0000!
         00020c 0000 
    1732 00020e 4119          MOV.W     42(SP),r9             ; [] 
         000210 002A 
    1733                    .dwpsn  file "C:/Users/409010855/Documents/GitHub/CHARM/Embedded_Voltmeter/Basic WiFi Source/S
    1734 000212 4967          MOV.B     @r9,r7                ; [] |201| 
    1735 000214 EB67          XOR.B     @r11,r7               ; [] |201| 
    1736 000216 4119          MOV.W     44(SP),r9             ; [] 
         000218 002C 
    1737                    .dwpsn  file "C:/Users/409010855/Documents/GitHub/CHARM/Embedded_Voltmeter/Basic WiFi Source/S
    1738 00021a 4969          MOV.B     @r9,r9                ; [] |202| 
    1739 00021c EE69          XOR.B     @r14,r9               ; [] |202| 
    1740 00021e 49DB          MOV.B     sbox+0(r9),0(r11)     ; [] |202| 
         000220 0000!
         000222 0000 
    1741 000224 4119          MOV.W     46(SP),r9             ; [] 
         000226 002E 
MSP430 Assembler PC v4.2.1 Fri Mar 21 13:42:36 2014

Tools Copyright (c) 2003-2013 Texas Instruments Incorporated
C:\Users\409010~1\AppData\Local\Temp\0593210                         PAGE   38

    1742                    .dwpsn  file "C:/Users/409010855/Documents/GitHub/CHARM/Embedded_Voltmeter/Basic WiFi Source/S
    1743 000228 4969          MOV.B     @r9,r9                ; [] |203| 
    1744 00022a EF69          XOR.B     @r15,r9               ; [] |203| 
    1745 00022c 49DE          MOV.B     sbox+0(r9),0(r14)     ; [] |203| 
         00022e 0000!
         000230 0000 
    1746 000232 4119          MOV.W     48(SP),r9             ; [] 
         000234 0030 
    1747                    .dwpsn  file "C:/Users/409010855/Documents/GitHub/CHARM/Embedded_Voltmeter/Basic WiFi Source/S
    1748 000236 4969          MOV.B     @r9,r9                ; [] |204| 
    1749 000238 4118          MOV.W     50(SP),r8             ; [] 
         00023a 0032 
    1750 00023c E869          XOR.B     @r8,r9                ; [] |204| 
    1751 00023e 49DF          MOV.B     sbox+0(r9),0(r15)     ; [] |204| 
         000240 0000!
         000242 0000 
    1752                    .dwpsn  file "C:/Users/409010855/Documents/GitHub/CHARM/Embedded_Voltmeter/Basic WiFi Source/S
    1753 000244 4757          MOV.B     sbox+0(r7),r7         ; [] |205| 
         000246 0000!
    1754 000248 08C9          MOVA      r8,r9                 ; [] 
    1755 00024a 47C9          MOV.B     r7,0(r9)              ; [] |205| 
         00024c 0000 
    1756 00024e 4119          MOV.W     14(SP),r9             ; [] 
         000250 000E 
    1757                    .dwpsn  file "C:/Users/409010855/Documents/GitHub/CHARM/Embedded_Voltmeter/Basic WiFi Source/S
    1758 000252 4969          MOV.B     @r9,r9                ; [] |209| 
    1759 000254 4C68          MOV.B     @r12,r8               ; [] |209| 
    1760 000256 08C6          MOVA      r8,r6                 ; [] |209| 
    1761 000258 E946          XOR.B     r9,r6                 ; [] |209| 
    1762 00025a 4115          MOV.W     30(SP),r5             ; [] 
         00025c 001E 
    1763 00025e E566          XOR.B     @r5,r6                ; [] |209| 
    1764 000260 E746          XOR.B     r7,r6                 ; [] |209| 
    1765                    .dwpsn  file "C:/Users/409010855/Documents/GitHub/CHARM/Embedded_Voltmeter/Basic WiFi Source/S
    1766 000262 E849          XOR.B     r8,r9                 ; [] |211| 
    1767                    .dwpsn  file "C:/Users/409010855/Documents/GitHub/CHARM/Embedded_Voltmeter/Basic WiFi Source/S
    1768 000264 4947          MOV.B     r9,r7                 ; [] |144| 
    1769 000266 1946          RPT #7 || RRUX.W r7 ; [] |144| 
         000268 1007 
    1770 00026a 9307          TST.W     r7                    ; [] |144| 
    1771 00026c 2003          JNE       $C$L5                 ; [] |144| 
    1772                                                      ; [] |144| 
    1773            ;* --------------------------------------------------------------------------*
    1774                    .dwpsn  file "C:/Users/409010855/Documents/GitHub/CHARM/Embedded_Voltmeter/Basic WiFi Source/S
    1775 00026e 5949          RLA.B     r9                    ; [] |149| 
    1776 000270 4949          MOV.B     r9,r9                 ; [] |149| 
    1777 000272 3C04          JMP       $C$L6                 ; [] |149| 
    1778                                                      ; [] |149| 
    1779            ;* --------------------------------------------------------------------------*
    1780 000274       $C$L5:    
    1781                    .dwpsn  file "C:/Users/409010855/Documents/GitHub/CHARM/Embedded_Voltmeter/Basic WiFi Source/S
    1782 000274 5949          RLA.B     r9                    ; [] |147| 
    1783 000276 4949          MOV.B     r9,r9                 ; [] |147| 
    1784 000278 E039          XOR.W     #27,r9                ; [] |147| 
         00027a 001B 
MSP430 Assembler PC v4.2.1 Fri Mar 21 13:42:36 2014

Tools Copyright (c) 2003-2013 Texas Instruments Incorporated
C:\Users\409010~1\AppData\Local\Temp\0593210                         PAGE   39

    1785            ;* --------------------------------------------------------------------------*
    1786 00027c       $C$L6:    
    1787                    .dwpsn  file "C:/Users/409010855/Documents/GitHub/CHARM/Embedded_Voltmeter/Basic WiFi Source/S
    1788 00027c 06C7          MOVA      r6,r7                 ; [] |211| 
    1789 00027e EC67          XOR.B     @r12,r7               ; [] |211| 
    1790 000280 E749          XOR.B     r7,r9                 ; [] |211| 
    1791 000282 49CC          MOV.B     r9,0(r12)             ; [] |211| 
         000284 0000 
    1792 000286 05C9          MOVA      r5,r9                 ; [] 
    1793                    .dwpsn  file "C:/Users/409010855/Documents/GitHub/CHARM/Embedded_Voltmeter/Basic WiFi Source/S
    1794 000288 4969          MOV.B     @r9,r9                ; [] |212| 
    1795 00028a 4117          MOV.W     14(SP),r7             ; [] 
         00028c 000E 
    1796                    .dwpsn  file "C:/Users/409010855/Documents/GitHub/CHARM/Embedded_Voltmeter/Basic WiFi Source/S
    1797            $C$DW$99        .dwtag  DW_TAG_TI_branch
    1798                    .dwattr $C$DW$99, DW_AT_low_pc(0x00)
    1799                    .dwattr $C$DW$99, DW_AT_name("$abproc8")
    1800                    .dwattr $C$DW$99, DW_AT_TI_call
    1801 00028e 13B0!         CALLA     #$abproc8             ; [] |275| 
         000290 071A 
    1802                                                      ; [] |275| 
    1803                    .dwpsn  file "C:/Users/409010855/Documents/GitHub/CHARM/Embedded_Voltmeter/Basic WiFi Source/S
    1804 000292 2003          JNE       $C$L7                 ; [] |144| 
    1805                                                      ; [] |144| 
    1806            ;* --------------------------------------------------------------------------*
    1807                    .dwpsn  file "C:/Users/409010855/Documents/GitHub/CHARM/Embedded_Voltmeter/Basic WiFi Source/S
    1808 000294 5949          RLA.B     r9                    ; [] |149| 
    1809 000296 4947          MOV.B     r9,r7                 ; [] |149| 
    1810 000298 3C02          JMP       $C$L8                 ; [] |149| 
    1811                                                      ; [] |149| 
    1812            ;* --------------------------------------------------------------------------*
    1813 00029a       $C$L7:    
    1814                    .dwpsn  file "C:/Users/409010855/Documents/GitHub/CHARM/Embedded_Voltmeter/Basic WiFi Source/S
    1815            $C$DW$100       .dwtag  DW_TAG_TI_branch
    1816                    .dwattr $C$DW$100, DW_AT_low_pc(0x00)
    1817                    .dwattr $C$DW$100, DW_AT_name("$abproc5")
    1818                    .dwattr $C$DW$100, DW_AT_TI_call
    1819 00029a 13B0!         CALLA     #$abproc5             ; [] |275| 
         00029c 06FA 
    1820                                                      ; [] |275| 
    1821            ;* --------------------------------------------------------------------------*
    1822 00029e       $C$L8:    
    1823                    .dwpsn  file "C:/Users/409010855/Documents/GitHub/CHARM/Embedded_Voltmeter/Basic WiFi Source/S
    1824 00029e 06C9          MOVA      r6,r9                 ; [] |212| 
    1825 0002a0 4115          MOV.W     14(SP),r5             ; [] 
         0002a2 000E 
    1826                    .dwpsn  file "C:/Users/409010855/Documents/GitHub/CHARM/Embedded_Voltmeter/Basic WiFi Source/S
    1827            $C$DW$101       .dwtag  DW_TAG_TI_branch
    1828                    .dwattr $C$DW$101, DW_AT_low_pc(0x00)
    1829                    .dwattr $C$DW$101, DW_AT_name("$abproc4")
    1830                    .dwattr $C$DW$101, DW_AT_TI_call
    1831 0002a4 13B0!         CALLA     #$abproc4             ; [] |275| 
         0002a6 06EE 
    1832                                                      ; [] |275| 
    1833 0002a8 4119          MOV.W     50(SP),r9             ; [] 
MSP430 Assembler PC v4.2.1 Fri Mar 21 13:42:36 2014

Tools Copyright (c) 2003-2013 Texas Instruments Incorporated
C:\Users\409010~1\AppData\Local\Temp\0593210                         PAGE   40

         0002aa 0032 
    1834                    .dwpsn  file "C:/Users/409010855/Documents/GitHub/CHARM/Embedded_Voltmeter/Basic WiFi Source/S
    1835 0002ac 4969          MOV.B     @r9,r9                ; [] |213| 
    1836 0002ae 4117          MOV.W     30(SP),r7             ; [] 
         0002b0 001E 
    1837                    .dwpsn  file "C:/Users/409010855/Documents/GitHub/CHARM/Embedded_Voltmeter/Basic WiFi Source/S
    1838            $C$DW$102       .dwtag  DW_TAG_TI_branch
    1839                    .dwattr $C$DW$102, DW_AT_low_pc(0x00)
    1840                    .dwattr $C$DW$102, DW_AT_name("$abproc8")
    1841                    .dwattr $C$DW$102, DW_AT_TI_call
    1842 0002b2 13B0!         CALLA     #$abproc8             ; [] |275| 
         0002b4 071A 
    1843                                                      ; [] |275| 
    1844                    .dwpsn  file "C:/Users/409010855/Documents/GitHub/CHARM/Embedded_Voltmeter/Basic WiFi Source/S
    1845 0002b6 2003          JNE       $C$L9                 ; [] |144| 
    1846                                                      ; [] |144| 
    1847            ;* --------------------------------------------------------------------------*
    1848                    .dwpsn  file "C:/Users/409010855/Documents/GitHub/CHARM/Embedded_Voltmeter/Basic WiFi Source/S
    1849 0002b8 5949          RLA.B     r9                    ; [] |149| 
    1850 0002ba 4947          MOV.B     r9,r7                 ; [] |149| 
    1851 0002bc 3C02          JMP       $C$L10                ; [] |149| 
    1852                                                      ; [] |149| 
    1853            ;* --------------------------------------------------------------------------*
    1854 0002be       $C$L9:    
    1855                    .dwpsn  file "C:/Users/409010855/Documents/GitHub/CHARM/Embedded_Voltmeter/Basic WiFi Source/S
    1856            $C$DW$103       .dwtag  DW_TAG_TI_branch
    1857                    .dwattr $C$DW$103, DW_AT_low_pc(0x00)
    1858                    .dwattr $C$DW$103, DW_AT_name("$abproc5")
    1859                    .dwattr $C$DW$103, DW_AT_TI_call
    1860 0002be 13B0!         CALLA     #$abproc5             ; [] |275| 
         0002c0 06FA 
    1861                                                      ; [] |275| 
    1862            ;* --------------------------------------------------------------------------*
    1863 0002c2       $C$L10:    
    1864                    .dwpsn  file "C:/Users/409010855/Documents/GitHub/CHARM/Embedded_Voltmeter/Basic WiFi Source/S
    1865 0002c2 06C9          MOVA      r6,r9                 ; [] |213| 
    1866 0002c4 4115          MOV.W     30(SP),r5             ; [] 
         0002c6 001E 
    1867                    .dwpsn  file "C:/Users/409010855/Documents/GitHub/CHARM/Embedded_Voltmeter/Basic WiFi Source/S
    1868            $C$DW$104       .dwtag  DW_TAG_TI_branch
    1869                    .dwattr $C$DW$104, DW_AT_low_pc(0x00)
    1870                    .dwattr $C$DW$104, DW_AT_name("$abproc4")
    1871                    .dwattr $C$DW$104, DW_AT_TI_call
    1872 0002c8 13B0!         CALLA     #$abproc4             ; [] |275| 
         0002ca 06EE 
    1873                                                      ; [] |275| 
    1874 0002cc 4119          MOV.W     50(SP),r9             ; [] 
         0002ce 0032 
    1875                    .dwpsn  file "C:/Users/409010855/Documents/GitHub/CHARM/Embedded_Voltmeter/Basic WiFi Source/S
    1876 0002d0 4969          MOV.B     @r9,r9                ; [] |214| 
    1877                    .dwpsn  file "C:/Users/409010855/Documents/GitHub/CHARM/Embedded_Voltmeter/Basic WiFi Source/S
    1878            $C$DW$105       .dwtag  DW_TAG_TI_branch
    1879                    .dwattr $C$DW$105, DW_AT_low_pc(0x00)
    1880                    .dwattr $C$DW$105, DW_AT_name("$abproc7")
    1881                    .dwattr $C$DW$105, DW_AT_TI_call
MSP430 Assembler PC v4.2.1 Fri Mar 21 13:42:36 2014

Tools Copyright (c) 2003-2013 Texas Instruments Incorporated
C:\Users\409010~1\AppData\Local\Temp\0593210                         PAGE   41

    1882 0002d2 13B0!         CALLA     #$abproc7             ; [] |275| 
         0002d4 070E 
    1883                                                      ; [] |275| 
    1884                    .dwpsn  file "C:/Users/409010855/Documents/GitHub/CHARM/Embedded_Voltmeter/Basic WiFi Source/S
    1885 0002d6 2003          JNE       $C$L11                ; [] |144| 
    1886                                                      ; [] |144| 
    1887            ;* --------------------------------------------------------------------------*
    1888                    .dwpsn  file "C:/Users/409010855/Documents/GitHub/CHARM/Embedded_Voltmeter/Basic WiFi Source/S
    1889 0002d8 5848          RLA.B     r8                    ; [] |149| 
    1890 0002da 4847          MOV.B     r8,r7                 ; [] |149| 
    1891 0002dc 3C03          JMP       $C$L12                ; [] |149| 
    1892                                                      ; [] |149| 
    1893            ;* --------------------------------------------------------------------------*
    1894 0002de       $C$L11:    
    1895                    .dwpsn  file "C:/Users/409010855/Documents/GitHub/CHARM/Embedded_Voltmeter/Basic WiFi Source/S
    1896            $C$DW$106       .dwtag  DW_TAG_TI_branch
    1897                    .dwattr $C$DW$106, DW_AT_low_pc(0x00)
    1898                    .dwattr $C$DW$106, DW_AT_name("$abproc10")
    1899                    .dwattr $C$DW$106, DW_AT_TI_call
    1900 0002de 13B0!         CALLA     #$abproc10            ; [] |275| 
         0002e0 0730 
    1901                                                      ; [] |275| 
    1902                    .dwpsn  file "C:/Users/409010855/Documents/GitHub/CHARM/Embedded_Voltmeter/Basic WiFi Source/S
    1903 0002e2 08C7          MOVA      r8,r7                 ; [] |147| 
    1904            ;* --------------------------------------------------------------------------*
    1905 0002e4       $C$L12:    
    1906 0002e4 4119          MOV.W     50(SP),r9             ; [] 
         0002e6 0032 
    1907                    .dwpsn  file "C:/Users/409010855/Documents/GitHub/CHARM/Embedded_Voltmeter/Basic WiFi Source/S
    1908 0002e8 E966          XOR.B     @r9,r6                ; [] |214| 
    1909 0002ea E647          XOR.B     r6,r7                 ; [] |214| 
    1910 0002ec 47C9          MOV.B     r7,0(r9)              ; [] |214| 
         0002ee 0000 
    1911 0002f0 4119          MOV.W     18(SP),r9             ; [] 
         0002f2 0012 
    1912                    .dwpsn  file "C:/Users/409010855/Documents/GitHub/CHARM/Embedded_Voltmeter/Basic WiFi Source/S
    1913 0002f4 4967          MOV.B     @r9,r7                ; [] |216| 
    1914 0002f6 4119          MOV.W     2(SP),r9              ; [] 
         0002f8 0002 
    1915 0002fa 4968          MOV.B     @r9,r8                ; [] |216| 
    1916 0002fc 08C6          MOVA      r8,r6                 ; [] |216| 
    1917 0002fe E746          XOR.B     r7,r6                 ; [] |216| 
    1918 000300 4119          MOV.W     34(SP),r9             ; [] 
         000302 0022 
    1919 000304 E966          XOR.B     @r9,r6                ; [] |216| 
    1920 000306 EF66          XOR.B     @r15,r6               ; [] |216| 
    1921                    .dwpsn  file "C:/Users/409010855/Documents/GitHub/CHARM/Embedded_Voltmeter/Basic WiFi Source/S
    1922            $C$DW$107       .dwtag  DW_TAG_TI_branch
    1923                    .dwattr $C$DW$107, DW_AT_low_pc(0x00)
    1924                    .dwattr $C$DW$107, DW_AT_name("$abproc6")
    1925                    .dwattr $C$DW$107, DW_AT_TI_call
    1926 000308 13B0!         CALLA     #$abproc6             ; [] |275| 
         00030a 0706 
    1927                                                      ; [] |275| 
    1928                    .dwpsn  file "C:/Users/409010855/Documents/GitHub/CHARM/Embedded_Voltmeter/Basic WiFi Source/S
MSP430 Assembler PC v4.2.1 Fri Mar 21 13:42:36 2014

Tools Copyright (c) 2003-2013 Texas Instruments Incorporated
C:\Users\409010~1\AppData\Local\Temp\0593210                         PAGE   42

    1929 00030c 2003          JNE       $C$L13                ; [] |144| 
    1930                                                      ; [] |144| 
    1931            ;* --------------------------------------------------------------------------*
    1932                    .dwpsn  file "C:/Users/409010855/Documents/GitHub/CHARM/Embedded_Voltmeter/Basic WiFi Source/S
    1933 00030e 5747          RLA.B     r7                    ; [] |149| 
    1934 000310 4747          MOV.B     r7,r7                 ; [] |149| 
    1935 000312 3C02          JMP       $C$L14                ; [] |149| 
    1936                                                      ; [] |149| 
    1937            ;* --------------------------------------------------------------------------*
    1938 000314       $C$L13:    
    1939                    .dwpsn  file "C:/Users/409010855/Documents/GitHub/CHARM/Embedded_Voltmeter/Basic WiFi Source/S
    1940            $C$DW$108       .dwtag  DW_TAG_TI_branch
    1941                    .dwattr $C$DW$108, DW_AT_low_pc(0x00)
    1942                    .dwattr $C$DW$108, DW_AT_name("$abproc9")
    1943                    .dwattr $C$DW$108, DW_AT_TI_call
    1944 000314 13B0!         CALLA     #$abproc9             ; [] |275| 
         000316 0726 
    1945                                                      ; [] |275| 
    1946            ;* --------------------------------------------------------------------------*
    1947 000318       $C$L14:    
    1948                    .dwpsn  file "C:/Users/409010855/Documents/GitHub/CHARM/Embedded_Voltmeter/Basic WiFi Source/S
    1949 000318 06C9          MOVA      r6,r9                 ; [] |218| 
    1950 00031a 4115          MOV.W     2(SP),r5              ; [] 
         00031c 0002 
    1951                    .dwpsn  file "C:/Users/409010855/Documents/GitHub/CHARM/Embedded_Voltmeter/Basic WiFi Source/S
    1952            $C$DW$109       .dwtag  DW_TAG_TI_branch
    1953                    .dwattr $C$DW$109, DW_AT_low_pc(0x00)
    1954                    .dwattr $C$DW$109, DW_AT_name("$abproc4")
    1955                    .dwattr $C$DW$109, DW_AT_TI_call
    1956 00031e 13B0!         CALLA     #$abproc4             ; [] |275| 
         000320 06EE 
    1957                                                      ; [] |275| 
    1958 000322 4119          MOV.W     34(SP),r9             ; [] 
         000324 0022 
    1959                    .dwpsn  file "C:/Users/409010855/Documents/GitHub/CHARM/Embedded_Voltmeter/Basic WiFi Source/S
    1960 000326 4969          MOV.B     @r9,r9                ; [] |219| 
    1961 000328 4117          MOV.W     18(SP),r7             ; [] 
         00032a 0012 
    1962                    .dwpsn  file "C:/Users/409010855/Documents/GitHub/CHARM/Embedded_Voltmeter/Basic WiFi Source/S
    1963            $C$DW$110       .dwtag  DW_TAG_TI_branch
    1964                    .dwattr $C$DW$110, DW_AT_low_pc(0x00)
    1965                    .dwattr $C$DW$110, DW_AT_name("$abproc8")
    1966                    .dwattr $C$DW$110, DW_AT_TI_call
    1967 00032c 13B0!         CALLA     #$abproc8             ; [] |275| 
         00032e 071A 
    1968                                                      ; [] |275| 
    1969                    .dwpsn  file "C:/Users/409010855/Documents/GitHub/CHARM/Embedded_Voltmeter/Basic WiFi Source/S
    1970 000330 2003          JNE       $C$L15                ; [] |144| 
    1971                                                      ; [] |144| 
    1972            ;* --------------------------------------------------------------------------*
    1973                    .dwpsn  file "C:/Users/409010855/Documents/GitHub/CHARM/Embedded_Voltmeter/Basic WiFi Source/S
    1974 000332 5949          RLA.B     r9                    ; [] |149| 
    1975 000334 4947          MOV.B     r9,r7                 ; [] |149| 
    1976 000336 3C02          JMP       $C$L16                ; [] |149| 
    1977                                                      ; [] |149| 
MSP430 Assembler PC v4.2.1 Fri Mar 21 13:42:36 2014

Tools Copyright (c) 2003-2013 Texas Instruments Incorporated
C:\Users\409010~1\AppData\Local\Temp\0593210                         PAGE   43

    1978            ;* --------------------------------------------------------------------------*
    1979 000338       $C$L15:    
    1980                    .dwpsn  file "C:/Users/409010855/Documents/GitHub/CHARM/Embedded_Voltmeter/Basic WiFi Source/S
    1981            $C$DW$111       .dwtag  DW_TAG_TI_branch
    1982                    .dwattr $C$DW$111, DW_AT_low_pc(0x00)
    1983                    .dwattr $C$DW$111, DW_AT_name("$abproc5")
    1984                    .dwattr $C$DW$111, DW_AT_TI_call
    1985 000338 13B0!         CALLA     #$abproc5             ; [] |275| 
         00033a 06FA 
    1986                                                      ; [] |275| 
    1987            ;* --------------------------------------------------------------------------*
    1988 00033c       $C$L16:    
    1989                    .dwpsn  file "C:/Users/409010855/Documents/GitHub/CHARM/Embedded_Voltmeter/Basic WiFi Source/S
    1990 00033c 06C9          MOVA      r6,r9                 ; [] |219| 
    1991 00033e 4115          MOV.W     18(SP),r5             ; [] 
         000340 0012 
    1992                    .dwpsn  file "C:/Users/409010855/Documents/GitHub/CHARM/Embedded_Voltmeter/Basic WiFi Source/S
    1993            $C$DW$112       .dwtag  DW_TAG_TI_branch
    1994                    .dwattr $C$DW$112, DW_AT_low_pc(0x00)
    1995                    .dwattr $C$DW$112, DW_AT_name("$abproc4")
    1996                    .dwattr $C$DW$112, DW_AT_TI_call
    1997 000342 13B0!         CALLA     #$abproc4             ; [] |275| 
         000344 06EE 
    1998                                                      ; [] |275| 
    1999                    .dwpsn  file "C:/Users/409010855/Documents/GitHub/CHARM/Embedded_Voltmeter/Basic WiFi Source/S
    2000 000346 4F67          MOV.B     @r15,r7               ; [] |220| 
    2001 000348 4119          MOV.W     34(SP),r9             ; [] 
         00034a 0022 
    2002 00034c E967          XOR.B     @r9,r7                ; [] |220| 
    2003                    .dwpsn  file "C:/Users/409010855/Documents/GitHub/CHARM/Embedded_Voltmeter/Basic WiFi Source/S
    2004            $C$DW$113       .dwtag  DW_TAG_TI_branch
    2005                    .dwattr $C$DW$113, DW_AT_low_pc(0x00)
    2006                    .dwattr $C$DW$113, DW_AT_name("$abproc12")
    2007                    .dwattr $C$DW$113, DW_AT_TI_call
    2008 00034e 13B0!         CALLA     #$abproc12            ; [] |275| 
         000350 0742 
    2009                                                      ; [] |275| 
    2010                    .dwpsn  file "C:/Users/409010855/Documents/GitHub/CHARM/Embedded_Voltmeter/Basic WiFi Source/S
    2011 000352 2003          JNE       $C$L17                ; [] |144| 
    2012                                                      ; [] |144| 
    2013            ;* --------------------------------------------------------------------------*
    2014                    .dwpsn  file "C:/Users/409010855/Documents/GitHub/CHARM/Embedded_Voltmeter/Basic WiFi Source/S
    2015 000354 5747          RLA.B     r7                    ; [] |149| 
    2016 000356 4747          MOV.B     r7,r7                 ; [] |149| 
    2017 000358 3C02          JMP       $C$L18                ; [] |149| 
    2018                                                      ; [] |149| 
    2019            ;* --------------------------------------------------------------------------*
    2020 00035a       $C$L17:    
    2021                    .dwpsn  file "C:/Users/409010855/Documents/GitHub/CHARM/Embedded_Voltmeter/Basic WiFi Source/S
    2022            $C$DW$114       .dwtag  DW_TAG_TI_branch
    2023                    .dwattr $C$DW$114, DW_AT_low_pc(0x00)
    2024                    .dwattr $C$DW$114, DW_AT_name("$abproc9")
    2025                    .dwattr $C$DW$114, DW_AT_TI_call
    2026 00035a 13B0!         CALLA     #$abproc9             ; [] |275| 
         00035c 0726 
MSP430 Assembler PC v4.2.1 Fri Mar 21 13:42:36 2014

Tools Copyright (c) 2003-2013 Texas Instruments Incorporated
C:\Users\409010~1\AppData\Local\Temp\0593210                         PAGE   44

    2027                                                      ; [] |275| 
    2028            ;* --------------------------------------------------------------------------*
    2029 00035e       $C$L18:    
    2030                    .dwpsn  file "C:/Users/409010855/Documents/GitHub/CHARM/Embedded_Voltmeter/Basic WiFi Source/S
    2031 00035e 06C9          MOVA      r6,r9                 ; [] |220| 
    2032 000360 4115          MOV.W     34(SP),r5             ; [] 
         000362 0022 
    2033                    .dwpsn  file "C:/Users/409010855/Documents/GitHub/CHARM/Embedded_Voltmeter/Basic WiFi Source/S
    2034            $C$DW$115       .dwtag  DW_TAG_TI_branch
    2035                    .dwattr $C$DW$115, DW_AT_low_pc(0x00)
    2036                    .dwattr $C$DW$115, DW_AT_name("$abproc4")
    2037                    .dwattr $C$DW$115, DW_AT_TI_call
    2038 000364 13B0!         CALLA     #$abproc4             ; [] |275| 
         000366 06EE 
    2039                                                      ; [] |275| 
    2040                    .dwpsn  file "C:/Users/409010855/Documents/GitHub/CHARM/Embedded_Voltmeter/Basic WiFi Source/S
    2041 000368 4F69          MOV.B     @r15,r9               ; [] |221| 
    2042                    .dwpsn  file "C:/Users/409010855/Documents/GitHub/CHARM/Embedded_Voltmeter/Basic WiFi Source/S
    2043            $C$DW$116       .dwtag  DW_TAG_TI_branch
    2044                    .dwattr $C$DW$116, DW_AT_low_pc(0x00)
    2045                    .dwattr $C$DW$116, DW_AT_name("$abproc7")
    2046                    .dwattr $C$DW$116, DW_AT_TI_call
    2047 00036a 13B0!         CALLA     #$abproc7             ; [] |275| 
         00036c 070E 
    2048                                                      ; [] |275| 
    2049                    .dwpsn  file "C:/Users/409010855/Documents/GitHub/CHARM/Embedded_Voltmeter/Basic WiFi Source/S
    2050 00036e 2003          JNE       $C$L19                ; [] |144| 
    2051                                                      ; [] |144| 
    2052            ;* --------------------------------------------------------------------------*
    2053                    .dwpsn  file "C:/Users/409010855/Documents/GitHub/CHARM/Embedded_Voltmeter/Basic WiFi Source/S
    2054 000370 5848          RLA.B     r8                    ; [] |149| 
    2055 000372 4848          MOV.B     r8,r8                 ; [] |149| 
    2056 000374 3C02          JMP       $C$L20                ; [] |149| 
    2057                                                      ; [] |149| 
    2058            ;* --------------------------------------------------------------------------*
    2059 000376       $C$L19:    
    2060                    .dwpsn  file "C:/Users/409010855/Documents/GitHub/CHARM/Embedded_Voltmeter/Basic WiFi Source/S
    2061            $C$DW$117       .dwtag  DW_TAG_TI_branch
    2062                    .dwattr $C$DW$117, DW_AT_low_pc(0x00)
    2063                    .dwattr $C$DW$117, DW_AT_name("$abproc10")
    2064                    .dwattr $C$DW$117, DW_AT_TI_call
    2065 000376 13B0!         CALLA     #$abproc10            ; [] |275| 
         000378 0730 
    2066                                                      ; [] |275| 
    2067            ;* --------------------------------------------------------------------------*
    2068 00037a       $C$L20:    
    2069                    .dwpsn  file "C:/Users/409010855/Documents/GitHub/CHARM/Embedded_Voltmeter/Basic WiFi Source/S
    2070 00037a EF66          XOR.B     @r15,r6               ; [] |221| 
    2071 00037c E648          XOR.B     r6,r8                 ; [] |221| 
    2072 00037e 48CF          MOV.B     r8,0(r15)             ; [] |221| 
         000380 0000 
    2073 000382 4119          MOV.W     22(SP),r9             ; [] 
         000384 0016 
    2074                    .dwpsn  file "C:/Users/409010855/Documents/GitHub/CHARM/Embedded_Voltmeter/Basic WiFi Source/S
    2075 000386 4967          MOV.B     @r9,r7                ; [] |223| 
MSP430 Assembler PC v4.2.1 Fri Mar 21 13:42:36 2014

Tools Copyright (c) 2003-2013 Texas Instruments Incorporated
C:\Users\409010~1\AppData\Local\Temp\0593210                         PAGE   45

    2076 000388 4119          MOV.W     6(SP),r9              ; [] 
         00038a 0006 
    2077 00038c 4968          MOV.B     @r9,r8                ; [] |223| 
    2078 00038e 08C6          MOVA      r8,r6                 ; [] |223| 
    2079 000390 E746          XOR.B     r7,r6                 ; [] |223| 
    2080 000392 4119          MOV.W     38(SP),r9             ; [] 
         000394 0026 
    2081 000396 E966          XOR.B     @r9,r6                ; [] |223| 
    2082 000398 EE66          XOR.B     @r14,r6               ; [] |223| 
    2083                    .dwpsn  file "C:/Users/409010855/Documents/GitHub/CHARM/Embedded_Voltmeter/Basic WiFi Source/S
    2084            $C$DW$118       .dwtag  DW_TAG_TI_branch
    2085                    .dwattr $C$DW$118, DW_AT_low_pc(0x00)
    2086                    .dwattr $C$DW$118, DW_AT_name("$abproc6")
    2087                    .dwattr $C$DW$118, DW_AT_TI_call
    2088 00039a 13B0!         CALLA     #$abproc6             ; [] |275| 
         00039c 0706 
    2089                                                      ; [] |275| 
    2090                    .dwpsn  file "C:/Users/409010855/Documents/GitHub/CHARM/Embedded_Voltmeter/Basic WiFi Source/S
    2091 00039e 2003          JNE       $C$L21                ; [] |144| 
    2092                                                      ; [] |144| 
    2093            ;* --------------------------------------------------------------------------*
    2094                    .dwpsn  file "C:/Users/409010855/Documents/GitHub/CHARM/Embedded_Voltmeter/Basic WiFi Source/S
    2095 0003a0 5747          RLA.B     r7                    ; [] |149| 
    2096 0003a2 4747          MOV.B     r7,r7                 ; [] |149| 
    2097 0003a4 3C02          JMP       $C$L22                ; [] |149| 
    2098                                                      ; [] |149| 
    2099            ;* --------------------------------------------------------------------------*
    2100 0003a6       $C$L21:    
    2101                    .dwpsn  file "C:/Users/409010855/Documents/GitHub/CHARM/Embedded_Voltmeter/Basic WiFi Source/S
    2102            $C$DW$119       .dwtag  DW_TAG_TI_branch
    2103                    .dwattr $C$DW$119, DW_AT_low_pc(0x00)
    2104                    .dwattr $C$DW$119, DW_AT_name("$abproc9")
    2105                    .dwattr $C$DW$119, DW_AT_TI_call
    2106 0003a6 13B0!         CALLA     #$abproc9             ; [] |275| 
         0003a8 0726 
    2107                                                      ; [] |275| 
    2108            ;* --------------------------------------------------------------------------*
    2109 0003aa       $C$L22:    
    2110                    .dwpsn  file "C:/Users/409010855/Documents/GitHub/CHARM/Embedded_Voltmeter/Basic WiFi Source/S
    2111 0003aa 06C9          MOVA      r6,r9                 ; [] |225| 
    2112 0003ac 4115          MOV.W     6(SP),r5              ; [] 
         0003ae 0006 
    2113                    .dwpsn  file "C:/Users/409010855/Documents/GitHub/CHARM/Embedded_Voltmeter/Basic WiFi Source/S
    2114            $C$DW$120       .dwtag  DW_TAG_TI_branch
    2115                    .dwattr $C$DW$120, DW_AT_low_pc(0x00)
    2116                    .dwattr $C$DW$120, DW_AT_name("$abproc4")
    2117                    .dwattr $C$DW$120, DW_AT_TI_call
    2118 0003b0 13B0!         CALLA     #$abproc4             ; [] |275| 
         0003b2 06EE 
    2119                                                      ; [] |275| 
    2120 0003b4 4119          MOV.W     38(SP),r9             ; [] 
         0003b6 0026 
    2121                    .dwpsn  file "C:/Users/409010855/Documents/GitHub/CHARM/Embedded_Voltmeter/Basic WiFi Source/S
    2122 0003b8 4969          MOV.B     @r9,r9                ; [] |226| 
    2123 0003ba 4117          MOV.W     22(SP),r7             ; [] 
MSP430 Assembler PC v4.2.1 Fri Mar 21 13:42:36 2014

Tools Copyright (c) 2003-2013 Texas Instruments Incorporated
C:\Users\409010~1\AppData\Local\Temp\0593210                         PAGE   46

         0003bc 0016 
    2124                    .dwpsn  file "C:/Users/409010855/Documents/GitHub/CHARM/Embedded_Voltmeter/Basic WiFi Source/S
    2125            $C$DW$121       .dwtag  DW_TAG_TI_branch
    2126                    .dwattr $C$DW$121, DW_AT_low_pc(0x00)
    2127                    .dwattr $C$DW$121, DW_AT_name("$abproc8")
    2128                    .dwattr $C$DW$121, DW_AT_TI_call
    2129 0003be 13B0!         CALLA     #$abproc8             ; [] |275| 
         0003c0 071A 
    2130                                                      ; [] |275| 
    2131                    .dwpsn  file "C:/Users/409010855/Documents/GitHub/CHARM/Embedded_Voltmeter/Basic WiFi Source/S
    2132 0003c2 2003          JNE       $C$L23                ; [] |144| 
    2133                                                      ; [] |144| 
    2134            ;* --------------------------------------------------------------------------*
    2135                    .dwpsn  file "C:/Users/409010855/Documents/GitHub/CHARM/Embedded_Voltmeter/Basic WiFi Source/S
    2136 0003c4 5949          RLA.B     r9                    ; [] |149| 
    2137 0003c6 4947          MOV.B     r9,r7                 ; [] |149| 
    2138 0003c8 3C02          JMP       $C$L24                ; [] |149| 
    2139                                                      ; [] |149| 
    2140            ;* --------------------------------------------------------------------------*
    2141 0003ca       $C$L23:    
    2142                    .dwpsn  file "C:/Users/409010855/Documents/GitHub/CHARM/Embedded_Voltmeter/Basic WiFi Source/S
    2143            $C$DW$122       .dwtag  DW_TAG_TI_branch
    2144                    .dwattr $C$DW$122, DW_AT_low_pc(0x00)
    2145                    .dwattr $C$DW$122, DW_AT_name("$abproc5")
    2146                    .dwattr $C$DW$122, DW_AT_TI_call
    2147 0003ca 13B0!         CALLA     #$abproc5             ; [] |275| 
         0003cc 06FA 
    2148                                                      ; [] |275| 
    2149            ;* --------------------------------------------------------------------------*
    2150 0003ce       $C$L24:    
    2151                    .dwpsn  file "C:/Users/409010855/Documents/GitHub/CHARM/Embedded_Voltmeter/Basic WiFi Source/S
    2152 0003ce 06C9          MOVA      r6,r9                 ; [] |226| 
    2153 0003d0 4115          MOV.W     22(SP),r5             ; [] 
         0003d2 0016 
    2154                    .dwpsn  file "C:/Users/409010855/Documents/GitHub/CHARM/Embedded_Voltmeter/Basic WiFi Source/S
    2155            $C$DW$123       .dwtag  DW_TAG_TI_branch
    2156                    .dwattr $C$DW$123, DW_AT_low_pc(0x00)
    2157                    .dwattr $C$DW$123, DW_AT_name("$abproc4")
    2158                    .dwattr $C$DW$123, DW_AT_TI_call
    2159 0003d4 13B0!         CALLA     #$abproc4             ; [] |275| 
         0003d6 06EE 
    2160                                                      ; [] |275| 
    2161                    .dwpsn  file "C:/Users/409010855/Documents/GitHub/CHARM/Embedded_Voltmeter/Basic WiFi Source/S
    2162 0003d8 4E67          MOV.B     @r14,r7               ; [] |227| 
    2163 0003da 4119          MOV.W     38(SP),r9             ; [] 
         0003dc 0026 
    2164 0003de E967          XOR.B     @r9,r7                ; [] |227| 
    2165                    .dwpsn  file "C:/Users/409010855/Documents/GitHub/CHARM/Embedded_Voltmeter/Basic WiFi Source/S
    2166            $C$DW$124       .dwtag  DW_TAG_TI_branch
    2167                    .dwattr $C$DW$124, DW_AT_low_pc(0x00)
    2168                    .dwattr $C$DW$124, DW_AT_name("$abproc12")
    2169                    .dwattr $C$DW$124, DW_AT_TI_call
    2170 0003e0 13B0!         CALLA     #$abproc12            ; [] |275| 
         0003e2 0742 
    2171                                                      ; [] |275| 
MSP430 Assembler PC v4.2.1 Fri Mar 21 13:42:36 2014

Tools Copyright (c) 2003-2013 Texas Instruments Incorporated
C:\Users\409010~1\AppData\Local\Temp\0593210                         PAGE   47

    2172                    .dwpsn  file "C:/Users/409010855/Documents/GitHub/CHARM/Embedded_Voltmeter/Basic WiFi Source/S
    2173 0003e4 2003          JNE       $C$L25                ; [] |144| 
    2174                                                      ; [] |144| 
    2175            ;* --------------------------------------------------------------------------*
    2176                    .dwpsn  file "C:/Users/409010855/Documents/GitHub/CHARM/Embedded_Voltmeter/Basic WiFi Source/S
    2177 0003e6 5747          RLA.B     r7                    ; [] |149| 
    2178 0003e8 4747          MOV.B     r7,r7                 ; [] |149| 
    2179 0003ea 3C02          JMP       $C$L26                ; [] |149| 
    2180                                                      ; [] |149| 
    2181            ;* --------------------------------------------------------------------------*
    2182 0003ec       $C$L25:    
    2183                    .dwpsn  file "C:/Users/409010855/Documents/GitHub/CHARM/Embedded_Voltmeter/Basic WiFi Source/S
    2184            $C$DW$125       .dwtag  DW_TAG_TI_branch
    2185                    .dwattr $C$DW$125, DW_AT_low_pc(0x00)
    2186                    .dwattr $C$DW$125, DW_AT_name("$abproc9")
    2187                    .dwattr $C$DW$125, DW_AT_TI_call
    2188 0003ec 13B0!         CALLA     #$abproc9             ; [] |275| 
         0003ee 0726 
    2189                                                      ; [] |275| 
    2190            ;* --------------------------------------------------------------------------*
    2191 0003f0       $C$L26:    
    2192                    .dwpsn  file "C:/Users/409010855/Documents/GitHub/CHARM/Embedded_Voltmeter/Basic WiFi Source/S
    2193 0003f0 06C9          MOVA      r6,r9                 ; [] |227| 
    2194 0003f2 4115          MOV.W     38(SP),r5             ; [] 
         0003f4 0026 
    2195                    .dwpsn  file "C:/Users/409010855/Documents/GitHub/CHARM/Embedded_Voltmeter/Basic WiFi Source/S
    2196            $C$DW$126       .dwtag  DW_TAG_TI_branch
    2197                    .dwattr $C$DW$126, DW_AT_low_pc(0x00)
    2198                    .dwattr $C$DW$126, DW_AT_name("$abproc4")
    2199                    .dwattr $C$DW$126, DW_AT_TI_call
    2200 0003f6 13B0!         CALLA     #$abproc4             ; [] |275| 
         0003f8 06EE 
    2201                                                      ; [] |275| 
    2202                    .dwpsn  file "C:/Users/409010855/Documents/GitHub/CHARM/Embedded_Voltmeter/Basic WiFi Source/S
    2203 0003fa 4E69          MOV.B     @r14,r9               ; [] |228| 
    2204                    .dwpsn  file "C:/Users/409010855/Documents/GitHub/CHARM/Embedded_Voltmeter/Basic WiFi Source/S
    2205            $C$DW$127       .dwtag  DW_TAG_TI_branch
    2206                    .dwattr $C$DW$127, DW_AT_low_pc(0x00)
    2207                    .dwattr $C$DW$127, DW_AT_name("$abproc7")
    2208                    .dwattr $C$DW$127, DW_AT_TI_call
    2209 0003fc 13B0!         CALLA     #$abproc7             ; [] |275| 
         0003fe 070E 
    2210                                                      ; [] |275| 
    2211                    .dwpsn  file "C:/Users/409010855/Documents/GitHub/CHARM/Embedded_Voltmeter/Basic WiFi Source/S
    2212 000400 2003          JNE       $C$L27                ; [] |144| 
    2213                                                      ; [] |144| 
    2214            ;* --------------------------------------------------------------------------*
    2215                    .dwpsn  file "C:/Users/409010855/Documents/GitHub/CHARM/Embedded_Voltmeter/Basic WiFi Source/S
    2216 000402 5848          RLA.B     r8                    ; [] |149| 
    2217 000404 4848          MOV.B     r8,r8                 ; [] |149| 
    2218 000406 3C02          JMP       $C$L28                ; [] |149| 
    2219                                                      ; [] |149| 
    2220            ;* --------------------------------------------------------------------------*
    2221 000408       $C$L27:    
    2222                    .dwpsn  file "C:/Users/409010855/Documents/GitHub/CHARM/Embedded_Voltmeter/Basic WiFi Source/S
MSP430 Assembler PC v4.2.1 Fri Mar 21 13:42:36 2014

Tools Copyright (c) 2003-2013 Texas Instruments Incorporated
C:\Users\409010~1\AppData\Local\Temp\0593210                         PAGE   48

    2223            $C$DW$128       .dwtag  DW_TAG_TI_branch
    2224                    .dwattr $C$DW$128, DW_AT_low_pc(0x00)
    2225                    .dwattr $C$DW$128, DW_AT_name("$abproc10")
    2226                    .dwattr $C$DW$128, DW_AT_TI_call
    2227 000408 13B0!         CALLA     #$abproc10            ; [] |275| 
         00040a 0730 
    2228                                                      ; [] |275| 
    2229            ;* --------------------------------------------------------------------------*
    2230 00040c       $C$L28:    
    2231                    .dwpsn  file "C:/Users/409010855/Documents/GitHub/CHARM/Embedded_Voltmeter/Basic WiFi Source/S
    2232 00040c EE66          XOR.B     @r14,r6               ; [] |228| 
    2233 00040e E648          XOR.B     r6,r8                 ; [] |228| 
    2234 000410 48CE          MOV.B     r8,0(r14)             ; [] |228| 
         000412 0000 
    2235 000414 4119          MOV.W     26(SP),r9             ; [] 
         000416 001A 
    2236                    .dwpsn  file "C:/Users/409010855/Documents/GitHub/CHARM/Embedded_Voltmeter/Basic WiFi Source/S
    2237 000418 4967          MOV.B     @r9,r7                ; [] |230| 
    2238 00041a 4119          MOV.W     10(SP),r9             ; [] 
         00041c 000A 
    2239 00041e 4968          MOV.B     @r9,r8                ; [] |230| 
    2240 000420 08C6          MOVA      r8,r6                 ; [] |230| 
    2241 000422 E746          XOR.B     r7,r6                 ; [] |230| 
    2242 000424 EA66          XOR.B     @r10,r6               ; [] |230| 
    2243 000426 EB66          XOR.B     @r11,r6               ; [] |230| 
    2244                    .dwpsn  file "C:/Users/409010855/Documents/GitHub/CHARM/Embedded_Voltmeter/Basic WiFi Source/S
    2245            $C$DW$129       .dwtag  DW_TAG_TI_branch
    2246                    .dwattr $C$DW$129, DW_AT_low_pc(0x00)
    2247                    .dwattr $C$DW$129, DW_AT_name("$abproc6")
    2248                    .dwattr $C$DW$129, DW_AT_TI_call
    2249 000428 13B0!         CALLA     #$abproc6             ; [] |275| 
         00042a 0706 
    2250                                                      ; [] |275| 
    2251                    .dwpsn  file "C:/Users/409010855/Documents/GitHub/CHARM/Embedded_Voltmeter/Basic WiFi Source/S
    2252 00042c 2003          JNE       $C$L29                ; [] |144| 
    2253                                                      ; [] |144| 
    2254            ;* --------------------------------------------------------------------------*
    2255                    .dwpsn  file "C:/Users/409010855/Documents/GitHub/CHARM/Embedded_Voltmeter/Basic WiFi Source/S
    2256 00042e 5747          RLA.B     r7                    ; [] |149| 
    2257 000430 4747          MOV.B     r7,r7                 ; [] |149| 
    2258 000432 3C02          JMP       $C$L30                ; [] |149| 
    2259                                                      ; [] |149| 
    2260            ;* --------------------------------------------------------------------------*
    2261 000434       $C$L29:    
    2262                    .dwpsn  file "C:/Users/409010855/Documents/GitHub/CHARM/Embedded_Voltmeter/Basic WiFi Source/S
    2263            $C$DW$130       .dwtag  DW_TAG_TI_branch
    2264                    .dwattr $C$DW$130, DW_AT_low_pc(0x00)
    2265                    .dwattr $C$DW$130, DW_AT_name("$abproc9")
    2266                    .dwattr $C$DW$130, DW_AT_TI_call
    2267 000434 13B0!         CALLA     #$abproc9             ; [] |275| 
         000436 0726 
    2268                                                      ; [] |275| 
    2269            ;* --------------------------------------------------------------------------*
    2270 000438       $C$L30:    
    2271                    .dwpsn  file "C:/Users/409010855/Documents/GitHub/CHARM/Embedded_Voltmeter/Basic WiFi Source/S
MSP430 Assembler PC v4.2.1 Fri Mar 21 13:42:36 2014

Tools Copyright (c) 2003-2013 Texas Instruments Incorporated
C:\Users\409010~1\AppData\Local\Temp\0593210                         PAGE   49

    2272 000438 06C9          MOVA      r6,r9                 ; [] |232| 
    2273 00043a 4115          MOV.W     10(SP),r5             ; [] 
         00043c 000A 
    2274                    .dwpsn  file "C:/Users/409010855/Documents/GitHub/CHARM/Embedded_Voltmeter/Basic WiFi Source/S
    2275            $C$DW$131       .dwtag  DW_TAG_TI_branch
    2276                    .dwattr $C$DW$131, DW_AT_low_pc(0x00)
    2277                    .dwattr $C$DW$131, DW_AT_name("$abproc4")
    2278                    .dwattr $C$DW$131, DW_AT_TI_call
    2279 00043e 13B0!         CALLA     #$abproc4             ; [] |275| 
         000440 06EE 
    2280                                                      ; [] |275| 
    2281                    .dwpsn  file "C:/Users/409010855/Documents/GitHub/CHARM/Embedded_Voltmeter/Basic WiFi Source/S
    2282 000442 4A69          MOV.B     @r10,r9               ; [] |233| 
    2283 000444 4117          MOV.W     26(SP),r7             ; [] 
         000446 001A 
    2284                    .dwpsn  file "C:/Users/409010855/Documents/GitHub/CHARM/Embedded_Voltmeter/Basic WiFi Source/S
    2285            $C$DW$132       .dwtag  DW_TAG_TI_branch
    2286                    .dwattr $C$DW$132, DW_AT_low_pc(0x00)
    2287                    .dwattr $C$DW$132, DW_AT_name("$abproc8")
    2288                    .dwattr $C$DW$132, DW_AT_TI_call
    2289 000448 13B0!         CALLA     #$abproc8             ; [] |275| 
         00044a 071A 
    2290                                                      ; [] |275| 
    2291                    .dwpsn  file "C:/Users/409010855/Documents/GitHub/CHARM/Embedded_Voltmeter/Basic WiFi Source/S
    2292 00044c 2003          JNE       $C$L31                ; [] |144| 
    2293                                                      ; [] |144| 
    2294            ;* --------------------------------------------------------------------------*
    2295                    .dwpsn  file "C:/Users/409010855/Documents/GitHub/CHARM/Embedded_Voltmeter/Basic WiFi Source/S
    2296 00044e 5949          RLA.B     r9                    ; [] |149| 
    2297 000450 4947          MOV.B     r9,r7                 ; [] |149| 
    2298 000452 3C02          JMP       $C$L32                ; [] |149| 
    2299                                                      ; [] |149| 
    2300            ;* --------------------------------------------------------------------------*
    2301 000454       $C$L31:    
    2302                    .dwpsn  file "C:/Users/409010855/Documents/GitHub/CHARM/Embedded_Voltmeter/Basic WiFi Source/S
    2303            $C$DW$133       .dwtag  DW_TAG_TI_branch
    2304                    .dwattr $C$DW$133, DW_AT_low_pc(0x00)
    2305                    .dwattr $C$DW$133, DW_AT_name("$abproc5")
    2306                    .dwattr $C$DW$133, DW_AT_TI_call
    2307 000454 13B0!         CALLA     #$abproc5             ; [] |275| 
         000456 06FA 
    2308                                                      ; [] |275| 
    2309            ;* --------------------------------------------------------------------------*
    2310 000458       $C$L32:    
    2311                    .dwpsn  file "C:/Users/409010855/Documents/GitHub/CHARM/Embedded_Voltmeter/Basic WiFi Source/S
    2312 000458 06C9          MOVA      r6,r9                 ; [] |233| 
    2313 00045a 4115          MOV.W     26(SP),r5             ; [] 
         00045c 001A 
    2314 00045e E569          XOR.B     @r5,r9                ; [] |233| 
    2315 000460 E947          XOR.B     r9,r7                 ; [] |233| 
    2316 000462 47C5          MOV.B     r7,0(r5)              ; [] |233| 
         000464 0000 
    2317                    .dwpsn  file "C:/Users/409010855/Documents/GitHub/CHARM/Embedded_Voltmeter/Basic WiFi Source/S
    2318 000466 4B67          MOV.B     @r11,r7               ; [] |234| 
    2319 000468 EA67          XOR.B     @r10,r7               ; [] |234| 
MSP430 Assembler PC v4.2.1 Fri Mar 21 13:42:36 2014

Tools Copyright (c) 2003-2013 Texas Instruments Incorporated
C:\Users\409010~1\AppData\Local\Temp\0593210                         PAGE   50

    2320                    .dwpsn  file "C:/Users/409010855/Documents/GitHub/CHARM/Embedded_Voltmeter/Basic WiFi Source/S
    2321            $C$DW$134       .dwtag  DW_TAG_TI_branch
    2322                    .dwattr $C$DW$134, DW_AT_low_pc(0x00)
    2323                    .dwattr $C$DW$134, DW_AT_name("$abproc12")
    2324                    .dwattr $C$DW$134, DW_AT_TI_call
    2325 00046a 13B0!         CALLA     #$abproc12            ; [] |275| 
         00046c 0742 
    2326                                                      ; [] |275| 
    2327                    .dwpsn  file "C:/Users/409010855/Documents/GitHub/CHARM/Embedded_Voltmeter/Basic WiFi Source/S
    2328 00046e 2003          JNE       $C$L33                ; [] |144| 
    2329                                                      ; [] |144| 
    2330            ;* --------------------------------------------------------------------------*
    2331                    .dwpsn  file "C:/Users/409010855/Documents/GitHub/CHARM/Embedded_Voltmeter/Basic WiFi Source/S
    2332 000470 5747          RLA.B     r7                    ; [] |149| 
    2333 000472 4747          MOV.B     r7,r7                 ; [] |149| 
    2334 000474 3C02          JMP       $C$L34                ; [] |149| 
    2335                                                      ; [] |149| 
    2336            ;* --------------------------------------------------------------------------*
    2337 000476       $C$L33:    
    2338                    .dwpsn  file "C:/Users/409010855/Documents/GitHub/CHARM/Embedded_Voltmeter/Basic WiFi Source/S
    2339            $C$DW$135       .dwtag  DW_TAG_TI_branch
    2340                    .dwattr $C$DW$135, DW_AT_low_pc(0x00)
    2341                    .dwattr $C$DW$135, DW_AT_name("$abproc9")
    2342                    .dwattr $C$DW$135, DW_AT_TI_call
    2343 000476 13B0!         CALLA     #$abproc9             ; [] |275| 
         000478 0726 
    2344                                                      ; [] |275| 
    2345            ;* --------------------------------------------------------------------------*
    2346 00047a       $C$L34:    
    2347                    .dwpsn  file "C:/Users/409010855/Documents/GitHub/CHARM/Embedded_Voltmeter/Basic WiFi Source/S
    2348 00047a 06C9          MOVA      r6,r9                 ; [] |234| 
    2349 00047c EA69          XOR.B     @r10,r9               ; [] |234| 
    2350 00047e E947          XOR.B     r9,r7                 ; [] |234| 
    2351 000480 47CA          MOV.B     r7,0(r10)             ; [] |234| 
         000482 0000 
    2352                    .dwpsn  file "C:/Users/409010855/Documents/GitHub/CHARM/Embedded_Voltmeter/Basic WiFi Source/S
    2353 000484 4B69          MOV.B     @r11,r9               ; [] |235| 
    2354                    .dwpsn  file "C:/Users/409010855/Documents/GitHub/CHARM/Embedded_Voltmeter/Basic WiFi Source/S
    2355            $C$DW$136       .dwtag  DW_TAG_TI_branch
    2356                    .dwattr $C$DW$136, DW_AT_low_pc(0x00)
    2357                    .dwattr $C$DW$136, DW_AT_name("$abproc7")
    2358                    .dwattr $C$DW$136, DW_AT_TI_call
    2359 000486 13B0!         CALLA     #$abproc7             ; [] |275| 
         000488 070E 
    2360                                                      ; [] |275| 
    2361                    .dwpsn  file "C:/Users/409010855/Documents/GitHub/CHARM/Embedded_Voltmeter/Basic WiFi Source/S
    2362 00048a 2003          JNE       $C$L35                ; [] |144| 
    2363                                                      ; [] |144| 
    2364            ;* --------------------------------------------------------------------------*
    2365                    .dwpsn  file "C:/Users/409010855/Documents/GitHub/CHARM/Embedded_Voltmeter/Basic WiFi Source/S
    2366 00048c 5848          RLA.B     r8                    ; [] |149| 
    2367 00048e 4848          MOV.B     r8,r8                 ; [] |149| 
    2368 000490 3C02          JMP       $C$L36                ; [] |149| 
    2369                                                      ; [] |149| 
    2370            ;* --------------------------------------------------------------------------*
MSP430 Assembler PC v4.2.1 Fri Mar 21 13:42:36 2014

Tools Copyright (c) 2003-2013 Texas Instruments Incorporated
C:\Users\409010~1\AppData\Local\Temp\0593210                         PAGE   51

    2371 000492       $C$L35:    
    2372                    .dwpsn  file "C:/Users/409010855/Documents/GitHub/CHARM/Embedded_Voltmeter/Basic WiFi Source/S
    2373            $C$DW$137       .dwtag  DW_TAG_TI_branch
    2374                    .dwattr $C$DW$137, DW_AT_low_pc(0x00)
    2375                    .dwattr $C$DW$137, DW_AT_name("$abproc10")
    2376                    .dwattr $C$DW$137, DW_AT_TI_call
    2377 000492 13B0!         CALLA     #$abproc10            ; [] |275| 
         000494 0730 
    2378                                                      ; [] |275| 
    2379            ;* --------------------------------------------------------------------------*
    2380 000496       $C$L36:    
    2381                    .dwpsn  file "C:/Users/409010855/Documents/GitHub/CHARM/Embedded_Voltmeter/Basic WiFi Source/S
    2382 000496 EB66          XOR.B     @r11,r6               ; [] |235| 
    2383 000498 E648          XOR.B     r6,r8                 ; [] |235| 
    2384 00049a 48CB          MOV.B     r8,0(r11)             ; [] |235| 
         00049c 0000 
    2385                    .dwpsn  file "C:/Users/409010855/Documents/GitHub/CHARM/Embedded_Voltmeter/Basic WiFi Source/S
    2386 00049e 5034          ADD.W     #16,r4                ; [] |180| 
         0004a0 0010 
    2387 0004a2 50B1          ADD.W     #16,0(SP)             ; [] |180| 
         0004a4 0010 
         0004a6 0000 
    2388 0004a8 50B1          ADD.W     #16,4(SP)             ; [] |180| 
         0004aa 0010 
         0004ac 0004 
    2389 0004ae 50B1          ADD.W     #16,8(SP)             ; [] |180| 
         0004b0 0010 
         0004b2 0008 
    2390 0004b4 50B1          ADD.W     #16,12(SP)            ; [] |180| 
         0004b6 0010 
         0004b8 000C 
    2391 0004ba 50B1          ADD.W     #16,16(SP)            ; [] |180| 
         0004bc 0010 
         0004be 0010 
    2392 0004c0 50B1          ADD.W     #16,20(SP)            ; [] |180| 
         0004c2 0010 
         0004c4 0014 
    2393 0004c6 50B1          ADD.W     #16,24(SP)            ; [] |180| 
         0004c8 0010 
         0004ca 0018 
    2394 0004cc 50B1          ADD.W     #16,28(SP)            ; [] |180| 
         0004ce 0010 
         0004d0 001C 
    2395 0004d2 50B1          ADD.W     #16,32(SP)            ; [] |180| 
         0004d4 0010 
         0004d6 0020 
    2396 0004d8 50B1          ADD.W     #16,36(SP)            ; [] |180| 
         0004da 0010 
         0004dc 0024 
    2397 0004de 50B1          ADD.W     #16,40(SP)            ; [] |180| 
         0004e0 0010 
         0004e2 0028 
    2398 0004e4 50B1          ADD.W     #16,42(SP)            ; [] |180| 
         0004e6 0010 
         0004e8 002A 
MSP430 Assembler PC v4.2.1 Fri Mar 21 13:42:36 2014

Tools Copyright (c) 2003-2013 Texas Instruments Incorporated
C:\Users\409010~1\AppData\Local\Temp\0593210                         PAGE   52

    2399 0004ea 50B1          ADD.W     #16,44(SP)            ; [] |180| 
         0004ec 0010 
         0004ee 002C 
    2400 0004f0 50B1          ADD.W     #16,46(SP)            ; [] |180| 
         0004f2 0010 
         0004f4 002E 
    2401 0004f6 50B1          ADD.W     #16,48(SP)            ; [] |180| 
         0004f8 0010 
         0004fa 0030 
    2402 0004fc 8391          SUB.W     #1,82(SP)             ; [] |180| 
         0004fe 0052 
    2403 000500 222A          JNE       $C$L4                 ; [] |180| 
    2404                                                      ; [] |180| 
    2405            ;* --------------------------------------------------------------------------*
    2406                    .dwpsn  file "C:/Users/409010855/Documents/GitHub/CHARM/Embedded_Voltmeter/Basic WiFi Source/S
    2407 000502 4D59          MOV.B     144(r13),r9           ; [] |239| 
         000504 0090 
    2408 000506 EC69          XOR.B     @r12,r9               ; [] |239| 
    2409 000508 49DC          MOV.B     sbox+0(r9),0(r12)     ; [] |239| 
         00050a 0000!
         00050c 0000 
    2410 00050e 4038          MOV.W     #144,r8               ; [] 
         000510 0090 
    2411                    .dwpsn  file "C:/Users/409010855/Documents/GitHub/CHARM/Embedded_Voltmeter/Basic WiFi Source/S
    2412 000512 5118          ADD.W     52(SP),r8             ; [] |240| 
         000514 0034 
    2413 000516 4869          MOV.B     @r8,r9                ; [] |240| 
    2414 000518 4118          MOV.W     2(SP),r8              ; [] 
         00051a 0002 
    2415                    .dwpsn  file "C:/Users/409010855/Documents/GitHub/CHARM/Embedded_Voltmeter/Basic WiFi Source/S
    2416            $C$DW$138       .dwtag  DW_TAG_TI_branch
    2417                    .dwattr $C$DW$138, DW_AT_low_pc(0x00)
    2418                    .dwattr $C$DW$138, DW_AT_name("$abproc3")
    2419                    .dwattr $C$DW$138, DW_AT_TI_call
    2420 00051c 13B0!         CALLA     #$abproc3             ; [] |275| 
         00051e 06E4 
    2421                                                      ; [] |275| 
    2422                    .dwpsn  file "C:/Users/409010855/Documents/GitHub/CHARM/Embedded_Voltmeter/Basic WiFi Source/S
    2423 000520 5118          ADD.W     54(SP),r8             ; [] |241| 
         000522 0036 
    2424 000524 4869          MOV.B     @r8,r9                ; [] |241| 
    2425 000526 4118          MOV.W     6(SP),r8              ; [] 
         000528 0006 
    2426                    .dwpsn  file "C:/Users/409010855/Documents/GitHub/CHARM/Embedded_Voltmeter/Basic WiFi Source/S
    2427            $C$DW$139       .dwtag  DW_TAG_TI_branch
    2428                    .dwattr $C$DW$139, DW_AT_low_pc(0x00)
    2429                    .dwattr $C$DW$139, DW_AT_name("$abproc3")
    2430                    .dwattr $C$DW$139, DW_AT_TI_call
    2431 00052a 13B0!         CALLA     #$abproc3             ; [] |275| 
         00052c 06E4 
    2432                                                      ; [] |275| 
    2433                    .dwpsn  file "C:/Users/409010855/Documents/GitHub/CHARM/Embedded_Voltmeter/Basic WiFi Source/S
    2434 00052e 5118          ADD.W     56(SP),r8             ; [] |242| 
         000530 0038 
    2435 000532 4869          MOV.B     @r8,r9                ; [] |242| 
MSP430 Assembler PC v4.2.1 Fri Mar 21 13:42:36 2014

Tools Copyright (c) 2003-2013 Texas Instruments Incorporated
C:\Users\409010~1\AppData\Local\Temp\0593210                         PAGE   53

    2436 000534 4118          MOV.W     10(SP),r8             ; [] 
         000536 000A 
    2437                    .dwpsn  file "C:/Users/409010855/Documents/GitHub/CHARM/Embedded_Voltmeter/Basic WiFi Source/S
    2438            $C$DW$140       .dwtag  DW_TAG_TI_branch
    2439                    .dwattr $C$DW$140, DW_AT_low_pc(0x00)
    2440                    .dwattr $C$DW$140, DW_AT_name("$abproc3")
    2441                    .dwattr $C$DW$140, DW_AT_TI_call
    2442 000538 13B0!         CALLA     #$abproc3             ; [] |275| 
         00053a 06E4 
    2443                                                      ; [] |275| 
    2444                    .dwpsn  file "C:/Users/409010855/Documents/GitHub/CHARM/Embedded_Voltmeter/Basic WiFi Source/S
    2445 00053c 5118          ADD.W     58(SP),r8             ; [] |244| 
         00053e 003A 
    2446 000540 4867          MOV.B     @r8,r7                ; [] |244| 
    2447 000542 4119          MOV.W     14(SP),r9             ; [] 
         000544 000E 
    2448 000546 E967          XOR.B     @r9,r7                ; [] |244| 
    2449 000548 4038          MOV.W     #144,r8               ; [] 
         00054a 0090 
    2450                    .dwpsn  file "C:/Users/409010855/Documents/GitHub/CHARM/Embedded_Voltmeter/Basic WiFi Source/S
    2451 00054c 5118          ADD.W     60(SP),r8             ; [] |245| 
         00054e 003C 
    2452 000550 4869          MOV.B     @r8,r9                ; [] |245| 
    2453                    .dwpsn  file "C:/Users/409010855/Documents/GitHub/CHARM/Embedded_Voltmeter/Basic WiFi Source/S
    2454            $C$DW$141       .dwtag  DW_TAG_TI_branch
    2455                    .dwattr $C$DW$141, DW_AT_low_pc(0x00)
    2456                    .dwattr $C$DW$141, DW_AT_name("$abproc0")
    2457                    .dwattr $C$DW$141, DW_AT_TI_call
    2458 000552 13B0!         CALLA     #$abproc0             ; [] |275| 
         000554 06B8 
    2459                                                      ; [] |275| 
    2460 000556 4038          MOV.W     #144,r8               ; [] 
         000558 0090 
    2461                    .dwpsn  file "C:/Users/409010855/Documents/GitHub/CHARM/Embedded_Voltmeter/Basic WiFi Source/S
    2462 00055a 5118          ADD.W     62(SP),r8             ; [] |246| 
         00055c 003E 
    2463 00055e 4869          MOV.B     @r8,r9                ; [] |246| 
    2464                    .dwpsn  file "C:/Users/409010855/Documents/GitHub/CHARM/Embedded_Voltmeter/Basic WiFi Source/S
    2465            $C$DW$142       .dwtag  DW_TAG_TI_branch
    2466                    .dwattr $C$DW$142, DW_AT_low_pc(0x00)
    2467                    .dwattr $C$DW$142, DW_AT_name("$abproc1")
    2468                    .dwattr $C$DW$142, DW_AT_TI_call
    2469 000560 13B0!         CALLA     #$abproc1             ; [] |275| 
         000562 06C8 
    2470                                                      ; [] |275| 
    2471 000564 4038          MOV.W     #144,r8               ; [] 
         000566 0090 
    2472                    .dwpsn  file "C:/Users/409010855/Documents/GitHub/CHARM/Embedded_Voltmeter/Basic WiFi Source/S
    2473 000568 5118          ADD.W     64(SP),r8             ; [] |247| 
         00056a 0040 
    2474 00056c 4869          MOV.B     @r8,r9                ; [] |247| 
    2475 00056e 05C8          MOVA      r5,r8                 ; [] 
    2476                    .dwpsn  file "C:/Users/409010855/Documents/GitHub/CHARM/Embedded_Voltmeter/Basic WiFi Source/S
    2477            $C$DW$143       .dwtag  DW_TAG_TI_branch
    2478                    .dwattr $C$DW$143, DW_AT_low_pc(0x00)
MSP430 Assembler PC v4.2.1 Fri Mar 21 13:42:36 2014

Tools Copyright (c) 2003-2013 Texas Instruments Incorporated
C:\Users\409010~1\AppData\Local\Temp\0593210                         PAGE   54

    2479                    .dwattr $C$DW$143, DW_AT_name("$abproc2")
    2480                    .dwattr $C$DW$143, DW_AT_TI_call
    2481 000570 13B0!         CALLA     #$abproc2             ; [] |275| 
         000572 06D8 
    2482                                                      ; [] |275| 
    2483 000574 05C9          MOVA      r5,r9                 ; [] 
    2484                    .dwpsn  file "C:/Users/409010855/Documents/GitHub/CHARM/Embedded_Voltmeter/Basic WiFi Source/S
    2485 000576 47D9          MOV.B     sbox+0(r7),0(r9)      ; [] |248| 
         000578 0000!
         00057a 0000 
    2486 00057c 4038          MOV.W     #144,r8               ; [] 
         00057e 0090 
    2487                    .dwpsn  file "C:/Users/409010855/Documents/GitHub/CHARM/Embedded_Voltmeter/Basic WiFi Source/S
    2488 000580 5118          ADD.W     66(SP),r8             ; [] |250| 
         000582 0042 
    2489 000584 4868          MOV.B     @r8,r8                ; [] |250| 
    2490 000586 4119          MOV.W     30(SP),r9             ; [] 
         000588 001E 
    2491 00058a E968          XOR.B     @r9,r8                ; [] |250| 
    2492 00058c 4037          MOV.W     #144,r7               ; [] 
         00058e 0090 
    2493                    .dwpsn  file "C:/Users/409010855/Documents/GitHub/CHARM/Embedded_Voltmeter/Basic WiFi Source/S
    2494 000590 5117          ADD.W     68(SP),r7             ; [] |251| 
         000592 0044 
    2495 000594 4767          MOV.B     @r7,r7                ; [] |251| 
    2496 000596 4119          MOV.W     34(SP),r9             ; [] 
         000598 0022 
    2497 00059a E967          XOR.B     @r9,r7                ; [] |251| 
    2498 00059c 4036          MOV.W     #144,r6               ; [] 
         00059e 0090 
    2499                    .dwpsn  file "C:/Users/409010855/Documents/GitHub/CHARM/Embedded_Voltmeter/Basic WiFi Source/S
    2500 0005a0 5116          ADD.W     70(SP),r6             ; [] |252| 
         0005a2 0046 
    2501 0005a4 4669          MOV.B     @r6,r9                ; [] |252| 
    2502 0005a6 4116          MOV.W     38(SP),r6             ; [] 
         0005a8 0026 
    2503 0005aa E669          XOR.B     @r6,r9                ; [] |252| 
    2504 0005ac 4116          MOV.W     30(SP),r6             ; [] 
         0005ae 001E 
    2505 0005b0 49D6          MOV.B     sbox+0(r9),0(r6)      ; [] |252| 
         0005b2 0000!
         0005b4 0000 
    2506 0005b6 4036          MOV.W     #144,r6               ; [] 
         0005b8 0090 
    2507                    .dwpsn  file "C:/Users/409010855/Documents/GitHub/CHARM/Embedded_Voltmeter/Basic WiFi Source/S
    2508 0005ba 5116          ADD.W     72(SP),r6             ; [] |253| 
         0005bc 0048 
    2509 0005be 4669          MOV.B     @r6,r9                ; [] |253| 
    2510 0005c0 EA69          XOR.B     @r10,r9               ; [] |253| 
    2511 0005c2 4116          MOV.W     34(SP),r6             ; [] 
         0005c4 0022 
    2512 0005c6 49D6          MOV.B     sbox+0(r9),0(r6)      ; [] |253| 
         0005c8 0000!
         0005ca 0000 
    2513 0005cc 4119          MOV.W     38(SP),r9             ; [] 
MSP430 Assembler PC v4.2.1 Fri Mar 21 13:42:36 2014

Tools Copyright (c) 2003-2013 Texas Instruments Incorporated
C:\Users\409010~1\AppData\Local\Temp\0593210                         PAGE   55

         0005ce 0026 
    2514                    .dwpsn  file "C:/Users/409010855/Documents/GitHub/CHARM/Embedded_Voltmeter/Basic WiFi Source/S
    2515 0005d0 48D9          MOV.B     sbox+0(r8),0(r9)      ; [] |254| 
         0005d2 0000!
         0005d4 0000 
    2516                    .dwpsn  file "C:/Users/409010855/Documents/GitHub/CHARM/Embedded_Voltmeter/Basic WiFi Source/S
    2517 0005d6 47DA          MOV.B     sbox+0(r7),0(r10)     ; [] |255| 
         0005d8 0000!
         0005da 0000 
    2518 0005dc 4038          MOV.W     #144,r8               ; [] 
         0005de 0090 
    2519                    .dwpsn  file "C:/Users/409010855/Documents/GitHub/CHARM/Embedded_Voltmeter/Basic WiFi Source/S
    2520 0005e0 5118          ADD.W     74(SP),r8             ; [] |257| 
         0005e2 004A 
    2521 0005e4 4868          MOV.B     @r8,r8                ; [] |257| 
    2522 0005e6 EB68          XOR.B     @r11,r8               ; [] |257| 
    2523 0005e8 4037          MOV.W     #144,r7               ; [] 
         0005ea 0090 
    2524                    .dwpsn  file "C:/Users/409010855/Documents/GitHub/CHARM/Embedded_Voltmeter/Basic WiFi Source/S
    2525 0005ec 5117          ADD.W     76(SP),r7             ; [] |258| 
         0005ee 004C 
    2526 0005f0 4769          MOV.B     @r7,r9                ; [] |258| 
    2527 0005f2 EE69          XOR.B     @r14,r9               ; [] |258| 
    2528 0005f4 49DB          MOV.B     sbox+0(r9),0(r11)     ; [] |258| 
         0005f6 0000!
         0005f8 0000 
    2529 0005fa 4037          MOV.W     #144,r7               ; [] 
         0005fc 0090 
    2530                    .dwpsn  file "C:/Users/409010855/Documents/GitHub/CHARM/Embedded_Voltmeter/Basic WiFi Source/S
    2531 0005fe 5117          ADD.W     78(SP),r7             ; [] |259| 
         000600 004E 
    2532 000602 4769          MOV.B     @r7,r9                ; [] |259| 
    2533 000604 EF69          XOR.B     @r15,r9               ; [] |259| 
    2534 000606 49DE          MOV.B     sbox+0(r9),0(r14)     ; [] |259| 
         000608 0000!
         00060a 0000 
    2535 00060c 4037          MOV.W     #144,r7               ; [] 
         00060e 0090 
    2536                    .dwpsn  file "C:/Users/409010855/Documents/GitHub/CHARM/Embedded_Voltmeter/Basic WiFi Source/S
    2537 000610 5117          ADD.W     80(SP),r7             ; [] |260| 
         000612 0050 
    2538 000614 4769          MOV.B     @r7,r9                ; [] |260| 
    2539 000616 4117          MOV.W     50(SP),r7             ; [] 
         000618 0032 
    2540 00061a E769          XOR.B     @r7,r9                ; [] |260| 
    2541 00061c 49DF          MOV.B     sbox+0(r9),0(r15)     ; [] |260| 
         00061e 0000!
         000620 0000 
    2542 000622 07C9          MOVA      r7,r9                 ; [] 
    2543                    .dwpsn  file "C:/Users/409010855/Documents/GitHub/CHARM/Embedded_Voltmeter/Basic WiFi Source/S
    2544 000624 48D9          MOV.B     sbox+0(r8),0(r9)      ; [] |261| 
         000626 0000!
         000628 0000 
    2545                    .dwpsn  file "C:/Users/409010855/Documents/GitHub/CHARM/Embedded_Voltmeter/Basic WiFi Source/S
    2546 00062a EDDC          XOR.B     160(r13),0(r12)       ; [] |263| 
MSP430 Assembler PC v4.2.1 Fri Mar 21 13:42:36 2014

Tools Copyright (c) 2003-2013 Texas Instruments Incorporated
C:\Users\409010~1\AppData\Local\Temp\0593210                         PAGE   56

         00062c 00A0 
         00062e 0000 
    2547 000630 411C          MOV.W     14(SP),r12            ; [] 
         000632 000E 
    2548                    .dwpsn  file "C:/Users/409010855/Documents/GitHub/CHARM/Embedded_Voltmeter/Basic WiFi Source/S
    2549 000634 EDDC          XOR.B     161(r13),0(r12)       ; [] |264| 
         000636 00A1 
         000638 0000 
    2550 00063a 411C          MOV.W     30(SP),r12            ; [] 
         00063c 001E 
    2551                    .dwpsn  file "C:/Users/409010855/Documents/GitHub/CHARM/Embedded_Voltmeter/Basic WiFi Source/S
    2552 00063e EDDC          XOR.B     162(r13),0(r12)       ; [] |265| 
         000640 00A2 
         000642 0000 
    2553 000644 09CC          MOVA      r9,r12                ; [] 
    2554                    .dwpsn  file "C:/Users/409010855/Documents/GitHub/CHARM/Embedded_Voltmeter/Basic WiFi Source/S
    2555 000646 EDDC          XOR.B     163(r13),0(r12)       ; [] |266| 
         000648 00A3 
         00064a 0000 
    2556 00064c 411C          MOV.W     2(SP),r12             ; [] 
         00064e 0002 
    2557                    .dwpsn  file "C:/Users/409010855/Documents/GitHub/CHARM/Embedded_Voltmeter/Basic WiFi Source/S
    2558 000650 EDDC          XOR.B     164(r13),0(r12)       ; [] |267| 
         000652 00A4 
         000654 0000 
    2559 000656 411C          MOV.W     18(SP),r12            ; [] 
         000658 0012 
    2560                    .dwpsn  file "C:/Users/409010855/Documents/GitHub/CHARM/Embedded_Voltmeter/Basic WiFi Source/S
    2561 00065a EDDC          XOR.B     165(r13),0(r12)       ; [] |268| 
         00065c 00A5 
         00065e 0000 
    2562 000660 06CC          MOVA      r6,r12                ; [] 
    2563                    .dwpsn  file "C:/Users/409010855/Documents/GitHub/CHARM/Embedded_Voltmeter/Basic WiFi Source/S
    2564 000662 EDDC          XOR.B     166(r13),0(r12)       ; [] |269| 
         000664 00A6 
         000666 0000 
    2565                    .dwpsn  file "C:/Users/409010855/Documents/GitHub/CHARM/Embedded_Voltmeter/Basic WiFi Source/S
    2566 000668 EDDF          XOR.B     167(r13),0(r15)       ; [] |270| 
         00066a 00A7 
         00066c 0000 
    2567 00066e 411F          MOV.W     6(SP),r15             ; [] 
         000670 0006 
    2568                    .dwpsn  file "C:/Users/409010855/Documents/GitHub/CHARM/Embedded_Voltmeter/Basic WiFi Source/S
    2569 000672 EDDF          XOR.B     168(r13),0(r15)       ; [] |271| 
         000674 00A8 
         000676 0000 
    2570 000678 411F          MOV.W     22(SP),r15            ; [] 
         00067a 0016 
    2571                    .dwpsn  file "C:/Users/409010855/Documents/GitHub/CHARM/Embedded_Voltmeter/Basic WiFi Source/S
    2572 00067c EDDF          XOR.B     169(r13),0(r15)       ; [] |272| 
         00067e 00A9 
         000680 0000 
    2573 000682 411F          MOV.W     38(SP),r15            ; [] 
         000684 0026 
    2574                    .dwpsn  file "C:/Users/409010855/Documents/GitHub/CHARM/Embedded_Voltmeter/Basic WiFi Source/S
MSP430 Assembler PC v4.2.1 Fri Mar 21 13:42:36 2014

Tools Copyright (c) 2003-2013 Texas Instruments Incorporated
C:\Users\409010~1\AppData\Local\Temp\0593210                         PAGE   57

    2575 000686 EDDF          XOR.B     170(r13),0(r15)       ; [] |273| 
         000688 00AA 
         00068a 0000 
    2576                    .dwpsn  file "C:/Users/409010855/Documents/GitHub/CHARM/Embedded_Voltmeter/Basic WiFi Source/S
    2577 00068c EDDE          XOR.B     171(r13),0(r14)       ; [] |274| 
         00068e 00AB 
         000690 0000 
    2578 000692 411F          MOV.W     10(SP),r15            ; [] 
         000694 000A 
    2579                    .dwpsn  file "C:/Users/409010855/Documents/GitHub/CHARM/Embedded_Voltmeter/Basic WiFi Source/S
    2580 000696 EDDF          XOR.B     172(r13),0(r15)       ; [] |275| 
         000698 00AC 
         00069a 0000 
    2581 00069c 05CF          MOVA      r5,r15                ; [] 
    2582                    .dwpsn  file "C:/Users/409010855/Documents/GitHub/CHARM/Embedded_Voltmeter/Basic WiFi Source/S
    2583 00069e EDDF          XOR.B     173(r13),0(r15)       ; [] |276| 
         0006a0 00AD 
         0006a2 0000 
    2584                    .dwpsn  file "C:/Users/409010855/Documents/GitHub/CHARM/Embedded_Voltmeter/Basic WiFi Source/S
    2585 0006a4 EDDA          XOR.B     174(r13),0(r10)       ; [] |277| 
         0006a6 00AE 
         0006a8 0000 
    2586                    .dwpsn  file "C:/Users/409010855/Documents/GitHub/CHARM/Embedded_Voltmeter/Basic WiFi Source/S
    2587 0006aa EDDB          XOR.B     175(r13),0(r11)       ; [] |278| 
         0006ac 00AF 
         0006ae 0000 
    2588 0006b0 5031          ADD.W     #84,SP                ; [] 
         0006b2 0054 
    2589                    .dwcfi  cfa_offset, 32
    2590 0006b4 1664          POPM.A    #7,r10                ; [] 
    2591                    .dwcfi  restore_reg, 4
    2592                    .dwcfi  restore_reg, 5
    2593                    .dwcfi  restore_reg, 6
    2594                    .dwcfi  restore_reg, 7
    2595                    .dwcfi  restore_reg, 8
    2596                    .dwcfi  restore_reg, 9
    2597                    .dwcfi  restore_reg, 10
    2598                    .dwcfi  cfa_offset, 4
    2599            $C$DW$144       .dwtag  DW_TAG_TI_branch
    2600                    .dwattr $C$DW$144, DW_AT_low_pc(0x00)
    2601                    .dwattr $C$DW$144, DW_AT_TI_return
    2602 0006b6 0110          RETA      ; [] 
    2603                    ; [] 
    2604                    .dwattr $C$DW$39, DW_AT_TI_end_file("C:/Users/409010855/Documents/GitHub/CHARM/Embedded_Voltme
    2605                    .dwattr $C$DW$39, DW_AT_TI_end_line(0x117)
    2606                    .dwattr $C$DW$39, DW_AT_TI_end_column(0x01)
    2607                    .dwendentry
    2608                    .dwendtag $C$DW$39
    2609            
    2610 0006b8               .sect   ".text:aes_encr"
    2611            
    2612            $C$DW$145       .dwtag  DW_TAG_subprogram, DW_AT_name("")
    2613                    .dwattr $C$DW$145, DW_AT_low_pc($abproc0)
    2614                    .dwattr $C$DW$145, DW_AT_high_pc(0x00)
    2615                    .dwattr $C$DW$145, DW_AT_TI_symbol_name("$abproc0")
MSP430 Assembler PC v4.2.1 Fri Mar 21 13:42:36 2014

Tools Copyright (c) 2003-2013 Texas Instruments Incorporated
C:\Users\409010~1\AppData\Local\Temp\0593210                         PAGE   58

    2616            
    2617                    .dwfde $C$DW$CIE, $abproc0
    2618            
    2619            ;*****************************************************************************
    2620            ;* ABSTRACTED PROCEDURE: $abproc0                                            *
    2621            ;*****************************************************************************
    2622 0006b8       $abproc0:
    2623                    .dwcfi  cfa_offset, 4
    2624 0006b8 4118          MOV.W     22(SP),r8             ; [] 
         0006ba 0016 
    2625 0006bc E869          XOR.B     @r8,r9                ; [] |189| 
    2626 0006be 4118          MOV.W     18(SP),r8             ; [] 
         0006c0 0012 
    2627 0006c2 13B0!         CALLA     #$abproc13            ; [] |275| 
         0006c4 074C 
    2628                                                      ; [] |275| 
    2629 0006c6 0110          RETA      ; [] |275| 
    2630                    ; [] |275| 
    2631                    .dwendentry
    2632                    .dwendtag $C$DW$145
    2633            
    2634 0006c8               .sect   ".text:aes_encr"
    2635            
    2636            $C$DW$146       .dwtag  DW_TAG_subprogram, DW_AT_name("")
    2637                    .dwattr $C$DW$146, DW_AT_low_pc($abproc1)
    2638                    .dwattr $C$DW$146, DW_AT_high_pc(0x00)
    2639                    .dwattr $C$DW$146, DW_AT_TI_symbol_name("$abproc1")
    2640            
    2641                    .dwfde $C$DW$CIE, $abproc1
    2642            
    2643            ;*****************************************************************************
    2644            ;* ABSTRACTED PROCEDURE: $abproc1                                            *
    2645            ;*****************************************************************************
    2646 0006c8       $abproc1:
    2647                    .dwcfi  cfa_offset, 4
    2648 0006c8 4118          MOV.W     26(SP),r8             ; [] 
         0006ca 001A 
    2649 0006cc E869          XOR.B     @r8,r9                ; [] |190| 
    2650 0006ce 4118          MOV.W     22(SP),r8             ; [] 
         0006d0 0016 
    2651 0006d2 13B0!         CALLA     #$abproc13            ; [] |275| 
         0006d4 074C 
    2652                                                      ; [] |275| 
    2653 0006d6 0110          RETA      ; [] |275| 
    2654                    ; [] |275| 
    2655                    .dwendentry
    2656                    .dwendtag $C$DW$146
    2657            
    2658 0006d8               .sect   ".text:aes_encr"
    2659            
    2660            $C$DW$147       .dwtag  DW_TAG_subprogram, DW_AT_name("")
    2661                    .dwattr $C$DW$147, DW_AT_low_pc($abproc2)
    2662                    .dwattr $C$DW$147, DW_AT_high_pc(0x00)
    2663                    .dwattr $C$DW$147, DW_AT_TI_symbol_name("$abproc2")
    2664            
MSP430 Assembler PC v4.2.1 Fri Mar 21 13:42:36 2014

Tools Copyright (c) 2003-2013 Texas Instruments Incorporated
C:\Users\409010~1\AppData\Local\Temp\0593210                         PAGE   59

    2665                    .dwfde $C$DW$CIE, $abproc2
    2666            
    2667            ;*****************************************************************************
    2668            ;* ABSTRACTED PROCEDURE: $abproc2                                            *
    2669            ;*****************************************************************************
    2670 0006d8       $abproc2:
    2671                    .dwcfi  cfa_offset, 4
    2672 0006d8 E869          XOR.B     @r8,r9                ; [] |191| 
    2673 0006da 4118          MOV.W     26(SP),r8             ; [] 
         0006dc 001A 
    2674 0006de 13B0!         CALLA     #$abproc13            ; [] |275| 
         0006e0 074C 
    2675                                                      ; [] |275| 
    2676 0006e2 0110          RETA      ; [] |275| 
    2677                    ; [] |275| 
    2678                    .dwendentry
    2679                    .dwendtag $C$DW$147
    2680            
    2681 0006e4               .sect   ".text:aes_encr"
    2682            
    2683            $C$DW$148       .dwtag  DW_TAG_subprogram, DW_AT_name("")
    2684                    .dwattr $C$DW$148, DW_AT_low_pc($abproc3)
    2685                    .dwattr $C$DW$148, DW_AT_high_pc(0x00)
    2686                    .dwattr $C$DW$148, DW_AT_TI_symbol_name("$abproc3")
    2687            
    2688                    .dwfde $C$DW$CIE, $abproc3
    2689            
    2690            ;*****************************************************************************
    2691            ;* ABSTRACTED PROCEDURE: $abproc3                                            *
    2692            ;*****************************************************************************
    2693 0006e4       $abproc3:
    2694                    .dwcfi  cfa_offset, 4
    2695 0006e4 13B0!         CALLA     #$abproc11            ; [] |275| 
         0006e6 073A 
    2696                                                      ; [] |275| 
    2697 0006e8 4038          MOV.W     #144,r8               ; [] 
         0006ea 0090 
    2698 0006ec 0110          RETA      ; [] |275| 
    2699                    ; [] |275| 
    2700                    .dwendentry
    2701                    .dwendtag $C$DW$148
    2702            
    2703 0006ee               .sect   ".text:aes_encr"
    2704            
    2705            $C$DW$149       .dwtag  DW_TAG_subprogram, DW_AT_name("")
    2706                    .dwattr $C$DW$149, DW_AT_low_pc($abproc4)
    2707                    .dwattr $C$DW$149, DW_AT_high_pc(0x00)
    2708                    .dwattr $C$DW$149, DW_AT_TI_symbol_name("$abproc4")
    2709            
    2710                    .dwfde $C$DW$CIE, $abproc4
    2711            
    2712            ;*****************************************************************************
    2713            ;* ABSTRACTED PROCEDURE: $abproc4                                            *
    2714            ;*****************************************************************************
    2715 0006ee       $abproc4:
MSP430 Assembler PC v4.2.1 Fri Mar 21 13:42:36 2014

Tools Copyright (c) 2003-2013 Texas Instruments Incorporated
C:\Users\409010~1\AppData\Local\Temp\0593210                         PAGE   60

    2716                    .dwcfi  cfa_offset, 4
    2717 0006ee E569          XOR.B     @r5,r9                ; [] |212| 
    2718 0006f0 E947          XOR.B     r9,r7                 ; [] |212| 
    2719 0006f2 05C9          MOVA      r5,r9                 ; [] 
    2720 0006f4 47C9          MOV.B     r7,0(r9)              ; [] |212| 
         0006f6 0000 
    2721 0006f8 0110          RETA      ; [] |275| 
    2722                    ; [] |275| 
    2723                    .dwendentry
    2724                    .dwendtag $C$DW$149
    2725            
    2726 0006fa               .sect   ".text:aes_encr"
    2727            
    2728            $C$DW$150       .dwtag  DW_TAG_subprogram, DW_AT_name("")
    2729                    .dwattr $C$DW$150, DW_AT_low_pc($abproc5)
    2730                    .dwattr $C$DW$150, DW_AT_high_pc(0x00)
    2731                    .dwattr $C$DW$150, DW_AT_TI_symbol_name("$abproc5")
    2732            
    2733                    .dwfde $C$DW$CIE, $abproc5
    2734            
    2735            ;*****************************************************************************
    2736            ;* ABSTRACTED PROCEDURE: $abproc5                                            *
    2737            ;*****************************************************************************
    2738 0006fa       $abproc5:
    2739                    .dwcfi  cfa_offset, 4
    2740 0006fa 5949          RLA.B     r9                    ; [] |147| 
    2741 0006fc 4949          MOV.B     r9,r9                 ; [] |147| 
    2742 0006fe E039          XOR.W     #27,r9                ; [] |147| 
         000700 001B 
    2743 000702 09C7          MOVA      r9,r7                 ; [] |147| 
    2744 000704 0110          RETA      ; [] |275| 
    2745                    ; [] |275| 
    2746                    .dwendentry
    2747                    .dwendtag $C$DW$150
    2748            
    2749 000706               .sect   ".text:aes_encr"
    2750            
    2751            $C$DW$151       .dwtag  DW_TAG_subprogram, DW_AT_name("")
    2752                    .dwattr $C$DW$151, DW_AT_low_pc($abproc6)
    2753                    .dwattr $C$DW$151, DW_AT_high_pc(0x00)
    2754                    .dwattr $C$DW$151, DW_AT_TI_symbol_name("$abproc6")
    2755            
    2756                    .dwfde $C$DW$CIE, $abproc6
    2757            
    2758            ;*****************************************************************************
    2759            ;* ABSTRACTED PROCEDURE: $abproc6                                            *
    2760            ;*****************************************************************************
    2761 000706       $abproc6:
    2762                    .dwcfi  cfa_offset, 4
    2763 000706 E847          XOR.B     r8,r7                 ; [] |218| 
    2764 000708 13B0!         CALLA     #$abproc12            ; [] |275| 
         00070a 0742 
    2765                                                      ; [] |275| 
    2766 00070c 0110          RETA      ; [] |275| 
    2767                    ; [] |275| 
MSP430 Assembler PC v4.2.1 Fri Mar 21 13:42:36 2014

Tools Copyright (c) 2003-2013 Texas Instruments Incorporated
C:\Users\409010~1\AppData\Local\Temp\0593210                         PAGE   61

    2768                    .dwendentry
    2769                    .dwendtag $C$DW$151
    2770            
    2771 00070e               .sect   ".text:aes_encr"
    2772            
    2773            $C$DW$152       .dwtag  DW_TAG_subprogram, DW_AT_name("")
    2774                    .dwattr $C$DW$152, DW_AT_low_pc($abproc7)
    2775                    .dwattr $C$DW$152, DW_AT_high_pc(0x00)
    2776                    .dwattr $C$DW$152, DW_AT_TI_symbol_name("$abproc7")
    2777            
    2778                    .dwfde $C$DW$CIE, $abproc7
    2779            
    2780            ;*****************************************************************************
    2781            ;* ABSTRACTED PROCEDURE: $abproc7                                            *
    2782            ;*****************************************************************************
    2783 00070e       $abproc7:
    2784                    .dwcfi  cfa_offset, 4
    2785 00070e E948          XOR.B     r9,r8                 ; [] |214| 
    2786 000710 4849          MOV.B     r8,r9                 ; [] |144| 
    2787 000712 1946          RPT #7 || RRUX.W r9 ; [] |144| 
         000714 1009 
    2788 000716 9309          TST.W     r9                    ; [] |144| 
    2789 000718 0110          RETA      ; [] |275| 
    2790                    ; [] |275| 
    2791                    .dwendentry
    2792                    .dwendtag $C$DW$152
    2793            
    2794 00071a               .sect   ".text:aes_encr"
    2795            
    2796            $C$DW$153       .dwtag  DW_TAG_subprogram, DW_AT_name("")
    2797                    .dwattr $C$DW$153, DW_AT_low_pc($abproc8)
    2798                    .dwattr $C$DW$153, DW_AT_high_pc(0x00)
    2799                    .dwattr $C$DW$153, DW_AT_TI_symbol_name("$abproc8")
    2800            
    2801                    .dwfde $C$DW$CIE, $abproc8
    2802            
    2803            ;*****************************************************************************
    2804            ;* ABSTRACTED PROCEDURE: $abproc8                                            *
    2805            ;*****************************************************************************
    2806 00071a       $abproc8:
    2807                    .dwcfi  cfa_offset, 4
    2808 00071a E769          XOR.B     @r7,r9                ; [] |212| 
    2809 00071c 4947          MOV.B     r9,r7                 ; [] |144| 
    2810 00071e 1946          RPT #7 || RRUX.W r7 ; [] |144| 
         000720 1007 
    2811 000722 9307          TST.W     r7                    ; [] |144| 
    2812 000724 0110          RETA      ; [] |275| 
    2813                    ; [] |275| 
    2814                    .dwendentry
    2815                    .dwendtag $C$DW$153
    2816            
    2817 000726               .sect   ".text:aes_encr"
    2818            
    2819            $C$DW$154       .dwtag  DW_TAG_subprogram, DW_AT_name("")
    2820                    .dwattr $C$DW$154, DW_AT_low_pc($abproc9)
MSP430 Assembler PC v4.2.1 Fri Mar 21 13:42:36 2014

Tools Copyright (c) 2003-2013 Texas Instruments Incorporated
C:\Users\409010~1\AppData\Local\Temp\0593210                         PAGE   62

    2821                    .dwattr $C$DW$154, DW_AT_high_pc(0x00)
    2822                    .dwattr $C$DW$154, DW_AT_TI_symbol_name("$abproc9")
    2823            
    2824                    .dwfde $C$DW$CIE, $abproc9
    2825            
    2826            ;*****************************************************************************
    2827            ;* ABSTRACTED PROCEDURE: $abproc9                                            *
    2828            ;*****************************************************************************
    2829 000726       $abproc9:
    2830                    .dwcfi  cfa_offset, 4
    2831 000726 5747          RLA.B     r7                    ; [] |147| 
    2832 000728 4747          MOV.B     r7,r7                 ; [] |147| 
    2833 00072a E037          XOR.W     #27,r7                ; [] |147| 
         00072c 001B 
    2834 00072e 0110          RETA      ; [] |275| 
    2835                    ; [] |275| 
    2836                    .dwendentry
    2837                    .dwendtag $C$DW$154
    2838            
    2839 000730               .sect   ".text:aes_encr"
    2840            
    2841            $C$DW$155       .dwtag  DW_TAG_subprogram, DW_AT_name("")
    2842                    .dwattr $C$DW$155, DW_AT_low_pc($abproc10)
    2843                    .dwattr $C$DW$155, DW_AT_high_pc(0x00)
    2844                    .dwattr $C$DW$155, DW_AT_TI_symbol_name("$abproc10")
    2845            
    2846                    .dwfde $C$DW$CIE, $abproc10
    2847            
    2848            ;*****************************************************************************
    2849            ;* ABSTRACTED PROCEDURE: $abproc10                                           *
    2850            ;*****************************************************************************
    2851 000730       $abproc10:
    2852                    .dwcfi  cfa_offset, 4
    2853 000730 5848          RLA.B     r8                    ; [] |147| 
    2854 000732 4848          MOV.B     r8,r8                 ; [] |147| 
    2855 000734 E038          XOR.W     #27,r8                ; [] |147| 
         000736 001B 
    2856 000738 0110          RETA      ; [] |275| 
    2857                    ; [] |275| 
    2858                    .dwendentry
    2859                    .dwendtag $C$DW$155
    2860            
    2861 00073a               .sect   ".text:aes_encr"
    2862            
    2863            $C$DW$156       .dwtag  DW_TAG_subprogram, DW_AT_name("")
    2864                    .dwattr $C$DW$156, DW_AT_low_pc($abproc11)
    2865                    .dwattr $C$DW$156, DW_AT_high_pc(0x00)
    2866                    .dwattr $C$DW$156, DW_AT_TI_symbol_name("$abproc11")
    2867            
    2868                    .dwfde $C$DW$CIE, $abproc11
    2869            
    2870            ;*****************************************************************************
    2871            ;* ABSTRACTED PROCEDURE: $abproc11                                           *
    2872            ;*****************************************************************************
    2873 00073a       $abproc11:
MSP430 Assembler PC v4.2.1 Fri Mar 21 13:42:36 2014

Tools Copyright (c) 2003-2013 Texas Instruments Incorporated
C:\Users\409010~1\AppData\Local\Temp\0593210                         PAGE   63

    2874                    .dwcfi  cfa_offset, 4
    2875 00073a E869          XOR.B     @r8,r9                ; [] |184| 
    2876 00073c 13B0!         CALLA     #$abproc13            ; [] |275| 
         00073e 074C 
    2877                                                      ; [] |275| 
    2878 000740 0110          RETA      ; [] |275| 
    2879                    ; [] |275| 
    2880                    .dwendentry
    2881                    .dwendtag $C$DW$156
    2882            
    2883 000742               .sect   ".text:aes_encr"
    2884            
    2885            $C$DW$157       .dwtag  DW_TAG_subprogram, DW_AT_name("")
    2886                    .dwattr $C$DW$157, DW_AT_low_pc($abproc12)
    2887                    .dwattr $C$DW$157, DW_AT_high_pc(0x00)
    2888                    .dwattr $C$DW$157, DW_AT_TI_symbol_name("$abproc12")
    2889            
    2890                    .dwfde $C$DW$CIE, $abproc12
    2891            
    2892            ;*****************************************************************************
    2893            ;* ABSTRACTED PROCEDURE: $abproc12                                           *
    2894            ;*****************************************************************************
    2895 000742       $abproc12:
    2896                    .dwcfi  cfa_offset, 4
    2897 000742 4749          MOV.B     r7,r9                 ; [] |144| 
    2898 000744 1946          RPT #7 || RRUX.W r9 ; [] |144| 
         000746 1009 
    2899 000748 9309          TST.W     r9                    ; [] |144| 
    2900 00074a 0110          RETA      ; [] |275| 
    2901                    ; [] |275| 
    2902                    .dwendentry
    2903                    .dwendtag $C$DW$157
    2904            
    2905 00074c               .sect   ".text:aes_encr"
    2906            
    2907            $C$DW$158       .dwtag  DW_TAG_subprogram, DW_AT_name("")
    2908                    .dwattr $C$DW$158, DW_AT_low_pc($abproc13)
    2909                    .dwattr $C$DW$158, DW_AT_high_pc(0x00)
    2910                    .dwattr $C$DW$158, DW_AT_TI_symbol_name("$abproc13")
    2911            
    2912                    .dwfde $C$DW$CIE, $abproc13
    2913            
    2914            ;*****************************************************************************
    2915            ;* ABSTRACTED PROCEDURE: $abproc13                                           *
    2916            ;*****************************************************************************
    2917 00074c       $abproc13:
    2918                    .dwcfi  cfa_offset, 4
    2919 00074c 49D8          MOV.B     sbox+0(r9),0(r8)      ; [] |184| 
         00074e 0000!
         000750 0000 
    2920 000752 0110          RETA      ; [] |275| 
    2921                    ; [] |275| 
    2922                    .dwendentry
    2923                    .dwendtag $C$DW$158
    2924            
MSP430 Assembler PC v4.2.1 Fri Mar 21 13:42:36 2014

Tools Copyright (c) 2003-2013 Texas Instruments Incorporated
C:\Users\409010~1\AppData\Local\Temp\0593210                         PAGE   64

    2925 000000               .sect   ".text:aes_encrypt"
    2926                    .align  2
    2927                    .clink
    2928                    .global aes_encrypt
    2929            
    2930            $C$DW$159       .dwtag  DW_TAG_subprogram, DW_AT_name("aes_encrypt")
    2931                    .dwattr $C$DW$159, DW_AT_low_pc(aes_encrypt)
    2932                    .dwattr $C$DW$159, DW_AT_high_pc(0x00)
    2933                    .dwattr $C$DW$159, DW_AT_TI_symbol_name("aes_encrypt")
    2934                    .dwattr $C$DW$159, DW_AT_external
    2935                    .dwattr $C$DW$159, DW_AT_TI_begin_file("C:/Users/409010855/Documents/GitHub/CHARM/Embedded_Vol
    2936                    .dwattr $C$DW$159, DW_AT_TI_begin_line(0x1be)
    2937                    .dwattr $C$DW$159, DW_AT_TI_begin_column(0x06)
    2938                    .dwattr $C$DW$159, DW_AT_TI_max_frame_size(0x08)
    2939                    .dwpsn  file "C:/Users/409010855/Documents/GitHub/CHARM/Embedded_Voltmeter/Basic WiFi Source/S
    2940            
    2941                    .dwfde $C$DW$CIE, aes_encrypt
    2942            $C$DW$160       .dwtag  DW_TAG_formal_parameter, DW_AT_name("state")
    2943                    .dwattr $C$DW$160, DW_AT_TI_symbol_name("state")
    2944                    .dwattr $C$DW$160, DW_AT_type(*$C$DW$T$20)
    2945                    .dwattr $C$DW$160, DW_AT_location[DW_OP_reg12]
    2946            $C$DW$161       .dwtag  DW_TAG_formal_parameter, DW_AT_name("key")
    2947                    .dwattr $C$DW$161, DW_AT_TI_symbol_name("key")
    2948                    .dwattr $C$DW$161, DW_AT_type(*$C$DW$T$20)
    2949                    .dwattr $C$DW$161, DW_AT_location[DW_OP_reg13]
    2950            
    2951            ;*****************************************************************************
    2952            ;* FUNCTION NAME: aes_encrypt                                                *
    2953            ;*                                                                           *
    2954            ;*   Regs Modified     : SP,SR,r10,r11,r12,r13,r14,r15                       *
    2955            ;*   Regs Used         : SP,SR,r10,r11,r12,r13,r14,r15                       *
    2956            ;*   Local Frame Size  : 0 Args + 0 Auto + 4 Save = 4 byte                   *
    2957            ;*****************************************************************************
    2958            aes_encrypt:
    2959            ;* --------------------------------------------------------------------------*
    2960            ;* r10   assigned to state
    2961            $C$DW$162       .dwtag  DW_TAG_variable, DW_AT_name("state")
    2962                    .dwattr $C$DW$162, DW_AT_TI_symbol_name("state")
    2963                    .dwattr $C$DW$162, DW_AT_type(*$C$DW$T$27)
    2964                    .dwattr $C$DW$162, DW_AT_location[DW_OP_reg10]
    2965            ;* r13   assigned to key
    2966            $C$DW$163       .dwtag  DW_TAG_variable, DW_AT_name("key")
    2967                    .dwattr $C$DW$163, DW_AT_TI_symbol_name("key")
    2968                    .dwattr $C$DW$163, DW_AT_type(*$C$DW$T$27)
    2969                    .dwattr $C$DW$163, DW_AT_location[DW_OP_reg13]
    2970                    .dwcfi  cfa_offset, 4
    2971                    .dwcfi  save_reg_to_mem, 16, -4
    2972 000000 140A          PUSHM.A   #1,r10                ; [] 
    2973                    .dwcfi  save_reg_to_mem, 10, -8
    2974                    .dwcfi  cfa_offset, 8
    2975 000002 0CCA          MOVA      r12,r10               ; [] |447| 
    2976                    .dwpsn  file "C:/Users/409010855/Documents/GitHub/CHARM/Embedded_Voltmeter/Basic WiFi Source/S
    2977 000004 403C          MOV.W     #expandedKey+0,r12    ; [] |449| 
         000006 0000!
    2978            $C$DW$164       .dwtag  DW_TAG_TI_branch
MSP430 Assembler PC v4.2.1 Fri Mar 21 13:42:36 2014

Tools Copyright (c) 2003-2013 Texas Instruments Incorporated
C:\Users\409010~1\AppData\Local\Temp\0593210                         PAGE   65

    2979                    .dwattr $C$DW$164, DW_AT_low_pc(0x00)
    2980                    .dwattr $C$DW$164, DW_AT_name("expandKey")
    2981                    .dwattr $C$DW$164, DW_AT_TI_call
    2982 000008 13B0!         CALLA     #expandKey            ; [] |449| 
         00000a 0000 
    2983                                                      ; [] |449| 
    2984                    .dwpsn  file "C:/Users/409010855/Documents/GitHub/CHARM/Embedded_Voltmeter/Basic WiFi Source/S
    2985 00000c 0ACC          MOVA      r10,r12               ; [] |450| 
    2986 00000e 403D          MOV.W     #expandedKey+0,r13    ; [] |450| 
         000010 0000!
    2987            $C$DW$165       .dwtag  DW_TAG_TI_branch
    2988                    .dwattr $C$DW$165, DW_AT_low_pc(0x00)
    2989                    .dwattr $C$DW$165, DW_AT_name("aes_encr")
    2990                    .dwattr $C$DW$165, DW_AT_TI_call
    2991 000012 13B0!         CALLA     #aes_encr             ; [] |450| 
         000014 0000 
    2992                                                      ; [] |450| 
    2993 000016 160A          POPM.A    #1,r10                ; [] 
    2994                    .dwcfi  restore_reg, 10
    2995                    .dwcfi  cfa_offset, 4
    2996            $C$DW$166       .dwtag  DW_TAG_TI_branch
    2997                    .dwattr $C$DW$166, DW_AT_low_pc(0x00)
    2998                    .dwattr $C$DW$166, DW_AT_TI_return
    2999 000018 0110          RETA      ; [] 
    3000                    ; [] 
    3001                    .dwattr $C$DW$159, DW_AT_TI_end_file("C:/Users/409010855/Documents/GitHub/CHARM/Embedded_Voltm
    3002                    .dwattr $C$DW$159, DW_AT_TI_end_line(0x1c3)
    3003                    .dwattr $C$DW$159, DW_AT_TI_end_column(0x01)
    3004                    .dwendentry
    3005                    .dwendtag $C$DW$159
    3006            
    3007 000000               .sect   ".text:aes_decr"
    3008                    .align  2
    3009                    .clink
    3010                    .global aes_decr
    3011            
    3012            $C$DW$167       .dwtag  DW_TAG_subprogram, DW_AT_name("aes_decr")
    3013                    .dwattr $C$DW$167, DW_AT_low_pc(aes_decr)
    3014                    .dwattr $C$DW$167, DW_AT_high_pc(0x00)
    3015                    .dwattr $C$DW$167, DW_AT_TI_symbol_name("aes_decr")
    3016                    .dwattr $C$DW$167, DW_AT_external
    3017                    .dwattr $C$DW$167, DW_AT_TI_begin_file("C:/Users/409010855/Documents/GitHub/CHARM/Embedded_Vol
    3018                    .dwattr $C$DW$167, DW_AT_TI_begin_line(0x12f)
    3019                    .dwattr $C$DW$167, DW_AT_TI_begin_column(0x06)
    3020                    .dwattr $C$DW$167, DW_AT_TI_max_frame_size(0x54)
    3021                    .dwpsn  file "C:/Users/409010855/Documents/GitHub/CHARM/Embedded_Voltmeter/Basic WiFi Source/S
    3022            
    3023                    .dwfde $C$DW$CIE, aes_decr
    3024            $C$DW$168       .dwtag  DW_TAG_formal_parameter, DW_AT_name("state")
    3025                    .dwattr $C$DW$168, DW_AT_TI_symbol_name("state")
    3026                    .dwattr $C$DW$168, DW_AT_type(*$C$DW$T$20)
    3027                    .dwattr $C$DW$168, DW_AT_location[DW_OP_reg12]
    3028            $C$DW$169       .dwtag  DW_TAG_formal_parameter, DW_AT_name("expandedKey")
    3029                    .dwattr $C$DW$169, DW_AT_TI_symbol_name("expandedKey")
    3030                    .dwattr $C$DW$169, DW_AT_type(*$C$DW$T$20)
MSP430 Assembler PC v4.2.1 Fri Mar 21 13:42:36 2014

Tools Copyright (c) 2003-2013 Texas Instruments Incorporated
C:\Users\409010~1\AppData\Local\Temp\0593210                         PAGE   66

    3031                    .dwattr $C$DW$169, DW_AT_location[DW_OP_reg13]
    3032            
    3033            ;*****************************************************************************
    3034            ;* FUNCTION NAME: aes_decr                                                   *
    3035            ;*                                                                           *
    3036            ;*   Regs Modified     : SP,SR,r4,r5,r6,r7,r8,r9,r10,r11,r13,r14,r15         *
    3037            ;*   Regs Used         : SP,SR,r4,r5,r6,r7,r8,r9,r10,r11,r12,r13,r14,r15     *
    3038            ;*   Local Frame Size  : 0 Args + 52 Auto + 28 Save = 80 byte                *
    3039            ;*****************************************************************************
    3040            aes_decr:
    3041            ;* --------------------------------------------------------------------------*
    3042            ;* r4    assigned to $O$C9
    3043            ;* r5    assigned to $O$C10
    3044            ;* r5    assigned to $O$C11
    3045            ;* r6    assigned to $O$C12
    3046            ;* r4    assigned to $O$C13
    3047            ;* r5    assigned to $O$C14
    3048            ;* r4    assigned to $O$C15
    3049            ;* r5    assigned to $O$C16
    3050            ;* r15   assigned to $O$C17
    3051            ;* r14   assigned to $O$C18
    3052            ;* r7    assigned to $O$K22
    3053            ;* r8    assigned to $O$K40
    3054            ;* r9    assigned to $O$K46
    3055            ;* r10   assigned to $O$K64
    3056            ;* r11   assigned to $O$K70
    3057            ;* r14   assigned to $O$K88
    3058            ;* r15   assigned to $O$K94
    3059            ;* r6    assigned to value
    3060            $C$DW$170       .dwtag  DW_TAG_variable, DW_AT_name("value")
    3061                    .dwattr $C$DW$170, DW_AT_TI_symbol_name("value")
    3062                    .dwattr $C$DW$170, DW_AT_type(*$C$DW$T$19)
    3063                    .dwattr $C$DW$170, DW_AT_location[DW_OP_reg6]
    3064            ;* r6    assigned to value
    3065            $C$DW$171       .dwtag  DW_TAG_variable, DW_AT_name("value")
    3066                    .dwattr $C$DW$171, DW_AT_TI_symbol_name("value")
    3067                    .dwattr $C$DW$171, DW_AT_type(*$C$DW$T$19)
    3068                    .dwattr $C$DW$171, DW_AT_location[DW_OP_reg6]
    3069            ;* r5    assigned to value
    3070            $C$DW$172       .dwtag  DW_TAG_variable, DW_AT_name("value")
    3071                    .dwattr $C$DW$172, DW_AT_TI_symbol_name("value")
    3072                    .dwattr $C$DW$172, DW_AT_type(*$C$DW$T$19)
