MSP430 Assembler PC v4.2.1 Fri Mar 21 13:42:37 2014

Tools Copyright (c) 2003-2013 Texas Instruments Incorporated
C:\Users\409010~1\AppData\Local\Temp\0310410                         PAGE    1

       1            ;******************************************************************************
       2            ;* MSP430 C/C++ Codegen                                             PC v4.2.1 *
       3            ;* Date/Time created: Fri Mar 21 13:42:37 2014                                *
       4            ;******************************************************************************
       5                    .compiler_opts --abi=coffabi --hll_source=on --mem_model:code=large --mem_model:data=small --o
       6            
       7            $C$DW$CU        .dwtag  DW_TAG_compile_unit
       8                    .dwattr $C$DW$CU, DW_AT_name("C:/Users/409010855/Documents/GitHub/CHARM/Embedded_Voltmeter/Bas
       9                    .dwattr $C$DW$CU, DW_AT_producer("MSP430 C/C++ Codegen PC v4.2.1 Copyright (c) 2003-2013 Texas
      10                    .dwattr $C$DW$CU, DW_AT_TI_version(0x01)
      11                    .dwattr $C$DW$CU, DW_AT_comp_dir("C:\Users\409010855\Documents\GitHub\CHARM\Embedded_Voltmeter
      12            
      13            $C$DW$1 .dwtag  DW_TAG_subprogram, DW_AT_name("memcpy")
      14                    .dwattr $C$DW$1, DW_AT_TI_symbol_name("memcpy")
      15                    .dwattr $C$DW$1, DW_AT_type(*$C$DW$T$3)
      16                    .dwattr $C$DW$1, DW_AT_declaration
      17                    .dwattr $C$DW$1, DW_AT_external
      18            $C$DW$2 .dwtag  DW_TAG_formal_parameter
      19                    .dwattr $C$DW$2, DW_AT_type(*$C$DW$T$3)
      20            $C$DW$3 .dwtag  DW_TAG_formal_parameter
      21                    .dwattr $C$DW$3, DW_AT_type(*$C$DW$T$71)
      22            $C$DW$4 .dwtag  DW_TAG_formal_parameter
      23                    .dwattr $C$DW$4, DW_AT_type(*$C$DW$T$72)
      24                    .dwendtag $C$DW$1
      25            
      26            
      27            $C$DW$5 .dwtag  DW_TAG_subprogram, DW_AT_name("SimpleLinkWaitEvent")
      28                    .dwattr $C$DW$5, DW_AT_TI_symbol_name("SimpleLinkWaitEvent")
      29                    .dwattr $C$DW$5, DW_AT_declaration
      30                    .dwattr $C$DW$5, DW_AT_external
      31            $C$DW$6 .dwtag  DW_TAG_formal_parameter
      32                    .dwattr $C$DW$6, DW_AT_type(*$C$DW$T$23)
      33            $C$DW$7 .dwtag  DW_TAG_formal_parameter
      34                    .dwattr $C$DW$7, DW_AT_type(*$C$DW$T$3)
      35                    .dwendtag $C$DW$5
      36            
      37            
      38            $C$DW$8 .dwtag  DW_TAG_subprogram, DW_AT_name("SimpleLinkWaitData")
      39                    .dwattr $C$DW$8, DW_AT_TI_symbol_name("SimpleLinkWaitData")
      40                    .dwattr $C$DW$8, DW_AT_declaration
      41                    .dwattr $C$DW$8, DW_AT_external
      42            $C$DW$9 .dwtag  DW_TAG_formal_parameter
      43                    .dwattr $C$DW$9, DW_AT_type(*$C$DW$T$25)
      44            $C$DW$10        .dwtag  DW_TAG_formal_parameter
      45                    .dwattr $C$DW$10, DW_AT_type(*$C$DW$T$25)
      46            $C$DW$11        .dwtag  DW_TAG_formal_parameter
      47                    .dwattr $C$DW$11, DW_AT_type(*$C$DW$T$25)
      48                    .dwendtag $C$DW$8
      49            
      50            
      51            $C$DW$12        .dwtag  DW_TAG_subprogram, DW_AT_name("UINT32_TO_STREAM_f")
      52                    .dwattr $C$DW$12, DW_AT_TI_symbol_name("UINT32_TO_STREAM_f")
      53                    .dwattr $C$DW$12, DW_AT_type(*$C$DW$T$25)
      54                    .dwattr $C$DW$12, DW_AT_declaration
      55                    .dwattr $C$DW$12, DW_AT_external
MSP430 Assembler PC v4.2.1 Fri Mar 21 13:42:37 2014

Tools Copyright (c) 2003-2013 Texas Instruments Incorporated
C:\Users\409010~1\AppData\Local\Temp\0310410                         PAGE    2

      56            $C$DW$13        .dwtag  DW_TAG_formal_parameter
      57                    .dwattr $C$DW$13, DW_AT_type(*$C$DW$T$25)
      58            $C$DW$14        .dwtag  DW_TAG_formal_parameter
      59                    .dwattr $C$DW$14, DW_AT_type(*$C$DW$T$29)
      60                    .dwendtag $C$DW$12
      61            
      62            
      63            $C$DW$15        .dwtag  DW_TAG_subprogram, DW_AT_name("hci_command_send")
      64                    .dwattr $C$DW$15, DW_AT_TI_symbol_name("hci_command_send")
      65                    .dwattr $C$DW$15, DW_AT_type(*$C$DW$T$23)
      66                    .dwattr $C$DW$15, DW_AT_declaration
      67                    .dwattr $C$DW$15, DW_AT_external
      68            $C$DW$16        .dwtag  DW_TAG_formal_parameter
      69                    .dwattr $C$DW$16, DW_AT_type(*$C$DW$T$23)
      70            $C$DW$17        .dwtag  DW_TAG_formal_parameter
      71                    .dwattr $C$DW$17, DW_AT_type(*$C$DW$T$25)
      72            $C$DW$18        .dwtag  DW_TAG_formal_parameter
      73                    .dwattr $C$DW$18, DW_AT_type(*$C$DW$T$24)
      74                    .dwendtag $C$DW$15
      75            
      76            
      77            $C$DW$19        .dwtag  DW_TAG_subprogram, DW_AT_name("hci_data_send")
      78                    .dwattr $C$DW$19, DW_AT_TI_symbol_name("hci_data_send")
      79                    .dwattr $C$DW$19, DW_AT_type(*$C$DW$T$19)
      80                    .dwattr $C$DW$19, DW_AT_declaration
      81                    .dwattr $C$DW$19, DW_AT_external
      82            $C$DW$20        .dwtag  DW_TAG_formal_parameter
      83                    .dwattr $C$DW$20, DW_AT_type(*$C$DW$T$24)
      84            $C$DW$21        .dwtag  DW_TAG_formal_parameter
      85                    .dwattr $C$DW$21, DW_AT_type(*$C$DW$T$25)
      86            $C$DW$22        .dwtag  DW_TAG_formal_parameter
      87                    .dwattr $C$DW$22, DW_AT_type(*$C$DW$T$23)
      88            $C$DW$23        .dwtag  DW_TAG_formal_parameter
      89                    .dwattr $C$DW$23, DW_AT_type(*$C$DW$T$23)
      90            $C$DW$24        .dwtag  DW_TAG_formal_parameter
      91                    .dwattr $C$DW$24, DW_AT_type(*$C$DW$T$85)
      92            $C$DW$25        .dwtag  DW_TAG_formal_parameter
      93                    .dwattr $C$DW$25, DW_AT_type(*$C$DW$T$23)
      94                    .dwendtag $C$DW$19
      95            
      96            
      97            $C$DW$26        .dwtag  DW_TAG_subprogram, DW_AT_name("set_socket_active_status")
      98                    .dwattr $C$DW$26, DW_AT_TI_symbol_name("set_socket_active_status")
      99                    .dwattr $C$DW$26, DW_AT_declaration
     100                    .dwattr $C$DW$26, DW_AT_external
     101            $C$DW$27        .dwtag  DW_TAG_formal_parameter
     102                    .dwattr $C$DW$27, DW_AT_type(*$C$DW$T$19)
     103            $C$DW$28        .dwtag  DW_TAG_formal_parameter
     104                    .dwattr $C$DW$28, DW_AT_type(*$C$DW$T$19)
     105                    .dwendtag $C$DW$26
     106            
     107            
     108            $C$DW$29        .dwtag  DW_TAG_subprogram, DW_AT_name("get_socket_active_status")
     109                    .dwattr $C$DW$29, DW_AT_TI_symbol_name("get_socket_active_status")
     110                    .dwattr $C$DW$29, DW_AT_type(*$C$DW$T$19)
MSP430 Assembler PC v4.2.1 Fri Mar 21 13:42:37 2014

Tools Copyright (c) 2003-2013 Texas Instruments Incorporated
C:\Users\409010~1\AppData\Local\Temp\0310410                         PAGE    3

     111                    .dwattr $C$DW$29, DW_AT_declaration
     112                    .dwattr $C$DW$29, DW_AT_external
     113            $C$DW$30        .dwtag  DW_TAG_formal_parameter
     114                    .dwattr $C$DW$30, DW_AT_type(*$C$DW$T$19)
     115                    .dwendtag $C$DW$29
     116            
     117            $C$DW$31        .dwtag  DW_TAG_variable, DW_AT_name("_Errno")
     118                    .dwattr $C$DW$31, DW_AT_TI_symbol_name("_Errno")
     119                    .dwattr $C$DW$31, DW_AT_type(*$C$DW$T$10)
     120                    .dwattr $C$DW$31, DW_AT_declaration
     121                    .dwattr $C$DW$31, DW_AT_external
     122            $C$DW$32        .dwtag  DW_TAG_variable, DW_AT_name("tSLInformation")
     123                    .dwattr $C$DW$32, DW_AT_TI_symbol_name("tSLInformation")
     124                    .dwattr $C$DW$32, DW_AT_type(*$C$DW$T$69)
     125                    .dwattr $C$DW$32, DW_AT_declaration
     126                    .dwattr $C$DW$32, DW_AT_external
     127            ;       C:\ti\ccsv5\tools\compiler\msp430_4.2.1\bin\opt430.exe C:\\Users\\409010~1\\AppData\\Local\\Te
     128 000000               .sect   ".text:socket"
     129                    .align  2
     130                    .clink
     131                    .global socket
     132            
     133            $C$DW$33        .dwtag  DW_TAG_subprogram, DW_AT_name("socket")
     134                    .dwattr $C$DW$33, DW_AT_low_pc(socket)
     135                    .dwattr $C$DW$33, DW_AT_high_pc(0x00)
     136                    .dwattr $C$DW$33, DW_AT_TI_symbol_name("socket")
     137                    .dwattr $C$DW$33, DW_AT_external
     138                    .dwattr $C$DW$33, DW_AT_type(*$C$DW$T$92)
     139                    .dwattr $C$DW$33, DW_AT_TI_begin_file("C:/Users/409010855/Documents/GitHub/CHARM/Embedded_Volt
     140                    .dwattr $C$DW$33, DW_AT_TI_begin_line(0xba)
     141                    .dwattr $C$DW$33, DW_AT_TI_begin_column(0x07)
     142                    .dwattr $C$DW$33, DW_AT_TI_max_frame_size(0x1c)
     143                    .dwpsn  file "C:/Users/409010855/Documents/GitHub/CHARM/Embedded_Voltmeter/Basic WiFi Source/S
     144            
     145                    .dwfde $C$DW$CIE, socket
     146            $C$DW$34        .dwtag  DW_TAG_formal_parameter, DW_AT_name("domain")
     147                    .dwattr $C$DW$34, DW_AT_TI_symbol_name("domain")
     148                    .dwattr $C$DW$34, DW_AT_type(*$C$DW$T$19)
     149                    .dwattr $C$DW$34, DW_AT_location[DW_OP_reg12 DW_OP_piece 2 DW_OP_reg13 DW_OP_piece 2]
     150            $C$DW$35        .dwtag  DW_TAG_formal_parameter, DW_AT_name("type")
     151                    .dwattr $C$DW$35, DW_AT_TI_symbol_name("type")
     152                    .dwattr $C$DW$35, DW_AT_type(*$C$DW$T$19)
     153                    .dwattr $C$DW$35, DW_AT_location[DW_OP_reg14 DW_OP_piece 2 DW_OP_reg15 DW_OP_piece 2]
     154            $C$DW$36        .dwtag  DW_TAG_formal_parameter, DW_AT_name("protocol")
     155                    .dwattr $C$DW$36, DW_AT_TI_symbol_name("protocol")
     156                    .dwattr $C$DW$36, DW_AT_type(*$C$DW$T$19)
     157                    .dwattr $C$DW$36, DW_AT_location[DW_OP_breg1 28]
     158            
     159            ;*****************************************************************************
     160            ;* FUNCTION NAME: socket                                                     *
     161            ;*                                                                           *
     162            ;*   Regs Modified     : SP,SR,r6,r7,r8,r9,r10,r11,r12,r13,r14,r15           *
     163            ;*   Regs Used         : SP,SR,r6,r7,r8,r9,r10,r11,r12,r13,r14,r15           *
     164            ;*   Local Frame Size  : 0 Args + 4 Auto + 20 Save = 24 byte                 *
     165            ;*****************************************************************************
MSP430 Assembler PC v4.2.1 Fri Mar 21 13:42:37 2014

Tools Copyright (c) 2003-2013 Texas Instruments Incorporated
C:\Users\409010~1\AppData\Local\Temp\0310410                         PAGE    4

     166            socket:
     167            ;* --------------------------------------------------------------------------*
     168            ;* r15   assigned to domain
     169            $C$DW$37        .dwtag  DW_TAG_variable, DW_AT_name("domain")
     170                    .dwattr $C$DW$37, DW_AT_TI_symbol_name("domain")
     171                    .dwattr $C$DW$37, DW_AT_type(*$C$DW$T$139)
     172                    .dwattr $C$DW$37, DW_AT_location[DW_OP_reg15 DW_OP_piece 2 DW_OP_reg16 DW_OP_piece 2]
     173            ;* r15   assigned to type
     174            $C$DW$38        .dwtag  DW_TAG_variable, DW_AT_name("type")
     175                    .dwattr $C$DW$38, DW_AT_TI_symbol_name("type")
     176                    .dwattr $C$DW$38, DW_AT_type(*$C$DW$T$139)
     177                    .dwattr $C$DW$38, DW_AT_location[DW_OP_reg15 DW_OP_piece 2 DW_OP_reg16 DW_OP_piece 2]
     178            ;* r6    assigned to protocol
     179            $C$DW$39        .dwtag  DW_TAG_variable, DW_AT_name("protocol")
     180                    .dwattr $C$DW$39, DW_AT_TI_symbol_name("protocol")
     181                    .dwattr $C$DW$39, DW_AT_type(*$C$DW$T$139)
     182                    .dwattr $C$DW$39, DW_AT_location[DW_OP_reg6 DW_OP_piece 2 DW_OP_reg7 DW_OP_piece 2]
     183            $C$DW$40        .dwtag  DW_TAG_variable, DW_AT_name("ret")
     184                    .dwattr $C$DW$40, DW_AT_TI_symbol_name("ret")
     185                    .dwattr $C$DW$40, DW_AT_type(*$C$DW$T$19)
     186                    .dwattr $C$DW$40, DW_AT_location[DW_OP_breg1 0]
     187            ;* r8    assigned to ptr
     188            $C$DW$41        .dwtag  DW_TAG_variable, DW_AT_name("ptr")
     189                    .dwattr $C$DW$41, DW_AT_TI_symbol_name("ptr")
     190                    .dwattr $C$DW$41, DW_AT_type(*$C$DW$T$25)
     191                    .dwattr $C$DW$41, DW_AT_location[DW_OP_reg8]
     192            ;* r12   assigned to args
     193            $C$DW$42        .dwtag  DW_TAG_variable, DW_AT_name("args")
     194                    .dwattr $C$DW$42, DW_AT_TI_symbol_name("args")
     195                    .dwattr $C$DW$42, DW_AT_type(*$C$DW$T$25)
     196                    .dwattr $C$DW$42, DW_AT_location[DW_OP_reg12]
     197                    .dwcfi  cfa_offset, 4
     198                    .dwcfi  save_reg_to_mem, 16, -4
     199 000000 144A          PUSHM.A   #5,r10                ; [] 
     200                    .dwcfi  save_reg_to_mem, 10, -8
     201                    .dwcfi  save_reg_to_mem, 9, -12
     202                    .dwcfi  save_reg_to_mem, 8, -16
     203                    .dwcfi  save_reg_to_mem, 7, -20
     204                    .dwcfi  save_reg_to_mem, 6, -24
     205                    .dwcfi  cfa_offset, 24
     206 000002 8221          SUB.W     #4,SP                 ; [] 
     207                    .dwcfi  cfa_offset, 28
     208 000004 0EC9          MOVA      r14,r9                ; [] |187| 
     209 000006 0DCE          MOVA      r13,r14               ; [] |187| 
     210 000008 0FCA          MOVA      r15,r10               ; [] |187| 
     211 00000a 0CCD          MOVA      r12,r13               ; [] |187| 
     212 00000c 4116          MOV.W     28(SP),r6             ; [] |187| 
         00000e 001C 
     213 000010 4117          MOV.W     30(SP),r7             ; [] |187| 
         000012 001E 
     214                    .dwpsn  file "C:/Users/409010855/Documents/GitHub/CHARM/Embedded_Voltmeter/Basic WiFi Source/S
     215 000014 43B1          MOV.W     #-1,0(SP)             ; [] |191| 
         000016 0000 
     216 000018 43B1          MOV.W     #-1,2(SP)             ; [] |191| 
         00001a 0002 
MSP430 Assembler PC v4.2.1 Fri Mar 21 13:42:37 2014

Tools Copyright (c) 2003-2013 Texas Instruments Incorporated
C:\Users\409010~1\AppData\Local\Temp\0310410                         PAGE    5

     217                    .dwpsn  file "C:/Users/409010855/Documents/GitHub/CHARM/Embedded_Voltmeter/Basic WiFi Source/S
     218 00001c 4218          MOV.W     &tSLInformation+6,r8  ; [] |192| 
         00001e 0006!
     219                    .dwpsn  file "C:/Users/409010855/Documents/GitHub/CHARM/Embedded_Voltmeter/Basic WiFi Source/S
     220 000020 403C          MOV.W     #9,r12                ; [] |196| 
         000022 0009 
     221 000024 580C          ADD.W     r8,r12                ; [] |196| 
     222            $C$DW$43        .dwtag  DW_TAG_TI_branch
     223                    .dwattr $C$DW$43, DW_AT_low_pc(0x00)
     224                    .dwattr $C$DW$43, DW_AT_name("UINT32_TO_STREAM_f")
     225                    .dwattr $C$DW$43, DW_AT_TI_call
     226 000026 13B0!         CALLA     #UINT32_TO_STREAM_f   ; [] |196| 
         000028 0000 
     227                                                      ; [] |196| 
     228                    .dwpsn  file "C:/Users/409010855/Documents/GitHub/CHARM/Embedded_Voltmeter/Basic WiFi Source/S
     229 00002a 09CD          MOVA      r9,r13                ; [] |197| 
     230 00002c 0ACE          MOVA      r10,r14               ; [] |197| 
     231            $C$DW$44        .dwtag  DW_TAG_TI_branch
     232                    .dwattr $C$DW$44, DW_AT_low_pc(0x00)
     233                    .dwattr $C$DW$44, DW_AT_name("UINT32_TO_STREAM_f")
     234                    .dwattr $C$DW$44, DW_AT_TI_call
     235 00002e 13B0!         CALLA     #UINT32_TO_STREAM_f   ; [] |197| 
         000030 0000 
     236                                                      ; [] |197| 
     237                    .dwpsn  file "C:/Users/409010855/Documents/GitHub/CHARM/Embedded_Voltmeter/Basic WiFi Source/S
     238 000032 06CD          MOVA      r6,r13                ; [] |198| 
     239 000034 07CE          MOVA      r7,r14                ; [] |198| 
     240            $C$DW$45        .dwtag  DW_TAG_TI_branch
     241                    .dwattr $C$DW$45, DW_AT_low_pc(0x00)
     242                    .dwattr $C$DW$45, DW_AT_name("UINT32_TO_STREAM_f")
     243                    .dwattr $C$DW$45, DW_AT_TI_call
     244 000036 13B0!         CALLA     #UINT32_TO_STREAM_f   ; [] |198| 
         000038 0000 
     245                                                      ; [] |198| 
     246                    .dwpsn  file "C:/Users/409010855/Documents/GitHub/CHARM/Embedded_Voltmeter/Basic WiFi Source/S
     247 00003a 403C          MOV.W     #4097,r12             ; [] |201| 
         00003c 1001 
     248 00003e 08CD          MOVA      r8,r13                ; [] |201| 
     249 000040 407E          MOV.B     #12,r14               ; [] |201| 
         000042 000C 
     250            $C$DW$46        .dwtag  DW_TAG_TI_branch
     251                    .dwattr $C$DW$46, DW_AT_low_pc(0x00)
     252                    .dwattr $C$DW$46, DW_AT_name("hci_command_send")
     253                    .dwattr $C$DW$46, DW_AT_TI_call
     254 000044 13B0!         CALLA     #hci_command_send     ; [] |201| 
         000046 0000 
     255                                                      ; [] |201| 
     256                    .dwpsn  file "C:/Users/409010855/Documents/GitHub/CHARM/Embedded_Voltmeter/Basic WiFi Source/S
     257 000048 403C          MOV.W     #4097,r12             ; [] |204| 
         00004a 1001 
     258 00004c 01CD          MOVA      SP,r13                ; [] |204| 
     259            $C$DW$47        .dwtag  DW_TAG_TI_branch
     260                    .dwattr $C$DW$47, DW_AT_low_pc(0x00)
     261                    .dwattr $C$DW$47, DW_AT_name("SimpleLinkWaitEvent")
     262                    .dwattr $C$DW$47, DW_AT_TI_call
MSP430 Assembler PC v4.2.1 Fri Mar 21 13:42:37 2014

Tools Copyright (c) 2003-2013 Texas Instruments Incorporated
C:\Users\409010~1\AppData\Local\Temp\0310410                         PAGE    6

     263 00004e 13B0!         CALLA     #SimpleLinkWaitEvent  ; [] |204| 
         000050 0000 
     264                                                      ; [] |204| 
     265                    .dwpsn  file "C:/Users/409010855/Documents/GitHub/CHARM/Embedded_Voltmeter/Basic WiFi Source/S
     266 000052 41A2          MOV.W     0(SP),&_Errno+0       ; [] |207| 
         000054 0000!
     267                    .dwpsn  file "C:/Users/409010855/Documents/GitHub/CHARM/Embedded_Voltmeter/Basic WiFi Source/S
     268 000056 412C          MOV.W     0(SP),r12             ; [] |209| 
     269 000058 411D          MOV.W     2(SP),r13             ; [] |209| 
         00005a 0002 
     270 00005c 430E          MOV.W     #0,r14                ; [] |209| 
     271 00005e 430F          MOV.W     #0,r15                ; [] |209| 
     272            $C$DW$48        .dwtag  DW_TAG_TI_branch
     273                    .dwattr $C$DW$48, DW_AT_low_pc(0x00)
     274                    .dwattr $C$DW$48, DW_AT_name("set_socket_active_status")
     275                    .dwattr $C$DW$48, DW_AT_TI_call
     276 000060 13B0!         CALLA     #set_socket_active_status ; [] |209| 
         000062 0000 
     277                                                      ; [] |209| 
     278                    .dwpsn  file "C:/Users/409010855/Documents/GitHub/CHARM/Embedded_Voltmeter/Basic WiFi Source/S
     279 000064 412C          MOV.W     0(SP),r12             ; [] |211| 
     280 000066 5221          ADD.W     #4,SP                 ; [] 
     281                    .dwcfi  cfa_offset, 24
     282 000068 1646          POPM.A    #5,r10                ; [] 
     283                    .dwcfi  restore_reg, 6
     284                    .dwcfi  restore_reg, 7
     285                    .dwcfi  restore_reg, 8
     286                    .dwcfi  restore_reg, 9
     287                    .dwcfi  restore_reg, 10
     288                    .dwcfi  cfa_offset, 4
     289            $C$DW$49        .dwtag  DW_TAG_TI_branch
     290                    .dwattr $C$DW$49, DW_AT_low_pc(0x00)
     291                    .dwattr $C$DW$49, DW_AT_TI_return
     292 00006a 0110          RETA      ; [] 
     293                    ; [] 
     294                    .dwattr $C$DW$33, DW_AT_TI_end_file("C:/Users/409010855/Documents/GitHub/CHARM/Embedded_Voltme
     295                    .dwattr $C$DW$33, DW_AT_TI_end_line(0xd4)
     296                    .dwattr $C$DW$33, DW_AT_TI_end_column(0x01)
     297                    .dwendentry
     298                    .dwendtag $C$DW$33
     299            
     300 000000               .sect   ".text:HostFlowControlConsumeBuff"
     301                    .align  2
     302                    .clink
     303                    .global HostFlowControlConsumeBuff
     304            
     305            $C$DW$50        .dwtag  DW_TAG_subprogram, DW_AT_name("HostFlowControlConsumeBuff")
     306                    .dwattr $C$DW$50, DW_AT_low_pc(HostFlowControlConsumeBuff)
     307                    .dwattr $C$DW$50, DW_AT_high_pc(0x00)
     308                    .dwattr $C$DW$50, DW_AT_TI_symbol_name("HostFlowControlConsumeBuff")
     309                    .dwattr $C$DW$50, DW_AT_external
     310                    .dwattr $C$DW$50, DW_AT_type(*$C$DW$T$92)
     311                    .dwattr $C$DW$50, DW_AT_TI_begin_file("C:/Users/409010855/Documents/GitHub/CHARM/Embedded_Volt
     312                    .dwattr $C$DW$50, DW_AT_TI_begin_line(0x70)
     313                    .dwattr $C$DW$50, DW_AT_TI_begin_column(0x07)
MSP430 Assembler PC v4.2.1 Fri Mar 21 13:42:37 2014

Tools Copyright (c) 2003-2013 Texas Instruments Incorporated
C:\Users\409010~1\AppData\Local\Temp\0310410                         PAGE    7

     314                    .dwattr $C$DW$50, DW_AT_TI_max_frame_size(0x08)
     315                    .dwpsn  file "C:/Users/409010855/Documents/GitHub/CHARM/Embedded_Voltmeter/Basic WiFi Source/S
     316            
     317                    .dwfde $C$DW$CIE, HostFlowControlConsumeBuff
     318            $C$DW$51        .dwtag  DW_TAG_formal_parameter, DW_AT_name("sd")
     319                    .dwattr $C$DW$51, DW_AT_TI_symbol_name("sd")
     320                    .dwattr $C$DW$51, DW_AT_type(*$C$DW$T$92)
     321                    .dwattr $C$DW$51, DW_AT_location[DW_OP_reg12]
     322            
     323            ;*****************************************************************************
     324            ;* FUNCTION NAME: HostFlowControlConsumeBuff                                 *
     325            ;*                                                                           *
     326            ;*   Regs Modified     : SP,SR,r10,r11,r12,r13,r14,r15                       *
     327            ;*   Regs Used         : SP,SR,r10,r11,r12,r13,r14,r15                       *
     328            ;*   Local Frame Size  : 0 Args + 0 Auto + 4 Save = 4 byte                   *
     329            ;*****************************************************************************
     330            HostFlowControlConsumeBuff:
     331            ;* --------------------------------------------------------------------------*
     332            ;* r10   assigned to sd
     333            $C$DW$52        .dwtag  DW_TAG_variable, DW_AT_name("sd")
     334                    .dwattr $C$DW$52, DW_AT_TI_symbol_name("sd")
     335                    .dwattr $C$DW$52, DW_AT_type(*$C$DW$T$93)
     336                    .dwattr $C$DW$52, DW_AT_location[DW_OP_reg10]
     337                    .dwcfi  cfa_offset, 4
     338                    .dwcfi  save_reg_to_mem, 16, -4
     339 000000 140A          PUSHM.A   #1,r10                ; [] 
     340                    .dwcfi  save_reg_to_mem, 10, -8
     341                    .dwcfi  cfa_offset, 8
     342 000002 0CCA          MOVA      r12,r10               ; [] |113| 
     343            ;* --------------------------------------------------------------------------*
     344            ;*   BEGIN LOOP $C$L1
     345            ;*
     346            ;*   Loop source line                : 116
     347            ;*   Loop closing brace source line  : 130
     348            ;*   Known Minimum Trip Count        : 1
     349            ;*   Known Maximum Trip Count        : 4294967295
     350            ;*   Known Max Trip Count Factor     : 1
     351            ;* --------------------------------------------------------------------------*
     352 000004       $C$L1:    
     353                    .dwpsn  file "C:/Users/409010855/Documents/GitHub/CHARM/Embedded_Voltmeter/Basic WiFi Source/S
     354 000004 9382          TST.W     &tSLInformation+42    ; [] |121| 
         000006 002A!
     355 000008 2003          JNE       $C$L2                 ; [] |121| 
     356                                                      ; [] |121| 
     357            ;* --------------------------------------------------------------------------*
     358 00000a 9382          TST.W     &tSLInformation+40    ; [] |121| 
         00000c 0028!
     359 00000e 2409          JEQ       $C$L3                 ; [] |121| 
     360                                                      ; [] |121| 
     361            ;* --------------------------------------------------------------------------*
     362 000010       $C$L2:    
     363                    .dwpsn  file "C:/Users/409010855/Documents/GitHub/CHARM/Embedded_Voltmeter/Basic WiFi Source/S
     364 000010 4292          MOV.W     &tSLInformation+40,&_Errno+0 ; [] |123| 
         000012 0028!
         000014 0000!
MSP430 Assembler PC v4.2.1 Fri Mar 21 13:42:37 2014

Tools Copyright (c) 2003-2013 Texas Instruments Incorporated
C:\Users\409010~1\AppData\Local\Temp\0310410                         PAGE    8

     365                    .dwpsn  file "C:/Users/409010855/Documents/GitHub/CHARM/Embedded_Voltmeter/Basic WiFi Source/S
     366 000016 1800!         MOVX.A    #0,&tSLInformation+40 ; [] |124| 
         000018 43C2 
         00001a 0028 
     367                    .dwpsn  file "C:/Users/409010855/Documents/GitHub/CHARM/Embedded_Voltmeter/Basic WiFi Source/S
     368 00001c 421C          MOV.W     &_Errno+0,r12         ; [] |125| 
         00001e 0000!
     369 000020 3C13          JMP       $C$L6                 ; [] |125| 
     370                                                      ; [] |125| 
     371            ;* --------------------------------------------------------------------------*
     372 000022       $C$L3:    
     373                    .dwpsn  file "C:/Users/409010855/Documents/GitHub/CHARM/Embedded_Voltmeter/Basic WiFi Source/S
     374 000022 0ACC          MOVA      r10,r12               ; [] |128| 
     375 000024 B03C          BIT.W     #32768,r12            ; [] |128| 
         000026 8000 
     376 000028 7D0D          SUBC.W    r13,r13               ; [] |128| 
     377 00002a E33D          INV.W     r13                   ; [] |128| 
     378            $C$DW$53        .dwtag  DW_TAG_TI_branch
     379                    .dwattr $C$DW$53, DW_AT_low_pc(0x00)
     380                    .dwattr $C$DW$53, DW_AT_name("get_socket_active_status")
     381                    .dwattr $C$DW$53, DW_AT_TI_call
     382 00002c 13B0!         CALLA     #get_socket_active_status ; [] |128| 
         00002e 0000 
     383                                                      ; [] |128| 
     384 000030 930D          TST.W     r13                   ; [] |128| 
     385 000032 2002          JNE       $C$L4                 ; [] |128| 
     386                                                      ; [] |128| 
     387            ;* --------------------------------------------------------------------------*
     388 000034 930C          TST.W     r12                   ; [] |128| 
     389 000036 2402          JEQ       $C$L5                 ; [] |128| 
     390                                                      ; [] |128| 
     391            ;* --------------------------------------------------------------------------*
     392 000038       $C$L4:    
     393                    .dwpsn  file "C:/Users/409010855/Documents/GitHub/CHARM/Embedded_Voltmeter/Basic WiFi Source/S
     394 000038 433C          MOV.W     #-1,r12               ; [] |129| 
     395 00003a 3C06          JMP       $C$L6                 ; [] |129| 
     396                                                      ; [] |129| 
     397            ;* --------------------------------------------------------------------------*
     398 00003c       $C$L5:    
     399                    .dwpsn  file "C:/Users/409010855/Documents/GitHub/CHARM/Embedded_Voltmeter/Basic WiFi Source/S
     400 00003c 9382          TST.W     &tSLInformation+44    ; [] |130| 
         00003e 002C!
     401 000040 27E1          JEQ       $C$L1                 ; [] |130| 
     402                                                      ; [] |130| 
     403            ;* --------------------------------------------------------------------------*
     404                    .dwpsn  file "C:/Users/409010855/Documents/GitHub/CHARM/Embedded_Voltmeter/Basic WiFi Source/S
     405 000042 8392          SUB.W     #1,&tSLInformation+44 ; [] |132| 
         000044 002C!
     406                    .dwpsn  file "C:/Users/409010855/Documents/GitHub/CHARM/Embedded_Voltmeter/Basic WiFi Source/S
     407 000046 430C          MOV.W     #0,r12                ; [] |134| 
     408            ;* --------------------------------------------------------------------------*
     409 000048       $C$L6:    
     410 000048 160A          POPM.A    #1,r10                ; [] 
     411                    .dwcfi  restore_reg, 10
     412                    .dwcfi  cfa_offset, 4
MSP430 Assembler PC v4.2.1 Fri Mar 21 13:42:37 2014

Tools Copyright (c) 2003-2013 Texas Instruments Incorporated
C:\Users\409010~1\AppData\Local\Temp\0310410                         PAGE    9

     413            $C$DW$54        .dwtag  DW_TAG_TI_branch
     414                    .dwattr $C$DW$54, DW_AT_low_pc(0x00)
     415                    .dwattr $C$DW$54, DW_AT_TI_return
     416 00004a 0110          RETA      ; [] 
     417                    ; [] 
     418                    .dwattr $C$DW$50, DW_AT_TI_end_file("C:/Users/409010855/Documents/GitHub/CHARM/Embedded_Voltme
     419                    .dwattr $C$DW$50, DW_AT_TI_end_line(0xa2)
     420                    .dwattr $C$DW$50, DW_AT_TI_end_column(0x01)
     421                    .dwendentry
     422                    .dwendtag $C$DW$50
     423            
     424 000000               .sect   ".text:simple_link_send"
     425                    .align  2
     426                    .clink
     427                    .global simple_link_send
     428            
     429            $C$DW$55        .dwtag  DW_TAG_subprogram, DW_AT_name("simple_link_send")
     430                    .dwattr $C$DW$55, DW_AT_low_pc(simple_link_send)
     431                    .dwattr $C$DW$55, DW_AT_high_pc(0x00)
     432                    .dwattr $C$DW$55, DW_AT_TI_symbol_name("simple_link_send")
     433                    .dwattr $C$DW$55, DW_AT_external
     434                    .dwattr $C$DW$55, DW_AT_type(*$C$DW$T$92)
     435                    .dwattr $C$DW$55, DW_AT_TI_begin_file("C:/Users/409010855/Documents/GitHub/CHARM/Embedded_Volt
     436                    .dwattr $C$DW$55, DW_AT_TI_begin_line(0x3d1)
     437                    .dwattr $C$DW$55, DW_AT_TI_begin_column(0x07)
     438                    .dwattr $C$DW$55, DW_AT_TI_max_frame_size(0x44)
     439                    .dwpsn  file "C:/Users/409010855/Documents/GitHub/CHARM/Embedded_Voltmeter/Basic WiFi Source/S
     440            
     441                    .dwfde $C$DW$CIE, simple_link_send
     442            $C$DW$56        .dwtag  DW_TAG_formal_parameter, DW_AT_name("sd")
     443                    .dwattr $C$DW$56, DW_AT_TI_symbol_name("sd")
     444                    .dwattr $C$DW$56, DW_AT_type(*$C$DW$T$19)
     445                    .dwattr $C$DW$56, DW_AT_location[DW_OP_reg12 DW_OP_piece 2 DW_OP_reg13 DW_OP_piece 2]
     446            $C$DW$57        .dwtag  DW_TAG_formal_parameter, DW_AT_name("buf")
     447                    .dwattr $C$DW$57, DW_AT_TI_symbol_name("buf")
     448                    .dwattr $C$DW$57, DW_AT_type(*$C$DW$T$71)
     449                    .dwattr $C$DW$57, DW_AT_location[DW_OP_reg14]
     450            $C$DW$58        .dwtag  DW_TAG_formal_parameter, DW_AT_name("len")
     451                    .dwattr $C$DW$58, DW_AT_TI_symbol_name("len")
     452                    .dwattr $C$DW$58, DW_AT_type(*$C$DW$T$19)
     453                    .dwattr $C$DW$58, DW_AT_location[DW_OP_reg15 DW_OP_piece 2 DW_OP_reg16 DW_OP_piece 2]
     454            $C$DW$59        .dwtag  DW_TAG_formal_parameter, DW_AT_name("flags")
     455                    .dwattr $C$DW$59, DW_AT_TI_symbol_name("flags")
     456                    .dwattr $C$DW$59, DW_AT_type(*$C$DW$T$19)
     457                    .dwattr $C$DW$59, DW_AT_location[DW_OP_breg1 70]
     458            $C$DW$60        .dwtag  DW_TAG_formal_parameter, DW_AT_name("to")
     459                    .dwattr $C$DW$60, DW_AT_TI_symbol_name("to")
     460                    .dwattr $C$DW$60, DW_AT_type(*$C$DW$T$108)
     461                    .dwattr $C$DW$60, DW_AT_location[DW_OP_breg1 74]
     462            $C$DW$61        .dwtag  DW_TAG_formal_parameter, DW_AT_name("tolen")
     463                    .dwattr $C$DW$61, DW_AT_TI_symbol_name("tolen")
     464                    .dwattr $C$DW$61, DW_AT_type(*$C$DW$T$19)
     465                    .dwattr $C$DW$61, DW_AT_location[DW_OP_breg1 76]
     466            $C$DW$62        .dwtag  DW_TAG_formal_parameter, DW_AT_name("opcode")
     467                    .dwattr $C$DW$62, DW_AT_TI_symbol_name("opcode")
MSP430 Assembler PC v4.2.1 Fri Mar 21 13:42:37 2014

Tools Copyright (c) 2003-2013 Texas Instruments Incorporated
C:\Users\409010~1\AppData\Local\Temp\0310410                         PAGE   10

     468                    .dwattr $C$DW$62, DW_AT_type(*$C$DW$T$19)
     469                    .dwattr $C$DW$62, DW_AT_location[DW_OP_breg1 80]
     470            
     471            ;*****************************************************************************
     472            ;* FUNCTION NAME: simple_link_send                                           *
     473            ;*                                                                           *
     474            ;*   Regs Modified     : SP,SR,r4,r5,r6,r7,r8,r9,r10,r11,r12,r13,r14,r15     *
     475            ;*   Regs Used         : SP,SR,r4,r5,r6,r7,r8,r9,r10,r11,r12,r13,r14,r15     *
     476            ;*   Local Frame Size  : 4 Args + 32 Auto + 28 Save = 64 byte                *
     477            ;*****************************************************************************
     478            simple_link_send:
     479            ;* --------------------------------------------------------------------------*
     480            ;* r15   assigned to _i
     481            $C$DW$63        .dwtag  DW_TAG_variable, DW_AT_name("_i")
     482                    .dwattr $C$DW$63, DW_AT_TI_symbol_name("_i")
     483                    .dwattr $C$DW$63, DW_AT_type(*$C$DW$T$92)
     484                    .dwattr $C$DW$63, DW_AT_location[DW_OP_reg15]
     485            ;* r15   assigned to _i
     486            $C$DW$64        .dwtag  DW_TAG_variable, DW_AT_name("_i")
     487                    .dwattr $C$DW$64, DW_AT_TI_symbol_name("_i")
     488                    .dwattr $C$DW$64, DW_AT_type(*$C$DW$T$92)
     489                    .dwattr $C$DW$64, DW_AT_location[DW_OP_reg15]
     490            ;* r12   assigned to res
     491            $C$DW$65        .dwtag  DW_TAG_variable, DW_AT_name("res")
     492                    .dwattr $C$DW$65, DW_AT_TI_symbol_name("res")
     493                    .dwattr $C$DW$65, DW_AT_type(*$C$DW$T$92)
     494                    .dwattr $C$DW$65, DW_AT_location[DW_OP_reg12]
     495            $C$DW$66        .dwtag  DW_TAG_variable, DW_AT_name("addr_offset")
     496                    .dwattr $C$DW$66, DW_AT_TI_symbol_name("addr_offset")
     497                    .dwattr $C$DW$66, DW_AT_type(*$C$DW$T$29)
     498                    .dwattr $C$DW$66, DW_AT_location[DW_OP_breg1 16]
     499            ;* r12   assigned to args
     500            $C$DW$67        .dwtag  DW_TAG_variable, DW_AT_name("args")
     501                    .dwattr $C$DW$67, DW_AT_TI_symbol_name("args")
     502                    .dwattr $C$DW$67, DW_AT_type(*$C$DW$T$25)
     503                    .dwattr $C$DW$67, DW_AT_location[DW_OP_reg12]
     504            ;* r10   assigned to pDataPtr
     505            $C$DW$68        .dwtag  DW_TAG_variable, DW_AT_name("pDataPtr")
     506                    .dwattr $C$DW$68, DW_AT_TI_symbol_name("pDataPtr")
     507                    .dwattr $C$DW$68, DW_AT_type(*$C$DW$T$25)
     508                    .dwattr $C$DW$68, DW_AT_location[DW_OP_reg10]
     509            $C$DW$69        .dwtag  DW_TAG_variable, DW_AT_name("ptr")
     510                    .dwattr $C$DW$69, DW_AT_TI_symbol_name("ptr")
     511                    .dwattr $C$DW$69, DW_AT_type(*$C$DW$T$25)
     512                    .dwattr $C$DW$69, DW_AT_location[DW_OP_breg1 20]
     513            $C$DW$70        .dwtag  DW_TAG_variable, DW_AT_name("uArgSize")
     514                    .dwattr $C$DW$70, DW_AT_TI_symbol_name("uArgSize")
     515                    .dwattr $C$DW$70, DW_AT_type(*$C$DW$T$24)
     516                    .dwattr $C$DW$70, DW_AT_location[DW_OP_breg1 22]
     517            ;* r6    assigned to opcode
     518            $C$DW$71        .dwtag  DW_TAG_variable, DW_AT_name("opcode")
     519                    .dwattr $C$DW$71, DW_AT_TI_symbol_name("opcode")
     520                    .dwattr $C$DW$71, DW_AT_type(*$C$DW$T$139)
     521                    .dwattr $C$DW$71, DW_AT_location[DW_OP_reg6 DW_OP_piece 2 DW_OP_reg7 DW_OP_piece 2]
     522            ;* r7    assigned to tolen
MSP430 Assembler PC v4.2.1 Fri Mar 21 13:42:37 2014

Tools Copyright (c) 2003-2013 Texas Instruments Incorporated
C:\Users\409010~1\AppData\Local\Temp\0310410                         PAGE   11

     523            $C$DW$72        .dwtag  DW_TAG_variable, DW_AT_name("tolen")
     524                    .dwattr $C$DW$72, DW_AT_TI_symbol_name("tolen")
     525                    .dwattr $C$DW$72, DW_AT_type(*$C$DW$T$19)
     526                    .dwattr $C$DW$72, DW_AT_location[DW_OP_reg7 DW_OP_piece 2 DW_OP_reg8 DW_OP_piece 2]
     527            $C$DW$73        .dwtag  DW_TAG_variable, DW_AT_name("to")
     528                    .dwattr $C$DW$73, DW_AT_TI_symbol_name("to")
     529                    .dwattr $C$DW$73, DW_AT_type(*$C$DW$T$108)
     530                    .dwattr $C$DW$73, DW_AT_location[DW_OP_breg1 24]
     531            $C$DW$74        .dwtag  DW_TAG_variable, DW_AT_name("flags")
     532                    .dwattr $C$DW$74, DW_AT_TI_symbol_name("flags")
     533                    .dwattr $C$DW$74, DW_AT_type(*$C$DW$T$139)
     534                    .dwattr $C$DW$74, DW_AT_location[DW_OP_breg1 26]
     535            ;* r9    assigned to len
     536            $C$DW$75        .dwtag  DW_TAG_variable, DW_AT_name("len")
     537                    .dwattr $C$DW$75, DW_AT_TI_symbol_name("len")
     538                    .dwattr $C$DW$75, DW_AT_type(*$C$DW$T$139)
     539                    .dwattr $C$DW$75, DW_AT_location[DW_OP_reg9 DW_OP_piece 2 DW_OP_reg10 DW_OP_piece 2]
     540            $C$DW$76        .dwtag  DW_TAG_variable, DW_AT_name("buf")
     541                    .dwattr $C$DW$76, DW_AT_TI_symbol_name("buf")
     542                    .dwattr $C$DW$76, DW_AT_type(*$C$DW$T$75)
     543                    .dwattr $C$DW$76, DW_AT_location[DW_OP_breg1 30]
     544            $C$DW$77        .dwtag  DW_TAG_variable, DW_AT_name("sd")
     545                    .dwattr $C$DW$77, DW_AT_TI_symbol_name("sd")
     546                    .dwattr $C$DW$77, DW_AT_type(*$C$DW$T$139)
     547                    .dwattr $C$DW$77, DW_AT_location[DW_OP_breg1 32]
     548            ;* r14   assigned to $O$U53
     549            ;* r14   assigned to $O$U42
     550            $C$DW$78        .dwtag  DW_TAG_variable, DW_AT_name("tSocketSendEvent")
     551                    .dwattr $C$DW$78, DW_AT_TI_symbol_name("tSocketSendEvent")
     552                    .dwattr $C$DW$78, DW_AT_type(*$C$DW$T$172)
     553                    .dwattr $C$DW$78, DW_AT_location[DW_OP_breg1 4]
     554                    .dwcfi  cfa_offset, 4
     555                    .dwcfi  save_reg_to_mem, 16, -4
     556 000000 146A          PUSHM.A   #7,r10                ; [] 
     557                    .dwcfi  save_reg_to_mem, 10, -8
     558                    .dwcfi  save_reg_to_mem, 9, -12
     559                    .dwcfi  save_reg_to_mem, 8, -16
     560                    .dwcfi  save_reg_to_mem, 7, -20
     561                    .dwcfi  save_reg_to_mem, 6, -24
     562                    .dwcfi  save_reg_to_mem, 5, -28
     563                    .dwcfi  save_reg_to_mem, 4, -32
     564                    .dwcfi  cfa_offset, 32
     565 000002 8031          SUB.W     #36,SP                ; [] 
         000004 0024 
     566                    .dwcfi  cfa_offset, 68
     567 000006 0FC9          MOVA      r15,r9                ; [] |979| 
     568 000008 4E81          MOV.W     r14,30(SP)            ; [] 
         00000a 001E 
     569 00000c 4C81          MOV.W     r12,32(SP)            ; [] 
         00000e 0020 
     570 000010 4D81          MOV.W     r13,34(SP)            ; [] 
         000012 0022 
     571 000014 4116          MOV.W     80(SP),r6             ; [] |979| 
         000016 0050 
     572 000018 4114          MOV.W     82(SP),r4             ; [] |979| 
MSP430 Assembler PC v4.2.1 Fri Mar 21 13:42:37 2014

Tools Copyright (c) 2003-2013 Texas Instruments Incorporated
C:\Users\409010~1\AppData\Local\Temp\0310410                         PAGE   12

         00001a 0052 
     573 00001c 4117          MOV.W     76(SP),r7             ; [] |979| 
         00001e 004C 
     574 000020 4115          MOV.W     78(SP),r5             ; [] |979| 
         000022 004E 
     575 000024 4191          MOV.W     74(SP),24(SP)         ; [] |979| 
         000026 004A 
         000028 0018 
     576 00002a 4191          MOV.W     70(SP),26(SP)         ; [] |979| 
         00002c 0046 
         00002e 001A 
     577 000030 4191          MOV.W     72(SP),28(SP)         ; [] |979| 
         000032 0048 
         000034 001C 
     578 000036 4118          MOV.W     68(SP),r8             ; [] |979| 
         000038 0044 
     579                    .dwpsn  file "C:/Users/409010855/Documents/GitHub/CHARM/Embedded_Voltmeter/Basic WiFi Source/S
     580            $C$DW$79        .dwtag  DW_TAG_TI_branch
     581                    .dwattr $C$DW$79, DW_AT_low_pc(0x00)
     582                    .dwattr $C$DW$79, DW_AT_name("HostFlowControlConsumeBuff")
     583                    .dwattr $C$DW$79, DW_AT_TI_call
     584 00003a 13B0!         CALLA     #HostFlowControlConsumeBuff ; [] |987| 
         00003c 0000 
     585                                                      ; [] |987| 
     586 00003e 930C          TST.W     r12                   ; [] |987| 
     587 000040 2402          JEQ       $C$L7                 ; [] |987| 
     588                                                      ; [] |987| 
     589            ;* --------------------------------------------------------------------------*
     590 000042 0CC9          MOVA      r12,r9                ; [] 
     591                    .dwpsn  file "C:/Users/409010855/Documents/GitHub/CHARM/Embedded_Voltmeter/Basic WiFi Source/S
     592 000044 3C96          JMP       $C$L22                ; [] |989| 
     593                                                      ; [] |989| 
     594            ;* --------------------------------------------------------------------------*
     595 000046       $C$L7:    
     596                    .dwpsn  file "C:/Users/409010855/Documents/GitHub/CHARM/Embedded_Voltmeter/Basic WiFi Source/S
     597 000046 5392          ADD.W     #1,&tSLInformation+52 ; [] |993| 
         000048 0034!
     598 00004a 6382          ADDC.W    #0,&tSLInformation+54 ; [] |993| 
         00004c 0036!
     599                    .dwpsn  file "C:/Users/409010855/Documents/GitHub/CHARM/Embedded_Voltmeter/Basic WiFi Source/S
     600 00004e 421F          MOV.W     &tSLInformation+6,r15 ; [] |996| 
         000050 0006!
     601 000052 4F81          MOV.W     r15,20(SP)            ; [] 
         000054 0014 
     602                    .dwpsn  file "C:/Users/409010855/Documents/GitHub/CHARM/Embedded_Voltmeter/Basic WiFi Source/S
     603 000056 403C          MOV.W     #10,r12               ; [] |997| 
         000058 000A 
     604 00005a 5F0C          ADD.W     r15,r12               ; [] |997| 
     605                    .dwpsn  file "C:/Users/409010855/Documents/GitHub/CHARM/Embedded_Voltmeter/Basic WiFi Source/S
     606 00005c 06CF          MOVA      r6,r15                ; [] |1000| 
     607 00005e 04CE          MOVA      r4,r14                ; [] |1000| 
     608 000060 803F          SUB.W     #129,r15              ; [] |1000| 
         000062 0081 
     609 000064 730E          SUBC.W    #0,r14                ; [] |1000| 
     610 000066 2002          JNE       $C$L8                 ; [] |1000| 
MSP430 Assembler PC v4.2.1 Fri Mar 21 13:42:37 2014

Tools Copyright (c) 2003-2013 Texas Instruments Incorporated
C:\Users\409010~1\AppData\Local\Temp\0310410                         PAGE   13

     611                                                      ; [] |1000| 
     612            ;* --------------------------------------------------------------------------*
     613 000068 930F          TST.W     r15                   ; [] |1000| 
     614 00006a 2412          JEQ       $C$L9                 ; [] |1000| 
     615                                                      ; [] |1000| 
     616            ;* --------------------------------------------------------------------------*
     617 00006c       $C$L8:    
     618 00006c 832F          SUB.W     #2,r15                ; [] |1000| 
     619 00006e 730E          SUBC.W    #0,r14                ; [] |1000| 
     620 000070 201B          JNE       $C$L11                ; [] |1000| 
     621                                                      ; [] |1000| 
     622            ;* --------------------------------------------------------------------------*
     623 000072 930F          TST.W     r15                   ; [] |1000| 
     624 000074 2019          JNE       $C$L11                ; [] |1000| 
     625                                                      ; [] |1000| 
     626            ;* --------------------------------------------------------------------------*
     627 000076 09CF          MOVA      r9,r15                ; [] 
     628                    .dwpsn  file "C:/Users/409010855/Documents/GitHub/CHARM/Embedded_Voltmeter/Basic WiFi Source/S
     629 000078 523F          ADD.W     #8,r15                ; [] |1004| 
     630 00007a 4F81          MOV.W     r15,16(SP)            ; [] 
         00007c 0010 
     631 00007e 08CF          MOVA      r8,r15                ; [] 
     632 000080 630F          ADDC.W    #0,r15                ; [] |1004| 
     633 000082 4F81          MOV.W     r15,18(SP)            ; [] 
         000084 0012 
     634                    .dwpsn  file "C:/Users/409010855/Documents/GitHub/CHARM/Embedded_Voltmeter/Basic WiFi Source/S
     635 000086 403A          MOV.W     #34,r10               ; [] |1007| 
         000088 0022 
     636                    .dwpsn  file "C:/Users/409010855/Documents/GitHub/CHARM/Embedded_Voltmeter/Basic WiFi Source/S
     637 00008a 407F          MOV.B     #24,r15               ; [] |1006| 
         00008c 0018 
     638                    .dwpsn  file "C:/Users/409010855/Documents/GitHub/CHARM/Embedded_Voltmeter/Basic WiFi Source/S
     639 00008e 3C08          JMP       $C$L10                ; [] |1008| 
     640                                                      ; [] |1008| 
     641            ;* --------------------------------------------------------------------------*
     642 000090       $C$L9:    
     643                    .dwpsn  file "C:/Users/409010855/Documents/GitHub/CHARM/Embedded_Voltmeter/Basic WiFi Source/S
     644 000090 403A          MOV.W     #26,r10               ; [] |1016| 
         000092 001A 
     645                    .dwpsn  file "C:/Users/409010855/Documents/GitHub/CHARM/Embedded_Voltmeter/Basic WiFi Source/S
     646 000094 4307          MOV.W     #0,r7                 ; [] |1013| 
     647 000096 4305          MOV.W     #0,r5                 ; [] |1013| 
     648                    .dwpsn  file "C:/Users/409010855/Documents/GitHub/CHARM/Embedded_Voltmeter/Basic WiFi Source/S
     649 000098 4381          MOV.W     #0,24(SP)             ; [] |1014| 
         00009a 0018 
     650                    .dwpsn  file "C:/Users/409010855/Documents/GitHub/CHARM/Embedded_Voltmeter/Basic WiFi Source/S
     651 00009c 407F          MOV.B     #16,r15               ; [] |1015| 
         00009e 0010 
     652            ;* --------------------------------------------------------------------------*
     653 0000a0       $C$L10:    
     654 0000a0 4F81          MOV.W     r15,22(SP)            ; [] 
         0000a2 0016 
     655                    .dwpsn  file "C:/Users/409010855/Documents/GitHub/CHARM/Embedded_Voltmeter/Basic WiFi Source/S
     656 0000a4 511A          ADD.W     20(SP),r10            ; [] |1016| 
         0000a6 0014 
MSP430 Assembler PC v4.2.1 Fri Mar 21 13:42:37 2014

Tools Copyright (c) 2003-2013 Texas Instruments Incorporated
C:\Users\409010~1\AppData\Local\Temp\0310410                         PAGE   14

     657            ;* --------------------------------------------------------------------------*
     658 0000a8       $C$L11:    
     659 0000a8 411D          MOV.W     32(SP),r13            ; [] 
         0000aa 0020 
     660 0000ac 411E          MOV.W     34(SP),r14            ; [] 
         0000ae 0022 
     661                    .dwpsn  file "C:/Users/409010855/Documents/GitHub/CHARM/Embedded_Voltmeter/Basic WiFi Source/S
     662            $C$DW$80        .dwtag  DW_TAG_TI_branch
     663                    .dwattr $C$DW$80, DW_AT_low_pc(0x00)
     664                    .dwattr $C$DW$80, DW_AT_name("UINT32_TO_STREAM_f")
     665                    .dwattr $C$DW$80, DW_AT_TI_call
     666 0000b0 13B0!         CALLA     #UINT32_TO_STREAM_f   ; [] |1027| 
         0000b2 0000 
     667                                                      ; [] |1027| 
     668 0000b4 411D          MOV.W     22(SP),r13            ; [] 
         0000b6 0016 
     669                    .dwpsn  file "C:/Users/409010855/Documents/GitHub/CHARM/Embedded_Voltmeter/Basic WiFi Source/S
     670 0000b8 4D4D          MOV.B     r13,r13               ; [] |1028| 
     671 0000ba 822D          SUB.W     #4,r13                ; [] |1028| 
     672 0000bc 430E          MOV.W     #0,r14                ; [] |1028| 
     673            $C$DW$81        .dwtag  DW_TAG_TI_branch
     674                    .dwattr $C$DW$81, DW_AT_low_pc(0x00)
     675                    .dwattr $C$DW$81, DW_AT_name("UINT32_TO_STREAM_f")
     676                    .dwattr $C$DW$81, DW_AT_TI_call
     677 0000be 13B0!         CALLA     #UINT32_TO_STREAM_f   ; [] |1028| 
         0000c0 0000 
     678                                                      ; [] |1028| 
     679                    .dwpsn  file "C:/Users/409010855/Documents/GitHub/CHARM/Embedded_Voltmeter/Basic WiFi Source/S
     680 0000c2 09CD          MOVA      r9,r13                ; [] |1029| 
     681 0000c4 08CE          MOVA      r8,r14                ; [] |1029| 
     682            $C$DW$82        .dwtag  DW_TAG_TI_branch
     683                    .dwattr $C$DW$82, DW_AT_low_pc(0x00)
     684                    .dwattr $C$DW$82, DW_AT_name("UINT32_TO_STREAM_f")
     685                    .dwattr $C$DW$82, DW_AT_TI_call
     686 0000c6 13B0!         CALLA     #UINT32_TO_STREAM_f   ; [] |1029| 
         0000c8 0000 
     687                                                      ; [] |1029| 
     688 0000ca 411D          MOV.W     26(SP),r13            ; [] 
         0000cc 001A 
     689 0000ce 411E          MOV.W     28(SP),r14            ; [] 
         0000d0 001C 
     690                    .dwpsn  file "C:/Users/409010855/Documents/GitHub/CHARM/Embedded_Voltmeter/Basic WiFi Source/S
     691            $C$DW$83        .dwtag  DW_TAG_TI_branch
     692                    .dwattr $C$DW$83, DW_AT_low_pc(0x00)
     693                    .dwattr $C$DW$83, DW_AT_name("UINT32_TO_STREAM_f")
     694                    .dwattr $C$DW$83, DW_AT_TI_call
     695 0000d2 13B0!         CALLA     #UINT32_TO_STREAM_f   ; [] |1030| 
         0000d4 0000 
     696                                                      ; [] |1030| 
     697                    .dwpsn  file "C:/Users/409010855/Documents/GitHub/CHARM/Embedded_Voltmeter/Basic WiFi Source/S
     698 0000d6 9304          TST.W     r4                    ; [] |1032| 
     699 0000d8 200D          JNE       $C$L12                ; [] |1032| 
     700                                                      ; [] |1032| 
     701            ;* --------------------------------------------------------------------------*
     702 0000da 9036          CMP.W     #131,r6               ; [] |1032| 
MSP430 Assembler PC v4.2.1 Fri Mar 21 13:42:37 2014

Tools Copyright (c) 2003-2013 Texas Instruments Incorporated
C:\Users\409010~1\AppData\Local\Temp\0310410                         PAGE   15

         0000dc 0083 
     703 0000de 200A          JNE       $C$L12                ; [] |1032| 
     704                                                      ; [] |1032| 
     705            ;* --------------------------------------------------------------------------*
     706 0000e0 411D          MOV.W     16(SP),r13            ; [] 
         0000e2 0010 
     707 0000e4 411E          MOV.W     18(SP),r14            ; [] 
         0000e6 0012 
     708                    .dwpsn  file "C:/Users/409010855/Documents/GitHub/CHARM/Embedded_Voltmeter/Basic WiFi Source/S
     709            $C$DW$84        .dwtag  DW_TAG_TI_branch
     710                    .dwattr $C$DW$84, DW_AT_low_pc(0x00)
     711                    .dwattr $C$DW$84, DW_AT_name("UINT32_TO_STREAM_f")
     712                    .dwattr $C$DW$84, DW_AT_TI_call
     713 0000e8 13B0!         CALLA     #UINT32_TO_STREAM_f   ; [] |1034| 
         0000ea 0000 
     714                                                      ; [] |1034| 
     715                    .dwpsn  file "C:/Users/409010855/Documents/GitHub/CHARM/Embedded_Voltmeter/Basic WiFi Source/S
     716 0000ec 423D          MOV.W     #8,r13                ; [] |1035| 
     717 0000ee 430E          MOV.W     #0,r14                ; [] |1035| 
     718            $C$DW$85        .dwtag  DW_TAG_TI_branch
     719                    .dwattr $C$DW$85, DW_AT_low_pc(0x00)
     720                    .dwattr $C$DW$85, DW_AT_name("UINT32_TO_STREAM_f")
     721                    .dwattr $C$DW$85, DW_AT_TI_call
     722 0000f0 13B0!         CALLA     #UINT32_TO_STREAM_f   ; [] |1035| 
         0000f2 0000 
     723                                                      ; [] |1035| 
     724            ;* --------------------------------------------------------------------------*
     725 0000f4       $C$L12:    
     726                    .dwpsn  file "C:/Users/409010855/Documents/GitHub/CHARM/Embedded_Voltmeter/Basic WiFi Source/S
     727 0000f4 9308          TST.W     r8                    ; [] |1039| 
     728 0000f6 380D          JL        $C$L15                ; [] |1039| 
     729                                                      ; [] |1039| 
     730            ;* --------------------------------------------------------------------------*
     731 0000f8 2002          JNE       $C$L13                ; [] |1039| 
     732                                                      ; [] |1039| 
     733            ;* --------------------------------------------------------------------------*
     734 0000fa 9319          CMP.W     #1,r9                 ; [] |1039| 
     735 0000fc 280A          JLO       $C$L15                ; [] |1039| 
     736                                                      ; [] |1039| 
     737            ;* --------------------------------------------------------------------------*
     738 0000fe       $C$L13:    
     739 0000fe 411E          MOV.W     30(SP),r14            ; [] 
         000100 001E 
     740 000102 430F          MOV.W     #0,r15                ; [] |1039| 
     741            ;* --------------------------------------------------------------------------*
     742            ;*   BEGIN LOOP $C$L14
     743            ;*
     744            ;*   Loop source line                : 1039
     745            ;*   Loop closing brace source line  : 1039
     746            ;*   Known Minimum Trip Count        : 1
     747            ;*   Known Maximum Trip Count        : 4294967295
     748            ;*   Known Max Trip Count Factor     : 1
     749            ;* --------------------------------------------------------------------------*
     750 000104       $C$L14:    
     751                    .dwpsn  file "C:/Users/409010855/Documents/GitHub/CHARM/Embedded_Voltmeter/Basic WiFi Source/S
MSP430 Assembler PC v4.2.1 Fri Mar 21 13:42:37 2014

Tools Copyright (c) 2003-2013 Texas Instruments Incorporated
C:\Users\409010~1\AppData\Local\Temp\0310410                         PAGE   16

     752            $C$DW$86        .dwtag  DW_TAG_TI_branch
     753                    .dwattr $C$DW$86, DW_AT_low_pc(0x00)
     754                    .dwattr $C$DW$86, DW_AT_name("$abproc0")
     755                    .dwattr $C$DW$86, DW_AT_TI_call
     756 000104 13B0!         CALLA     #$abproc0             ; [] |1006| 
         000106 017C 
     757                                                      ; [] |1006| 
     758                    .dwpsn  file "C:/Users/409010855/Documents/GitHub/CHARM/Embedded_Voltmeter/Basic WiFi Source/S
     759 000108 980D          CMP.W     r8,r13                ; [] |1039| 
     760 00010a 3BFC          JL        $C$L14                ; [] |1039| 
     761                                                      ; [] |1039| 
     762            ;* --------------------------------------------------------------------------*
     763 00010c 2002          JNE       $C$L15                ; [] |1039| 
     764                                                      ; [] |1039| 
     765            ;* --------------------------------------------------------------------------*
     766 00010e 990F          CMP.W     r9,r15                ; [] |1039| 
     767 000110 2BF9          JLO       $C$L14                ; [] |1039| 
     768                                                      ; [] |1039| 
     769            ;* --------------------------------------------------------------------------*
     770 000112       $C$L15:    
     771                    .dwpsn  file "C:/Users/409010855/Documents/GitHub/CHARM/Embedded_Voltmeter/Basic WiFi Source/S
     772 000112 9304          TST.W     r4                    ; [] |1042| 
     773 000114 2012          JNE       $C$L18                ; [] |1042| 
     774                                                      ; [] |1042| 
     775            ;* --------------------------------------------------------------------------*
     776 000116 9036          CMP.W     #131,r6               ; [] |1042| 
         000118 0083 
     777 00011a 200F          JNE       $C$L18                ; [] |1042| 
     778                                                      ; [] |1042| 
     779            ;* --------------------------------------------------------------------------*
     780 00011c 9305          TST.W     r5                    ; [] |1042| 
     781 00011e 380D          JL        $C$L18                ; [] |1042| 
     782                                                      ; [] |1042| 
     783            ;* --------------------------------------------------------------------------*
     784 000120 2002          JNE       $C$L16                ; [] |1042| 
     785                                                      ; [] |1042| 
     786            ;* --------------------------------------------------------------------------*
     787 000122 9317          CMP.W     #1,r7                 ; [] |1042| 
     788 000124 280A          JLO       $C$L18                ; [] |1042| 
     789                                                      ; [] |1042| 
     790            ;* --------------------------------------------------------------------------*
     791 000126       $C$L16:    
     792 000126 411E          MOV.W     24(SP),r14            ; [] 
         000128 0018 
     793                    .dwpsn  file "C:/Users/409010855/Documents/GitHub/CHARM/Embedded_Voltmeter/Basic WiFi Source/S
     794 00012a 430F          MOV.W     #0,r15                ; [] |1044| 
     795            ;* --------------------------------------------------------------------------*
     796            ;*   BEGIN LOOP $C$L17
     797            ;*
     798            ;*   Loop source line                : 1044
     799            ;*   Loop closing brace source line  : 1044
     800            ;*   Known Minimum Trip Count        : 1
     801            ;*   Known Maximum Trip Count        : 4294967295
     802            ;*   Known Max Trip Count Factor     : 1
     803            ;* --------------------------------------------------------------------------*
MSP430 Assembler PC v4.2.1 Fri Mar 21 13:42:37 2014

Tools Copyright (c) 2003-2013 Texas Instruments Incorporated
C:\Users\409010~1\AppData\Local\Temp\0310410                         PAGE   17

     804 00012c       $C$L17:    
     805                    .dwpsn  file "C:/Users/409010855/Documents/GitHub/CHARM/Embedded_Voltmeter/Basic WiFi Source/S
     806            $C$DW$87        .dwtag  DW_TAG_TI_branch
     807                    .dwattr $C$DW$87, DW_AT_low_pc(0x00)
     808                    .dwattr $C$DW$87, DW_AT_name("$abproc0")
     809                    .dwattr $C$DW$87, DW_AT_TI_call
     810 00012c 13B0!         CALLA     #$abproc0             ; [] |1006| 
         00012e 017C 
     811                                                      ; [] |1006| 
     812                    .dwpsn  file "C:/Users/409010855/Documents/GitHub/CHARM/Embedded_Voltmeter/Basic WiFi Source/S
     813 000130 950D          CMP.W     r5,r13                ; [] |1044| 
     814 000132 3BFC          JL        $C$L17                ; [] |1044| 
     815                                                      ; [] |1044| 
     816            ;* --------------------------------------------------------------------------*
     817 000134 2002          JNE       $C$L18                ; [] |1044| 
     818                                                      ; [] |1044| 
     819            ;* --------------------------------------------------------------------------*
     820 000136 970F          CMP.W     r7,r15                ; [] |1044| 
     821 000138 2BF9          JLO       $C$L17                ; [] |1044| 
     822                                                      ; [] |1044| 
     823            ;* --------------------------------------------------------------------------*
     824 00013a       $C$L18:    
     825 00013a 4191          MOV.W     24(SP),0(SP)          ; [] 
         00013c 0018 
         00013e 0000 
     826                    .dwpsn  file "C:/Users/409010855/Documents/GitHub/CHARM/Embedded_Voltmeter/Basic WiFi Source/S
     827 000140 4781          MOV.W     r7,2(SP)              ; [] |1048| 
         000142 0002 
     828 000144 464C          MOV.B     r6,r12                ; [] |1048| 
     829 000146 411E          MOV.W     22(SP),r14            ; [] 
         000148 0016 
     830 00014a 4E4E          MOV.B     r14,r14               ; [] |1048| 
     831 00014c 09CF          MOVA      r9,r15                ; [] |1048| 
     832 00014e 411D          MOV.W     20(SP),r13            ; [] 
         000150 0014 
     833            $C$DW$88        .dwtag  DW_TAG_TI_branch
     834                    .dwattr $C$DW$88, DW_AT_low_pc(0x00)
     835                    .dwattr $C$DW$88, DW_AT_name("hci_data_send")
     836                    .dwattr $C$DW$88, DW_AT_TI_call
     837 000152 13B0!         CALLA     #hci_data_send        ; [] |1048| 
         000154 0000 
     838                                                      ; [] |1048| 
     839                    .dwpsn  file "C:/Users/409010855/Documents/GitHub/CHARM/Embedded_Voltmeter/Basic WiFi Source/S
     840 000156 9304          TST.W     r4                    ; [] |1050| 
     841 000158 2003          JNE       $C$L19                ; [] |1050| 
     842                                                      ; [] |1050| 
     843            ;* --------------------------------------------------------------------------*
     844 00015a 9036          CMP.W     #131,r6               ; [] |1050| 
         00015c 0083 
     845 00015e 2403          JEQ       $C$L20                ; [] |1050| 
     846                                                      ; [] |1050| 
     847            ;* --------------------------------------------------------------------------*
     848 000160       $C$L19:    
     849                    .dwpsn  file "C:/Users/409010855/Documents/GitHub/CHARM/Embedded_Voltmeter/Basic WiFi Source/S
     850 000160 403C          MOV.W     #4099,r12             ; [] |1053| 
MSP430 Assembler PC v4.2.1 Fri Mar 21 13:42:37 2014

Tools Copyright (c) 2003-2013 Texas Instruments Incorporated
C:\Users\409010~1\AppData\Local\Temp\0310410                         PAGE   18

         000162 1003 
     851 000164 3C02          JMP       $C$L21                ; [] |1053| 
     852                                                      ; [] |1053| 
     853            ;* --------------------------------------------------------------------------*
     854 000166       $C$L20:    
     855                    .dwpsn  file "C:/Users/409010855/Documents/GitHub/CHARM/Embedded_Voltmeter/Basic WiFi Source/S
     856 000166 403C          MOV.W     #4111,r12             ; [] |1051| 
         000168 100F 
     857            ;* --------------------------------------------------------------------------*
     858 00016a       $C$L21:    
     859 00016a 01CD          MOVA      SP,r13                ; [] |1051| 
     860 00016c 522D          ADD.W     #4,r13                ; [] |1051| 
     861            $C$DW$89        .dwtag  DW_TAG_TI_branch
     862                    .dwattr $C$DW$89, DW_AT_low_pc(0x00)
     863                    .dwattr $C$DW$89, DW_AT_name("SimpleLinkWaitEvent")
     864                    .dwattr $C$DW$89, DW_AT_TI_call
     865 00016e 13B0!         CALLA     #SimpleLinkWaitEvent  ; [] |1051| 
         000170 0000 
     866                                                      ; [] |1051| 
     867            ;* --------------------------------------------------------------------------*
     868 000172       $C$L22:    
     869                    .dwpsn  file "C:/Users/409010855/Documents/GitHub/CHARM/Embedded_Voltmeter/Basic WiFi Source/S
     870 000172 09CC          MOVA      r9,r12                ; [] |1055| 
     871 000174 5031          ADD.W     #36,SP                ; [] 
         000176 0024 
     872                    .dwcfi  cfa_offset, 32
     873 000178 1664          POPM.A    #7,r10                ; [] 
     874                    .dwcfi  restore_reg, 4
     875                    .dwcfi  restore_reg, 5
     876                    .dwcfi  restore_reg, 6
     877                    .dwcfi  restore_reg, 7
     878                    .dwcfi  restore_reg, 8
     879                    .dwcfi  restore_reg, 9
     880                    .dwcfi  restore_reg, 10
     881                    .dwcfi  cfa_offset, 4
     882            $C$DW$90        .dwtag  DW_TAG_TI_branch
     883                    .dwattr $C$DW$90, DW_AT_low_pc(0x00)
     884                    .dwattr $C$DW$90, DW_AT_TI_return
     885 00017a 0110          RETA      ; [] 
     886                    ; [] 
     887                    .dwattr $C$DW$55, DW_AT_TI_end_file("C:/Users/409010855/Documents/GitHub/CHARM/Embedded_Voltme
     888                    .dwattr $C$DW$55, DW_AT_TI_end_line(0x420)
     889                    .dwattr $C$DW$55, DW_AT_TI_end_column(0x01)
     890                    .dwendentry
     891                    .dwendtag $C$DW$55
     892            
     893 00017c               .sect   ".text:simple_link_send"
     894            
     895            $C$DW$91        .dwtag  DW_TAG_subprogram, DW_AT_name("")
     896                    .dwattr $C$DW$91, DW_AT_low_pc($abproc0)
     897                    .dwattr $C$DW$91, DW_AT_high_pc(0x00)
     898                    .dwattr $C$DW$91, DW_AT_TI_symbol_name("$abproc0")
     899            
     900                    .dwfde $C$DW$CIE, $abproc0
     901            
MSP430 Assembler PC v4.2.1 Fri Mar 21 13:42:37 2014

Tools Copyright (c) 2003-2013 Texas Instruments Incorporated
C:\Users\409010~1\AppData\Local\Temp\0310410                         PAGE   19

     902            ;*****************************************************************************
     903            ;* ABSTRACTED PROCEDURE: $abproc0                                            *
     904            ;*****************************************************************************
     905 00017c       $abproc0:
     906                    .dwcfi  cfa_offset, 4
     907 00017c 531A          ADD.W     #1,r10                ; [] |1039| 
     908 00017e 4EFA          MOV.B     @r14+,-1(r10)         ; [] |1039| 
         000180 FFFF 
     909 000182 531F          ADD.W     #1,r15                ; [] |1039| 
     910 000184 B03F          BIT.W     #32768,r15            ; [] |1039| 
         000186 8000 
     911 000188 7D0D          SUBC.W    r13,r13               ; [] |1039| 
     912 00018a E33D          INV.W     r13                   ; [] |1039| 
     913 00018c 0110          RETA      ; [] |1006| 
     914                    ; [] |1006| 
     915                    .dwendentry
     916                    .dwendtag $C$DW$91
     917            
     918 000000               .sect   ".text:simple_link_recv"
     919                    .align  2
     920                    .clink
     921                    .global simple_link_recv
     922            
     923            $C$DW$92        .dwtag  DW_TAG_subprogram, DW_AT_name("simple_link_recv")
     924                    .dwattr $C$DW$92, DW_AT_low_pc(simple_link_recv)
     925                    .dwattr $C$DW$92, DW_AT_high_pc(0x00)
     926                    .dwattr $C$DW$92, DW_AT_TI_symbol_name("simple_link_recv")
     927                    .dwattr $C$DW$92, DW_AT_external
     928                    .dwattr $C$DW$92, DW_AT_type(*$C$DW$T$92)
     929                    .dwattr $C$DW$92, DW_AT_TI_begin_file("C:/Users/409010855/Documents/GitHub/CHARM/Embedded_Volt
     930                    .dwattr $C$DW$92, DW_AT_TI_begin_line(0x35e)
     931                    .dwattr $C$DW$92, DW_AT_TI_begin_column(0x07)
     932                    .dwattr $C$DW$92, DW_AT_TI_max_frame_size(0x30)
     933                    .dwpsn  file "C:/Users/409010855/Documents/GitHub/CHARM/Embedded_Voltmeter/Basic WiFi Source/S
     934            
     935                    .dwfde $C$DW$CIE, simple_link_recv
     936            $C$DW$93        .dwtag  DW_TAG_formal_parameter, DW_AT_name("sd")
     937                    .dwattr $C$DW$93, DW_AT_TI_symbol_name("sd")
     938                    .dwattr $C$DW$93, DW_AT_type(*$C$DW$T$19)
     939                    .dwattr $C$DW$93, DW_AT_location[DW_OP_reg12 DW_OP_piece 2 DW_OP_reg13 DW_OP_piece 2]
     940            $C$DW$94        .dwtag  DW_TAG_formal_parameter, DW_AT_name("buf")
     941                    .dwattr $C$DW$94, DW_AT_TI_symbol_name("buf")
     942                    .dwattr $C$DW$94, DW_AT_type(*$C$DW$T$3)
     943                    .dwattr $C$DW$94, DW_AT_location[DW_OP_reg14]
     944            $C$DW$95        .dwtag  DW_TAG_formal_parameter, DW_AT_name("len")
     945                    .dwattr $C$DW$95, DW_AT_TI_symbol_name("len")
     946                    .dwattr $C$DW$95, DW_AT_type(*$C$DW$T$19)
     947                    .dwattr $C$DW$95, DW_AT_location[DW_OP_reg15 DW_OP_piece 2 DW_OP_reg16 DW_OP_piece 2]
     948            $C$DW$96        .dwtag  DW_TAG_formal_parameter, DW_AT_name("flags")
     949                    .dwattr $C$DW$96, DW_AT_TI_symbol_name("flags")
     950                    .dwattr $C$DW$96, DW_AT_type(*$C$DW$T$19)
     951                    .dwattr $C$DW$96, DW_AT_location[DW_OP_breg1 50]
     952            $C$DW$97        .dwtag  DW_TAG_formal_parameter, DW_AT_name("from")
     953                    .dwattr $C$DW$97, DW_AT_TI_symbol_name("from")
     954                    .dwattr $C$DW$97, DW_AT_type(*$C$DW$T$103)
MSP430 Assembler PC v4.2.1 Fri Mar 21 13:42:37 2014

Tools Copyright (c) 2003-2013 Texas Instruments Incorporated
C:\Users\409010~1\AppData\Local\Temp\0310410                         PAGE   20

     955                    .dwattr $C$DW$97, DW_AT_location[DW_OP_breg1 54]
     956            $C$DW$98        .dwtag  DW_TAG_formal_parameter, DW_AT_name("fromlen")
     957                    .dwattr $C$DW$98, DW_AT_TI_symbol_name("fromlen")
     958                    .dwattr $C$DW$98, DW_AT_type(*$C$DW$T$101)
     959                    .dwattr $C$DW$98, DW_AT_location[DW_OP_breg1 56]
     960            $C$DW$99        .dwtag  DW_TAG_formal_parameter, DW_AT_name("opcode")
     961                    .dwattr $C$DW$99, DW_AT_TI_symbol_name("opcode")
     962                    .dwattr $C$DW$99, DW_AT_type(*$C$DW$T$19)
     963                    .dwattr $C$DW$99, DW_AT_location[DW_OP_breg1 58]
     964            
     965            ;*****************************************************************************
     966            ;* FUNCTION NAME: simple_link_recv                                           *
     967            ;*                                                                           *
     968            ;*   Regs Modified     : SP,SR,r4,r5,r6,r7,r8,r9,r10,r11,r12,r13,r14,r15     *
     969            ;*   Regs Used         : SP,SR,r4,r5,r6,r7,r8,r9,r10,r11,r12,r13,r14,r15     *
     970            ;*   Local Frame Size  : 0 Args + 16 Auto + 28 Save = 44 byte                *
     971            ;*****************************************************************************
     972            simple_link_recv:
     973            ;* --------------------------------------------------------------------------*
     974            ;* r12   assigned to $O$v1
     975            ;* r12   assigned to args
     976            $C$DW$100       .dwtag  DW_TAG_variable, DW_AT_name("args")
     977                    .dwattr $C$DW$100, DW_AT_TI_symbol_name("args")
     978                    .dwattr $C$DW$100, DW_AT_type(*$C$DW$T$25)
     979                    .dwattr $C$DW$100, DW_AT_location[DW_OP_reg12]
     980            ;* r7    assigned to ptr
     981            $C$DW$101       .dwtag  DW_TAG_variable, DW_AT_name("ptr")
     982                    .dwattr $C$DW$101, DW_AT_TI_symbol_name("ptr")
     983                    .dwattr $C$DW$101, DW_AT_type(*$C$DW$T$25)
     984                    .dwattr $C$DW$101, DW_AT_location[DW_OP_reg7]
     985            ;* r6    assigned to opcode
     986            $C$DW$102       .dwtag  DW_TAG_variable, DW_AT_name("opcode")
     987                    .dwattr $C$DW$102, DW_AT_TI_symbol_name("opcode")
     988                    .dwattr $C$DW$102, DW_AT_type(*$C$DW$T$139)
     989                    .dwattr $C$DW$102, DW_AT_location[DW_OP_reg6 DW_OP_piece 2 DW_OP_reg7 DW_OP_piece 2]
     990            $C$DW$103       .dwtag  DW_TAG_variable, DW_AT_name("fromlen")
     991                    .dwattr $C$DW$103, DW_AT_TI_symbol_name("fromlen")
     992                    .dwattr $C$DW$103, DW_AT_type(*$C$DW$T$157)
     993                    .dwattr $C$DW$103, DW_AT_location[DW_OP_breg1 12]
     994            $C$DW$104       .dwtag  DW_TAG_variable, DW_AT_name("from")
     995                    .dwattr $C$DW$104, DW_AT_TI_symbol_name("from")
     996                    .dwattr $C$DW$104, DW_AT_type(*$C$DW$T$180)
     997                    .dwattr $C$DW$104, DW_AT_location[DW_OP_breg1 14]
     998            ;* r8    assigned to flags
     999            $C$DW$105       .dwtag  DW_TAG_variable, DW_AT_name("flags")
    1000                    .dwattr $C$DW$105, DW_AT_TI_symbol_name("flags")
    1001                    .dwattr $C$DW$105, DW_AT_type(*$C$DW$T$139)
    1002                    .dwattr $C$DW$105, DW_AT_location[DW_OP_reg8 DW_OP_piece 2 DW_OP_reg9 DW_OP_piece 2]
    1003            ;* r15   assigned to len
    1004            $C$DW$106       .dwtag  DW_TAG_variable, DW_AT_name("len")
    1005                    .dwattr $C$DW$106, DW_AT_TI_symbol_name("len")
    1006                    .dwattr $C$DW$106, DW_AT_type(*$C$DW$T$139)
    1007                    .dwattr $C$DW$106, DW_AT_location[DW_OP_reg15 DW_OP_piece 2 DW_OP_reg16 DW_OP_piece 2]
    1008            ;* r4    assigned to buf
    1009            $C$DW$107       .dwtag  DW_TAG_variable, DW_AT_name("buf")
MSP430 Assembler PC v4.2.1 Fri Mar 21 13:42:37 2014

Tools Copyright (c) 2003-2013 Texas Instruments Incorporated
C:\Users\409010~1\AppData\Local\Temp\0310410                         PAGE   21

    1010                    .dwattr $C$DW$107, DW_AT_TI_symbol_name("buf")
    1011                    .dwattr $C$DW$107, DW_AT_type(*$C$DW$T$74)
    1012                    .dwattr $C$DW$107, DW_AT_location[DW_OP_reg4]
    1013            ;* r15   assigned to sd
    1014            $C$DW$108       .dwtag  DW_TAG_variable, DW_AT_name("sd")
    1015                    .dwattr $C$DW$108, DW_AT_TI_symbol_name("sd")
    1016                    .dwattr $C$DW$108, DW_AT_type(*$C$DW$T$139)
    1017                    .dwattr $C$DW$108, DW_AT_location[DW_OP_reg15 DW_OP_piece 2 DW_OP_reg16 DW_OP_piece 2]
    1018            $C$DW$109       .dwtag  DW_TAG_variable, DW_AT_name("tSocketReadEvent")
    1019                    .dwattr $C$DW$109, DW_AT_TI_symbol_name("tSocketReadEvent")
    1020                    .dwattr $C$DW$109, DW_AT_type(*$C$DW$T$172)
    1021                    .dwattr $C$DW$109, DW_AT_location[DW_OP_breg1 0]
    1022                    .dwcfi  cfa_offset, 4
    1023                    .dwcfi  save_reg_to_mem, 16, -4
    1024 000000 146A          PUSHM.A   #7,r10                ; [] 
    1025                    .dwcfi  save_reg_to_mem, 10, -8
    1026                    .dwcfi  save_reg_to_mem, 9, -12
    1027                    .dwcfi  save_reg_to_mem, 8, -16
    1028                    .dwcfi  save_reg_to_mem, 7, -20
    1029                    .dwcfi  save_reg_to_mem, 6, -24
    1030                    .dwcfi  save_reg_to_mem, 5, -28
    1031                    .dwcfi  save_reg_to_mem, 4, -32
    1032                    .dwcfi  cfa_offset, 32
    1033 000002 8031          SUB.W     #16,SP                ; [] 
         000004 0010 
    1034                    .dwcfi  cfa_offset, 48
    1035 000006 0FC5          MOVA      r15,r5                ; [] |864| 
    1036 000008 0EC4          MOVA      r14,r4                ; [] |864| 
    1037 00000a 0DCE          MOVA      r13,r14               ; [] |864| 
    1038 00000c 0CCD          MOVA      r12,r13               ; [] |864| 
    1039 00000e 4116          MOV.W     58(SP),r6             ; [] |864| 
         000010 003A 
    1040 000012 4191          MOV.W     56(SP),12(SP)         ; [] |864| 
         000014 0038 
         000016 000C 
    1041 000018 4191          MOV.W     54(SP),14(SP)         ; [] |864| 
         00001a 0036 
         00001c 000E 
    1042 00001e 4118          MOV.W     50(SP),r8             ; [] |864| 
         000020 0032 
    1043 000022 4119          MOV.W     52(SP),r9             ; [] |864| 
         000024 0034 
    1044 000026 411A          MOV.W     48(SP),r10            ; [] |864| 
         000028 0030 
    1045                    .dwpsn  file "C:/Users/409010855/Documents/GitHub/CHARM/Embedded_Voltmeter/Basic WiFi Source/S
    1046 00002a 4217          MOV.W     &tSLInformation+6,r7  ; [] |868| 
         00002c 0006!
    1047                    .dwpsn  file "C:/Users/409010855/Documents/GitHub/CHARM/Embedded_Voltmeter/Basic WiFi Source/S
    1048 00002e 403C          MOV.W     #9,r12                ; [] |872| 
         000030 0009 
    1049 000032 570C          ADD.W     r7,r12                ; [] |872| 
    1050            $C$DW$110       .dwtag  DW_TAG_TI_branch
    1051                    .dwattr $C$DW$110, DW_AT_low_pc(0x00)
    1052                    .dwattr $C$DW$110, DW_AT_name("UINT32_TO_STREAM_f")
    1053                    .dwattr $C$DW$110, DW_AT_TI_call
MSP430 Assembler PC v4.2.1 Fri Mar 21 13:42:37 2014

Tools Copyright (c) 2003-2013 Texas Instruments Incorporated
C:\Users\409010~1\AppData\Local\Temp\0310410                         PAGE   22

    1054 000034 13B0!         CALLA     #UINT32_TO_STREAM_f   ; [] |872| 
         000036 0000 
    1055                                                      ; [] |872| 
    1056                    .dwpsn  file "C:/Users/409010855/Documents/GitHub/CHARM/Embedded_Voltmeter/Basic WiFi Source/S
    1057 000038 05CD          MOVA      r5,r13                ; [] |873| 
    1058 00003a 0ACE          MOVA      r10,r14               ; [] |873| 
    1059            $C$DW$111       .dwtag  DW_TAG_TI_branch
    1060                    .dwattr $C$DW$111, DW_AT_low_pc(0x00)
    1061                    .dwattr $C$DW$111, DW_AT_name("UINT32_TO_STREAM_f")
    1062                    .dwattr $C$DW$111, DW_AT_TI_call
    1063 00003c 13B0!         CALLA     #UINT32_TO_STREAM_f   ; [] |873| 
         00003e 0000 
    1064                                                      ; [] |873| 
    1065                    .dwpsn  file "C:/Users/409010855/Documents/GitHub/CHARM/Embedded_Voltmeter/Basic WiFi Source/S
    1066 000040 08CD          MOVA      r8,r13                ; [] |874| 
    1067 000042 09CE          MOVA      r9,r14                ; [] |874| 
    1068            $C$DW$112       .dwtag  DW_TAG_TI_branch
    1069                    .dwattr $C$DW$112, DW_AT_low_pc(0x00)
    1070                    .dwattr $C$DW$112, DW_AT_name("UINT32_TO_STREAM_f")
    1071                    .dwattr $C$DW$112, DW_AT_TI_call
    1072 000044 13B0!         CALLA     #UINT32_TO_STREAM_f   ; [] |874| 
         000046 0000 
    1073                                                      ; [] |874| 
    1074                    .dwpsn  file "C:/Users/409010855/Documents/GitHub/CHARM/Embedded_Voltmeter/Basic WiFi Source/S
    1075 000048 06CC          MOVA      r6,r12                ; [] |877| 
    1076 00004a 07CD          MOVA      r7,r13                ; [] |877| 
    1077 00004c 407E          MOV.B     #12,r14               ; [] |877| 
         00004e 000C 
    1078            $C$DW$113       .dwtag  DW_TAG_TI_branch
    1079                    .dwattr $C$DW$113, DW_AT_low_pc(0x00)
    1080                    .dwattr $C$DW$113, DW_AT_name("hci_command_send")
    1081                    .dwattr $C$DW$113, DW_AT_TI_call
    1082 000050 13B0!         CALLA     #hci_command_send     ; [] |877| 
         000052 0000 
    1083                                                      ; [] |877| 
    1084                    .dwpsn  file "C:/Users/409010855/Documents/GitHub/CHARM/Embedded_Voltmeter/Basic WiFi Source/S
    1085 000054 06CC          MOVA      r6,r12                ; [] |880| 
    1086 000056 01CD          MOVA      SP,r13                ; [] |880| 
    1087            $C$DW$114       .dwtag  DW_TAG_TI_branch
    1088                    .dwattr $C$DW$114, DW_AT_low_pc(0x00)
    1089                    .dwattr $C$DW$114, DW_AT_name("SimpleLinkWaitEvent")
    1090                    .dwattr $C$DW$114, DW_AT_TI_call
    1091 000058 13B0!         CALLA     #SimpleLinkWaitEvent  ; [] |880| 
         00005a 0000 
    1092                                                      ; [] |880| 
    1093                    .dwpsn  file "C:/Users/409010855/Documents/GitHub/CHARM/Embedded_Voltmeter/Basic WiFi Source/S
    1094 00005c 411C          MOV.W     4(SP),r12             ; [] |883| 
         00005e 0004 
    1095 000060 9381          TST.W     6(SP)                 ; [] |883| 
         000062 0006 
    1096 000064 380C          JL        $C$L24                ; [] |883| 
    1097                                                      ; [] |883| 
    1098            ;* --------------------------------------------------------------------------*
    1099 000066 2002          JNE       $C$L23                ; [] |883| 
    1100                                                      ; [] |883| 
MSP430 Assembler PC v4.2.1 Fri Mar 21 13:42:37 2014

Tools Copyright (c) 2003-2013 Texas Instruments Incorporated
C:\Users\409010~1\AppData\Local\Temp\0310410                         PAGE   23

    1101            ;* --------------------------------------------------------------------------*
    1102 000068 931C          CMP.W     #1,r12                ; [] |883| 
    1103 00006a 2809          JLO       $C$L24                ; [] |883| 
    1104                                                      ; [] |883| 
    1105            ;* --------------------------------------------------------------------------*
    1106 00006c       $C$L23:    
    1107                    .dwpsn  file "C:/Users/409010855/Documents/GitHub/CHARM/Embedded_Voltmeter/Basic WiFi Source/S
    1108 00006c 04CC          MOVA      r4,r12                ; [] |887| 
    1109 00006e 411D          MOV.W     14(SP),r13            ; [] 
         000070 000E 
    1110 000072 411E          MOV.W     12(SP),r14            ; [] 
         000074 000C 
    1111            $C$DW$115       .dwtag  DW_TAG_TI_branch
    1112                    .dwattr $C$DW$115, DW_AT_low_pc(0x00)
    1113                    .dwattr $C$DW$115, DW_AT_name("SimpleLinkWaitData")
    1114                    .dwattr $C$DW$115, DW_AT_TI_call
    1115 000076 13B0!         CALLA     #SimpleLinkWaitData   ; [] |887| 
         000078 0000 
    1116                                                      ; [] |887| 
    1117 00007a 411C          MOV.W     4(SP),r12             ; [] |887| 
         00007c 0004 
    1118            ;* --------------------------------------------------------------------------*
    1119 00007e       $C$L24:    
    1120                    .dwpsn  file "C:/Users/409010855/Documents/GitHub/CHARM/Embedded_Voltmeter/Basic WiFi Source/S
    1121 00007e 4C82          MOV.W     r12,&_Errno+0         ; [] |890| 
         000080 0000!
    1122 000082 5031          ADD.W     #16,SP                ; [] 
         000084 0010 
    1123                    .dwcfi  cfa_offset, 32
    1124 000086 1664          POPM.A    #7,r10                ; [] 
    1125                    .dwcfi  restore_reg, 4
    1126                    .dwcfi  restore_reg, 5
    1127                    .dwcfi  restore_reg, 6
    1128                    .dwcfi  restore_reg, 7
    1129                    .dwcfi  restore_reg, 8
    1130                    .dwcfi  restore_reg, 9
    1131                    .dwcfi  restore_reg, 10
    1132                    .dwcfi  cfa_offset, 4
    1133            $C$DW$116       .dwtag  DW_TAG_TI_branch
    1134                    .dwattr $C$DW$116, DW_AT_low_pc(0x00)
    1135                    .dwattr $C$DW$116, DW_AT_TI_return
    1136 000088 0110          RETA      ; [] 
    1137                    ; [] 
    1138                    .dwattr $C$DW$92, DW_AT_TI_end_file("C:/Users/409010855/Documents/GitHub/CHARM/Embedded_Voltme
    1139                    .dwattr $C$DW$92, DW_AT_TI_end_line(0x37d)
    1140                    .dwattr $C$DW$92, DW_AT_TI_end_column(0x01)
    1141                    .dwendentry
    1142                    .dwendtag $C$DW$92
    1143            
    1144 000000               .sect   ".text:setsockopt"
    1145                    .align  2
    1146                    .clink
    1147                    .global setsockopt
    1148            
    1149            $C$DW$117       .dwtag  DW_TAG_subprogram, DW_AT_name("setsockopt")
MSP430 Assembler PC v4.2.1 Fri Mar 21 13:42:37 2014

Tools Copyright (c) 2003-2013 Texas Instruments Incorporated
C:\Users\409010~1\AppData\Local\Temp\0310410                         PAGE   24

    1150                    .dwattr $C$DW$117, DW_AT_low_pc(setsockopt)
    1151                    .dwattr $C$DW$117, DW_AT_high_pc(0x00)
    1152                    .dwattr $C$DW$117, DW_AT_TI_symbol_name("setsockopt")
    1153                    .dwattr $C$DW$117, DW_AT_external
    1154                    .dwattr $C$DW$117, DW_AT_type(*$C$DW$T$92)
    1155                    .dwattr $C$DW$117, DW_AT_TI_begin_file("C:/Users/409010855/Documents/GitHub/CHARM/Embedded_Vol
    1156                    .dwattr $C$DW$117, DW_AT_TI_begin_line(0x2d5)
    1157                    .dwattr $C$DW$117, DW_AT_TI_begin_column(0x07)
    1158                    .dwattr $C$DW$117, DW_AT_TI_max_frame_size(0x26)
    1159                    .dwpsn  file "C:/Users/409010855/Documents/GitHub/CHARM/Embedded_Voltmeter/Basic WiFi Source/S
    1160            
    1161                    .dwfde $C$DW$CIE, setsockopt
    1162            $C$DW$118       .dwtag  DW_TAG_formal_parameter, DW_AT_name("sd")
    1163                    .dwattr $C$DW$118, DW_AT_TI_symbol_name("sd")
    1164                    .dwattr $C$DW$118, DW_AT_type(*$C$DW$T$19)
    1165                    .dwattr $C$DW$118, DW_AT_location[DW_OP_reg12 DW_OP_piece 2 DW_OP_reg13 DW_OP_piece 2]
    1166            $C$DW$119       .dwtag  DW_TAG_formal_parameter, DW_AT_name("level")
    1167                    .dwattr $C$DW$119, DW_AT_TI_symbol_name("level")
    1168                    .dwattr $C$DW$119, DW_AT_type(*$C$DW$T$19)
    1169                    .dwattr $C$DW$119, DW_AT_location[DW_OP_reg14 DW_OP_piece 2 DW_OP_reg15 DW_OP_piece 2]
    1170            $C$DW$120       .dwtag  DW_TAG_formal_parameter, DW_AT_name("optname")
    1171                    .dwattr $C$DW$120, DW_AT_TI_symbol_name("optname")
    1172                    .dwattr $C$DW$120, DW_AT_type(*$C$DW$T$19)
    1173                    .dwattr $C$DW$120, DW_AT_location[DW_OP_breg1 38]
    1174            $C$DW$121       .dwtag  DW_TAG_formal_parameter, DW_AT_name("optval")
    1175                    .dwattr $C$DW$121, DW_AT_TI_symbol_name("optval")
    1176                    .dwattr $C$DW$121, DW_AT_type(*$C$DW$T$71)
    1177                    .dwattr $C$DW$121, DW_AT_location[DW_OP_breg1 42]
    1178            $C$DW$122       .dwtag  DW_TAG_formal_parameter, DW_AT_name("optlen")
    1179                    .dwattr $C$DW$122, DW_AT_TI_symbol_name("optlen")
    1180                    .dwattr $C$DW$122, DW_AT_type(*$C$DW$T$99)
    1181                    .dwattr $C$DW$122, DW_AT_location[DW_OP_breg1 44]
    1182            
    1183            ;*****************************************************************************
    1184            ;* FUNCTION NAME: setsockopt                                                 *
    1185            ;*                                                                           *
    1186            ;*   Regs Modified     : SP,SR,r4,r5,r6,r7,r8,r9,r10,r11,r12,r13,r14,r15     *
    1187            ;*   Regs Used         : SP,SR,r4,r5,r6,r7,r8,r9,r10,r11,r12,r13,r14,r15     *
    1188            ;*   Local Frame Size  : 0 Args + 6 Auto + 28 Save = 34 byte                 *
    1189            ;*****************************************************************************
    1190            setsockopt:
    1191            ;* --------------------------------------------------------------------------*
    1192            ;* r15   assigned to _i
    1193            $C$DW$123       .dwtag  DW_TAG_variable, DW_AT_name("_i")
    1194                    .dwattr $C$DW$123, DW_AT_TI_symbol_name("_i")
    1195                    .dwattr $C$DW$123, DW_AT_type(*$C$DW$T$92)
    1196                    .dwattr $C$DW$123, DW_AT_location[DW_OP_reg15]
    1197            ;* r12   assigned to args
    1198            $C$DW$124       .dwtag  DW_TAG_variable, DW_AT_name("args")
    1199                    .dwattr $C$DW$124, DW_AT_TI_symbol_name("args")
    1200                    .dwattr $C$DW$124, DW_AT_type(*$C$DW$T$25)
    1201                    .dwattr $C$DW$124, DW_AT_location[DW_OP_reg12]
    1202            ;* r5    assigned to ptr
    1203            $C$DW$125       .dwtag  DW_TAG_variable, DW_AT_name("ptr")
    1204                    .dwattr $C$DW$125, DW_AT_TI_symbol_name("ptr")
MSP430 Assembler PC v4.2.1 Fri Mar 21 13:42:37 2014

Tools Copyright (c) 2003-2013 Texas Instruments Incorporated
C:\Users\409010~1\AppData\Local\Temp\0310410                         PAGE   25

    1205                    .dwattr $C$DW$125, DW_AT_type(*$C$DW$T$25)
    1206                    .dwattr $C$DW$125, DW_AT_location[DW_OP_reg5]
    1207            $C$DW$126       .dwtag  DW_TAG_variable, DW_AT_name("ret")
    1208                    .dwattr $C$DW$126, DW_AT_TI_symbol_name("ret")
    1209                    .dwattr $C$DW$126, DW_AT_type(*$C$DW$T$19)
    1210                    .dwattr $C$DW$126, DW_AT_location[DW_OP_breg1 0]
    1211            ;* r7    assigned to optlen
    1212            $C$DW$127       .dwtag  DW_TAG_variable, DW_AT_name("optlen")
    1213                    .dwattr $C$DW$127, DW_AT_TI_symbol_name("optlen")
    1214                    .dwattr $C$DW$127, DW_AT_type(*$C$DW$T$158)
    1215                    .dwattr $C$DW$127, DW_AT_location[DW_OP_reg7 DW_OP_piece 2 DW_OP_reg8 DW_OP_piece 2]
    1216            ;* r8    assigned to optval
    1217            $C$DW$128       .dwtag  DW_TAG_variable, DW_AT_name("optval")
    1218                    .dwattr $C$DW$128, DW_AT_TI_symbol_name("optval")
    1219                    .dwattr $C$DW$128, DW_AT_type(*$C$DW$T$75)
    1220                    .dwattr $C$DW$128, DW_AT_location[DW_OP_reg8]
    1221            ;* r9    assigned to optname
    1222            $C$DW$129       .dwtag  DW_TAG_variable, DW_AT_name("optname")
    1223                    .dwattr $C$DW$129, DW_AT_TI_symbol_name("optname")
    1224                    .dwattr $C$DW$129, DW_AT_type(*$C$DW$T$139)
    1225                    .dwattr $C$DW$129, DW_AT_location[DW_OP_reg9 DW_OP_piece 2 DW_OP_reg10 DW_OP_piece 2]
    1226            ;* r15   assigned to level
    1227            $C$DW$130       .dwtag  DW_TAG_variable, DW_AT_name("level")
    1228                    .dwattr $C$DW$130, DW_AT_TI_symbol_name("level")
    1229                    .dwattr $C$DW$130, DW_AT_type(*$C$DW$T$139)
    1230                    .dwattr $C$DW$130, DW_AT_location[DW_OP_reg15 DW_OP_piece 2 DW_OP_reg16 DW_OP_piece 2]
    1231            ;* r15   assigned to sd
    1232            $C$DW$131       .dwtag  DW_TAG_variable, DW_AT_name("sd")
    1233                    .dwattr $C$DW$131, DW_AT_TI_symbol_name("sd")
    1234                    .dwattr $C$DW$131, DW_AT_type(*$C$DW$T$139)
    1235                    .dwattr $C$DW$131, DW_AT_location[DW_OP_reg15 DW_OP_piece 2 DW_OP_reg16 DW_OP_piece 2]
    1236            ;* r8    assigned to $O$U17
    1237                    .dwcfi  cfa_offset, 4
    1238                    .dwcfi  save_reg_to_mem, 16, -4
    1239 000000 146A          PUSHM.A   #7,r10                ; [] 
    1240                    .dwcfi  save_reg_to_mem, 10, -8
    1241                    .dwcfi  save_reg_to_mem, 9, -12
    1242                    .dwcfi  save_reg_to_mem, 8, -16
    1243                    .dwcfi  save_reg_to_mem, 7, -20
    1244                    .dwcfi  save_reg_to_mem, 6, -24
    1245                    .dwcfi  save_reg_to_mem, 5, -28
    1246                    .dwcfi  save_reg_to_mem, 4, -32
    1247                    .dwcfi  cfa_offset, 32
    1248 000002 8031          SUB.W     #6,SP                 ; [] 
         000004 0006 
    1249                    .dwcfi  cfa_offset, 38
    1250 000006 4E81          MOV.W     r14,4(SP)             ; [] 
         000008 0004 
    1251 00000a 0DCE          MOVA      r13,r14               ; [] |727| 
    1252 00000c 0FC4          MOVA      r15,r4                ; [] |727| 
    1253 00000e 0CCD          MOVA      r12,r13               ; [] |727| 
    1254 000010 4117          MOV.W     44(SP),r7             ; [] |727| 
         000012 002C 
    1255 000014 4116          MOV.W     46(SP),r6             ; [] |727| 
         000016 002E 
MSP430 Assembler PC v4.2.1 Fri Mar 21 13:42:37 2014

Tools Copyright (c) 2003-2013 Texas Instruments Incorporated
C:\Users\409010~1\AppData\Local\Temp\0310410                         PAGE   26

    1256 000018 4118          MOV.W     42(SP),r8             ; [] |727| 
         00001a 002A 
    1257 00001c 4119          MOV.W     38(SP),r9             ; [] |727| 
         00001e 0026 
    1258 000020 411A          MOV.W     40(SP),r10            ; [] |727| 
         000022 0028 
    1259                    .dwpsn  file "C:/Users/409010855/Documents/GitHub/CHARM/Embedded_Voltmeter/Basic WiFi Source/S
    1260 000024 4215          MOV.W     &tSLInformation+6,r5  ; [] |731| 
         000026 0006!
    1261                    .dwpsn  file "C:/Users/409010855/Documents/GitHub/CHARM/Embedded_Voltmeter/Basic WiFi Source/S
    1262 000028 403C          MOV.W     #9,r12                ; [] |735| 
         00002a 0009 
    1263 00002c 550C          ADD.W     r5,r12                ; [] |735| 
    1264            $C$DW$132       .dwtag  DW_TAG_TI_branch
    1265                    .dwattr $C$DW$132, DW_AT_low_pc(0x00)
    1266                    .dwattr $C$DW$132, DW_AT_name("UINT32_TO_STREAM_f")
    1267                    .dwattr $C$DW$132, DW_AT_TI_call
    1268 00002e 13B0!         CALLA     #UINT32_TO_STREAM_f   ; [] |735| 
         000030 0000 
    1269                                                      ; [] |735| 
    1270 000032 411D          MOV.W     4(SP),r13             ; [] 
         000034 0004 
    1271                    .dwpsn  file "C:/Users/409010855/Documents/GitHub/CHARM/Embedded_Voltmeter/Basic WiFi Source/S
    1272 000036 04CE          MOVA      r4,r14                ; [] |736| 
    1273            $C$DW$133       .dwtag  DW_TAG_TI_branch
    1274                    .dwattr $C$DW$133, DW_AT_low_pc(0x00)
    1275                    .dwattr $C$DW$133, DW_AT_name("UINT32_TO_STREAM_f")
    1276                    .dwattr $C$DW$133, DW_AT_TI_call
    1277 000038 13B0!         CALLA     #UINT32_TO_STREAM_f   ; [] |736| 
         00003a 0000 
    1278                                                      ; [] |736| 
    1279                    .dwpsn  file "C:/Users/409010855/Documents/GitHub/CHARM/Embedded_Voltmeter/Basic WiFi Source/S
    1280 00003c 09CD          MOVA      r9,r13                ; [] |737| 
    1281 00003e 0ACE          MOVA      r10,r14               ; [] |737| 
    1282            $C$DW$134       .dwtag  DW_TAG_TI_branch
    1283                    .dwattr $C$DW$134, DW_AT_low_pc(0x00)
    1284                    .dwattr $C$DW$134, DW_AT_name("UINT32_TO_STREAM_f")
    1285                    .dwattr $C$DW$134, DW_AT_TI_call
    1286 000040 13B0!         CALLA     #UINT32_TO_STREAM_f   ; [] |737| 
         000042 0000 
    1287                                                      ; [] |737| 
    1288                    .dwpsn  file "C:/Users/409010855/Documents/GitHub/CHARM/Embedded_Voltmeter/Basic WiFi Source/S
    1289 000044 423D          MOV.W     #8,r13                ; [] |738| 
    1290 000046 430E          MOV.W     #0,r14                ; [] |738| 
    1291            $C$DW$135       .dwtag  DW_TAG_TI_branch
    1292                    .dwattr $C$DW$135, DW_AT_low_pc(0x00)
    1293                    .dwattr $C$DW$135, DW_AT_name("UINT32_TO_STREAM_f")
    1294                    .dwattr $C$DW$135, DW_AT_TI_call
    1295 000048 13B0!         CALLA     #UINT32_TO_STREAM_f   ; [] |738| 
         00004a 0000 
    1296                                                      ; [] |738| 
    1297                    .dwpsn  file "C:/Users/409010855/Documents/GitHub/CHARM/Embedded_Voltmeter/Basic WiFi Source/S
    1298 00004c 07CD          MOVA      r7,r13                ; [] |739| 
    1299 00004e 06CE          MOVA      r6,r14                ; [] |739| 
    1300            $C$DW$136       .dwtag  DW_TAG_TI_branch
MSP430 Assembler PC v4.2.1 Fri Mar 21 13:42:37 2014

Tools Copyright (c) 2003-2013 Texas Instruments Incorporated
C:\Users\409010~1\AppData\Local\Temp\0310410                         PAGE   27

    1301                    .dwattr $C$DW$136, DW_AT_low_pc(0x00)
    1302                    .dwattr $C$DW$136, DW_AT_name("UINT32_TO_STREAM_f")
    1303                    .dwattr $C$DW$136, DW_AT_TI_call
    1304 000050 13B0!         CALLA     #UINT32_TO_STREAM_f   ; [] |739| 
         000052 0000 
    1305                                                      ; [] |739| 
    1306                    .dwpsn  file "C:/Users/409010855/Documents/GitHub/CHARM/Embedded_Voltmeter/Basic WiFi Source/S
    1307 000054 9306          TST.W     r6                    ; [] |740| 
    1308 000056 2002          JNE       $C$L25                ; [] |740| 
    1309                                                      ; [] |740| 
    1310            ;* --------------------------------------------------------------------------*
    1311 000058 9307          TST.W     r7                    ; [] |740| 
    1312 00005a 240E          JEQ       $C$L27                ; [] |740| 
    1313                                                      ; [] |740| 
    1314            ;* --------------------------------------------------------------------------*
    1315 00005c       $C$L25:    
    1316 00005c 430F          MOV.W     #0,r15                ; [] |740| 
    1317            ;* --------------------------------------------------------------------------*
    1318            ;*   BEGIN LOOP $C$L26
    1319            ;*
    1320            ;*   Loop source line                : 740
    1321            ;*   Loop closing brace source line  : 740
    1322            ;*   Known Minimum Trip Count        : 1
    1323            ;*   Known Maximum Trip Count        : 4294967295
    1324            ;*   Known Max Trip Count Factor     : 1
    1325            ;* --------------------------------------------------------------------------*
    1326 00005e       $C$L26:    
    1327 00005e 531C          ADD.W     #1,r12                ; [] |740| 
    1328 000060 48FC          MOV.B     @r8+,-1(r12)          ; [] |740| 
         000062 FFFF 
    1329 000064 531F          ADD.W     #1,r15                ; [] |740| 
    1330 000066 B03F          BIT.W     #32768,r15            ; [] |740| 
         000068 8000 
    1331 00006a 7E0E          SUBC.W    r14,r14               ; [] |740| 
    1332 00006c E33E          INV.W     r14                   ; [] |740| 
    1333 00006e 960E          CMP.W     r6,r14                ; [] |740| 
    1334 000070 2BF6          JLO       $C$L26                ; [] |740| 
    1335                                                      ; [] |740| 
    1336            ;* --------------------------------------------------------------------------*
    1337 000072 2002          JNE       $C$L27                ; [] |740| 
    1338                                                      ; [] |740| 
    1339            ;* --------------------------------------------------------------------------*
    1340 000074 970F          CMP.W     r7,r15                ; [] |740| 
    1341 000076 2BF3          JLO       $C$L26                ; [] |740| 
    1342                                                      ; [] |740| 
    1343            ;* --------------------------------------------------------------------------*
    1344 000078       $C$L27:    
    1345                    .dwpsn  file "C:/Users/409010855/Documents/GitHub/CHARM/Embedded_Voltmeter/Basic WiFi Source/S
    1346 000078 403E          MOV.W     #20,r14               ; [] |743| 
         00007a 0014 
    1347 00007c 574E          ADD.B     r7,r14                ; [] |743| 
    1348 00007e 403C          MOV.W     #4105,r12             ; [] |743| 
         000080 1009 
    1349 000082 05CD          MOVA      r5,r13                ; [] |743| 
    1350            $C$DW$137       .dwtag  DW_TAG_TI_branch
MSP430 Assembler PC v4.2.1 Fri Mar 21 13:42:37 2014

Tools Copyright (c) 2003-2013 Texas Instruments Incorporated
C:\Users\409010~1\AppData\Local\Temp\0310410                         PAGE   28

    1351                    .dwattr $C$DW$137, DW_AT_low_pc(0x00)
    1352                    .dwattr $C$DW$137, DW_AT_name("hci_command_send")
    1353                    .dwattr $C$DW$137, DW_AT_TI_call
    1354 000084 13B0!         CALLA     #hci_command_send     ; [] |743| 
         000086 0000 
    1355                                                      ; [] |743| 
    1356                    .dwpsn  file "C:/Users/409010855/Documents/GitHub/CHARM/Embedded_Voltmeter/Basic WiFi Source/S
    1357 000088 403C          MOV.W     #4105,r12             ; [] |747| 
         00008a 1009 
    1358 00008c 01CD          MOVA      SP,r13                ; [] |747| 
    1359            $C$DW$138       .dwtag  DW_TAG_TI_branch
    1360                    .dwattr $C$DW$138, DW_AT_low_pc(0x00)
    1361                    .dwattr $C$DW$138, DW_AT_name("SimpleLinkWaitEvent")
    1362                    .dwattr $C$DW$138, DW_AT_TI_call
    1363 00008e 13B0!         CALLA     #SimpleLinkWaitEvent  ; [] |747| 
         000090 0000 
    1364                                                      ; [] |747| 
    1365                    .dwpsn  file "C:/Users/409010855/Documents/GitHub/CHARM/Embedded_Voltmeter/Basic WiFi Source/S
    1366 000092 9381          TST.W     2(SP)                 ; [] |749| 
         000094 0002 
    1367 000096 3802          JL        $C$L28                ; [] |749| 
    1368                                                      ; [] |749| 
    1369            ;* --------------------------------------------------------------------------*
    1370                    .dwpsn  file "C:/Users/409010855/Documents/GitHub/CHARM/Embedded_Voltmeter/Basic WiFi Source/S
    1371 000098 430C          MOV.W     #0,r12                ; [] |751| 
    1372 00009a 3C03          JMP       $C$L29                ; [] |751| 
    1373                                                      ; [] |751| 
    1374            ;* --------------------------------------------------------------------------*
    1375 00009c       $C$L28:    
    1376                    .dwpsn  file "C:/Users/409010855/Documents/GitHub/CHARM/Embedded_Voltmeter/Basic WiFi Source/S
    1377 00009c 41A2          MOV.W     0(SP),&_Errno+0       ; [] |755| 
         00009e 0000!
    1378                    .dwpsn  file "C:/Users/409010855/Documents/GitHub/CHARM/Embedded_Voltmeter/Basic WiFi Source/S
    1379 0000a0 412C          MOV.W     0(SP),r12             ; [] |756| 
    1380            ;* --------------------------------------------------------------------------*
    1381 0000a2       $C$L29:    
    1382 0000a2 5031          ADD.W     #6,SP                 ; [] 
         0000a4 0006 
    1383                    .dwcfi  cfa_offset, 32
    1384 0000a6 1664          POPM.A    #7,r10                ; [] 
    1385                    .dwcfi  restore_reg, 4
    1386                    .dwcfi  restore_reg, 5
    1387                    .dwcfi  restore_reg, 6
    1388                    .dwcfi  restore_reg, 7
    1389                    .dwcfi  restore_reg, 8
    1390                    .dwcfi  restore_reg, 9
    1391                    .dwcfi  restore_reg, 10
    1392                    .dwcfi  cfa_offset, 4
    1393            $C$DW$139       .dwtag  DW_TAG_TI_branch
    1394                    .dwattr $C$DW$139, DW_AT_low_pc(0x00)
    1395                    .dwattr $C$DW$139, DW_AT_TI_return
    1396 0000a8 0110          RETA      ; [] 
    1397                    ; [] 
    1398                    .dwattr $C$DW$117, DW_AT_TI_end_file("C:/Users/409010855/Documents/GitHub/CHARM/Embedded_Voltm
    1399                    .dwattr $C$DW$117, DW_AT_TI_end_line(0x2f6)
MSP430 Assembler PC v4.2.1 Fri Mar 21 13:42:37 2014

Tools Copyright (c) 2003-2013 Texas Instruments Incorporated
C:\Users\409010~1\AppData\Local\Temp\0310410                         PAGE   29

    1400                    .dwattr $C$DW$117, DW_AT_TI_end_column(0x01)
    1401                    .dwendentry
    1402                    .dwendtag $C$DW$117
    1403            
    1404 000000               .sect   ".text:sendto"
    1405                    .align  2
    1406                    .clink
    1407                    .global sendto
    1408            
    1409            $C$DW$140       .dwtag  DW_TAG_subprogram, DW_AT_name("sendto")
    1410                    .dwattr $C$DW$140, DW_AT_low_pc(sendto)
    1411                    .dwattr $C$DW$140, DW_AT_high_pc(0x00)
    1412                    .dwattr $C$DW$140, DW_AT_TI_symbol_name("sendto")
    1413                    .dwattr $C$DW$140, DW_AT_external
    1414                    .dwattr $C$DW$140, DW_AT_type(*$C$DW$T$92)
    1415                    .dwattr $C$DW$140, DW_AT_TI_begin_file("C:/Users/409010855/Documents/GitHub/CHARM/Embedded_Vol
    1416                    .dwattr $C$DW$140, DW_AT_TI_begin_line(0x458)
    1417                    .dwattr $C$DW$140, DW_AT_TI_begin_column(0x07)
    1418                    .dwattr $C$DW$140, DW_AT_TI_max_frame_size(0x28)
    1419                    .dwpsn  file "C:/Users/409010855/Documents/GitHub/CHARM/Embedded_Voltmeter/Basic WiFi Source/S
    1420            
    1421                    .dwfde $C$DW$CIE, sendto
    1422            $C$DW$141       .dwtag  DW_TAG_formal_parameter, DW_AT_name("sd")
    1423                    .dwattr $C$DW$141, DW_AT_TI_symbol_name("sd")
    1424                    .dwattr $C$DW$141, DW_AT_type(*$C$DW$T$19)
    1425                    .dwattr $C$DW$141, DW_AT_location[DW_OP_reg12 DW_OP_piece 2 DW_OP_reg13 DW_OP_piece 2]
    1426            $C$DW$142       .dwtag  DW_TAG_formal_parameter, DW_AT_name("buf")
    1427                    .dwattr $C$DW$142, DW_AT_TI_symbol_name("buf")
    1428                    .dwattr $C$DW$142, DW_AT_type(*$C$DW$T$71)
    1429                    .dwattr $C$DW$142, DW_AT_location[DW_OP_reg14]
    1430            $C$DW$143       .dwtag  DW_TAG_formal_parameter, DW_AT_name("len")
    1431                    .dwattr $C$DW$143, DW_AT_TI_symbol_name("len")
    1432                    .dwattr $C$DW$143, DW_AT_type(*$C$DW$T$19)
    1433                    .dwattr $C$DW$143, DW_AT_location[DW_OP_reg15 DW_OP_piece 2 DW_OP_reg16 DW_OP_piece 2]
    1434            $C$DW$144       .dwtag  DW_TAG_formal_parameter, DW_AT_name("flags")
    1435                    .dwattr $C$DW$144, DW_AT_TI_symbol_name("flags")
    1436                    .dwattr $C$DW$144, DW_AT_type(*$C$DW$T$19)
    1437                    .dwattr $C$DW$144, DW_AT_location[DW_OP_breg1 42]
    1438            $C$DW$145       .dwtag  DW_TAG_formal_parameter, DW_AT_name("to")
    1439                    .dwattr $C$DW$145, DW_AT_TI_symbol_name("to")
    1440                    .dwattr $C$DW$145, DW_AT_type(*$C$DW$T$108)
    1441                    .dwattr $C$DW$145, DW_AT_location[DW_OP_breg1 46]
    1442            $C$DW$146       .dwtag  DW_TAG_formal_parameter, DW_AT_name("tolen")
    1443                    .dwattr $C$DW$146, DW_AT_TI_symbol_name("tolen")
    1444                    .dwattr $C$DW$146, DW_AT_type(*$C$DW$T$99)
    1445                    .dwattr $C$DW$146, DW_AT_location[DW_OP_breg1 48]
    1446            
    1447            ;*****************************************************************************
    1448            ;* FUNCTION NAME: sendto                                                     *
    1449            ;*                                                                           *
    1450            ;*   Regs Modified     : SP,SR,r6,r7,r8,r9,r10,r11,r12,r13,r14,r15           *
    1451            ;*   Regs Used         : SP,SR,r6,r7,r8,r9,r10,r11,r12,r13,r14,r15           *
    1452            ;*   Local Frame Size  : 16 Args + 0 Auto + 20 Save = 36 byte                *
    1453            ;*****************************************************************************
    1454            sendto:
MSP430 Assembler PC v4.2.1 Fri Mar 21 13:42:37 2014

Tools Copyright (c) 2003-2013 Texas Instruments Incorporated
C:\Users\409010~1\AppData\Local\Temp\0310410                         PAGE   30

    1455            ;* --------------------------------------------------------------------------*
    1456            ;* r12   assigned to sd
    1457            $C$DW$147       .dwtag  DW_TAG_variable, DW_AT_name("sd")
    1458                    .dwattr $C$DW$147, DW_AT_TI_symbol_name("sd")
    1459                    .dwattr $C$DW$147, DW_AT_type(*$C$DW$T$139)
    1460                    .dwattr $C$DW$147, DW_AT_location[DW_OP_reg12 DW_OP_piece 2 DW_OP_reg13 DW_OP_piece 2]
    1461            ;* r14   assigned to buf
    1462            $C$DW$148       .dwtag  DW_TAG_variable, DW_AT_name("buf")
    1463                    .dwattr $C$DW$148, DW_AT_TI_symbol_name("buf")
    1464                    .dwattr $C$DW$148, DW_AT_type(*$C$DW$T$75)
    1465                    .dwattr $C$DW$148, DW_AT_location[DW_OP_reg14]
    1466            ;* r15   assigned to len
    1467            $C$DW$149       .dwtag  DW_TAG_variable, DW_AT_name("len")
    1468                    .dwattr $C$DW$149, DW_AT_TI_symbol_name("len")
    1469                    .dwattr $C$DW$149, DW_AT_type(*$C$DW$T$139)
    1470                    .dwattr $C$DW$149, DW_AT_location[DW_OP_reg15 DW_OP_piece 2 DW_OP_reg16 DW_OP_piece 2]
    1471            ;* r6    assigned to flags
    1472            $C$DW$150       .dwtag  DW_TAG_variable, DW_AT_name("flags")
    1473                    .dwattr $C$DW$150, DW_AT_TI_symbol_name("flags")
    1474                    .dwattr $C$DW$150, DW_AT_type(*$C$DW$T$139)
    1475                    .dwattr $C$DW$150, DW_AT_location[DW_OP_reg6 DW_OP_piece 2 DW_OP_reg7 DW_OP_piece 2]
    1476            ;* r8    assigned to to
    1477            $C$DW$151       .dwtag  DW_TAG_variable, DW_AT_name("to")
    1478                    .dwattr $C$DW$151, DW_AT_TI_symbol_name("to")
    1479                    .dwattr $C$DW$151, DW_AT_type(*$C$DW$T$181)
    1480                    .dwattr $C$DW$151, DW_AT_location[DW_OP_reg8]
    1481            ;* r9    assigned to tolen
    1482            $C$DW$152       .dwtag  DW_TAG_variable, DW_AT_name("tolen")
    1483                    .dwattr $C$DW$152, DW_AT_TI_symbol_name("tolen")
    1484                    .dwattr $C$DW$152, DW_AT_type(*$C$DW$T$158)
    1485                    .dwattr $C$DW$152, DW_AT_location[DW_OP_reg9 DW_OP_piece 2 DW_OP_reg10 DW_OP_piece 2]
    1486                    .dwcfi  cfa_offset, 4
    1487                    .dwcfi  save_reg_to_mem, 16, -4
    1488 000000 144A          PUSHM.A   #5,r10                ; [] 
    1489                    .dwcfi  save_reg_to_mem, 10, -8
    1490                    .dwcfi  save_reg_to_mem, 9, -12
    1491                    .dwcfi  save_reg_to_mem, 8, -16
    1492                    .dwcfi  save_reg_to_mem, 7, -20
    1493                    .dwcfi  save_reg_to_mem, 6, -24
    1494                    .dwcfi  cfa_offset, 24
    1495 000002 8031          SUB.W     #16,SP                ; [] 
         000004 0010 
    1496                    .dwcfi  cfa_offset, 40
    1497 000006 4191          MOV.W     40(SP),0(SP)          ; [] |1114| 
         000008 0028 
         00000a 0000 
    1498 00000c 4191          MOV.W     42(SP),2(SP)          ; [] |1114| 
         00000e 002A 
         000010 0002 
    1499 000012 4191          MOV.W     44(SP),4(SP)          ; [] |1114| 
         000014 002C 
         000016 0004 
    1500 000018 4191          MOV.W     46(SP),6(SP)          ; [] |1114| 
         00001a 002E 
         00001c 0006 
MSP430 Assembler PC v4.2.1 Fri Mar 21 13:42:37 2014

Tools Copyright (c) 2003-2013 Texas Instruments Incorporated
C:\Users\409010~1\AppData\Local\Temp\0310410                         PAGE   31

    1501 00001e 4191          MOV.W     48(SP),8(SP)          ; [] |1114| 
         000020 0030 
         000022 0008 
    1502 000024 4191          MOV.W     50(SP),10(SP)         ; [] |1114| 
         000026 0032 
         000028 000A 
    1503                    .dwpsn  file "C:/Users/409010855/Documents/GitHub/CHARM/Embedded_Voltmeter/Basic WiFi Source/S
    1504 00002a 1800          MOVX.A    #131,12(SP)           ; [] |1115| 
         00002c 40F1 
         00002e 0083 
         000030 000C 
    1505            $C$DW$153       .dwtag  DW_TAG_TI_branch
    1506                    .dwattr $C$DW$153, DW_AT_low_pc(0x00)
    1507                    .dwattr $C$DW$153, DW_AT_name("simple_link_send")
    1508                    .dwattr $C$DW$153, DW_AT_TI_call
    1509 000032 13B0!         CALLA     #simple_link_send     ; [] |1115| 
         000034 0000 
    1510                                                      ; [] |1115| 
    1511 000036 5031          ADD.W     #16,SP                ; [] 
         000038 0010 
    1512                    .dwcfi  cfa_offset, 24
    1513 00003a 1646          POPM.A    #5,r10                ; [] 
    1514                    .dwcfi  restore_reg, 6
    1515                    .dwcfi  restore_reg, 7
    1516                    .dwcfi  restore_reg, 8
    1517                    .dwcfi  restore_reg, 9
    1518                    .dwcfi  restore_reg, 10
    1519                    .dwcfi  cfa_offset, 4
    1520            $C$DW$154       .dwtag  DW_TAG_TI_branch
    1521                    .dwattr $C$DW$154, DW_AT_low_pc(0x00)
    1522                    .dwattr $C$DW$154, DW_AT_TI_return
    1523 00003c 0110          RETA      ; [] 
    1524                    ; [] 
    1525                    .dwattr $C$DW$140, DW_AT_TI_end_file("C:/Users/409010855/Documents/GitHub/CHARM/Embedded_Voltm
    1526                    .dwattr $C$DW$140, DW_AT_TI_end_line(0x45c)
    1527                    .dwattr $C$DW$140, DW_AT_TI_end_column(0x01)
    1528                    .dwendentry
    1529                    .dwendtag $C$DW$140
    1530            
    1531 000000               .sect   ".text:send"
    1532                    .align  2
    1533                    .clink
    1534                    .global send
    1535            
    1536            $C$DW$155       .dwtag  DW_TAG_subprogram, DW_AT_name("send")
    1537                    .dwattr $C$DW$155, DW_AT_low_pc(send)
    1538                    .dwattr $C$DW$155, DW_AT_high_pc(0x00)
    1539                    .dwattr $C$DW$155, DW_AT_TI_symbol_name("send")
    1540                    .dwattr $C$DW$155, DW_AT_external
    1541                    .dwattr $C$DW$155, DW_AT_type(*$C$DW$T$92)
    1542                    .dwattr $C$DW$155, DW_AT_TI_begin_file("C:/Users/409010855/Documents/GitHub/CHARM/Embedded_Vol
    1543                    .dwattr $C$DW$155, DW_AT_TI_begin_line(0x439)
    1544                    .dwattr $C$DW$155, DW_AT_TI_begin_column(0x07)
    1545                    .dwattr $C$DW$155, DW_AT_TI_max_frame_size(0x1c)
    1546                    .dwpsn  file "C:/Users/409010855/Documents/GitHub/CHARM/Embedded_Voltmeter/Basic WiFi Source/S
MSP430 Assembler PC v4.2.1 Fri Mar 21 13:42:37 2014

Tools Copyright (c) 2003-2013 Texas Instruments Incorporated
C:\Users\409010~1\AppData\Local\Temp\0310410                         PAGE   32

    1547            
    1548                    .dwfde $C$DW$CIE, send
    1549            $C$DW$156       .dwtag  DW_TAG_formal_parameter, DW_AT_name("sd")
    1550                    .dwattr $C$DW$156, DW_AT_TI_symbol_name("sd")
    1551                    .dwattr $C$DW$156, DW_AT_type(*$C$DW$T$19)
    1552                    .dwattr $C$DW$156, DW_AT_location[DW_OP_reg12 DW_OP_piece 2 DW_OP_reg13 DW_OP_piece 2]
    1553            $C$DW$157       .dwtag  DW_TAG_formal_parameter, DW_AT_name("buf")
    1554                    .dwattr $C$DW$157, DW_AT_TI_symbol_name("buf")
    1555                    .dwattr $C$DW$157, DW_AT_type(*$C$DW$T$71)
    1556                    .dwattr $C$DW$157, DW_AT_location[DW_OP_reg14]
    1557            $C$DW$158       .dwtag  DW_TAG_formal_parameter, DW_AT_name("len")
    1558                    .dwattr $C$DW$158, DW_AT_TI_symbol_name("len")
    1559                    .dwattr $C$DW$158, DW_AT_type(*$C$DW$T$19)
    1560                    .dwattr $C$DW$158, DW_AT_location[DW_OP_reg15 DW_OP_piece 2 DW_OP_reg16 DW_OP_piece 2]
    1561            $C$DW$159       .dwtag  DW_TAG_formal_parameter, DW_AT_name("flags")
    1562                    .dwattr $C$DW$159, DW_AT_TI_symbol_name("flags")
    1563                    .dwattr $C$DW$159, DW_AT_type(*$C$DW$T$19)
    1564                    .dwattr $C$DW$159, DW_AT_location[DW_OP_breg1 30]
    1565            
    1566            ;*****************************************************************************
    1567            ;* FUNCTION NAME: send                                                       *
    1568            ;*                                                                           *
    1569            ;*   Regs Modified     : SP,SR,r9,r10,r11,r12,r13,r14,r15                    *
    1570            ;*   Regs Used         : SP,SR,r9,r10,r11,r12,r13,r14,r15                    *
    1571            ;*   Local Frame Size  : 16 Args + 0 Auto + 8 Save = 24 byte                 *
    1572            ;*****************************************************************************
    1573            send:
    1574            ;* --------------------------------------------------------------------------*
    1575            ;* r12   assigned to sd
    1576            $C$DW$160       .dwtag  DW_TAG_variable, DW_AT_name("sd")
    1577                    .dwattr $C$DW$160, DW_AT_TI_symbol_name("sd")
    1578                    .dwattr $C$DW$160, DW_AT_type(*$C$DW$T$139)
    1579                    .dwattr $C$DW$160, DW_AT_location[DW_OP_reg12 DW_OP_piece 2 DW_OP_reg13 DW_OP_piece 2]
    1580            ;* r14   assigned to buf
    1581            $C$DW$161       .dwtag  DW_TAG_variable, DW_AT_name("buf")
    1582                    .dwattr $C$DW$161, DW_AT_TI_symbol_name("buf")
    1583                    .dwattr $C$DW$161, DW_AT_type(*$C$DW$T$75)
    1584                    .dwattr $C$DW$161, DW_AT_location[DW_OP_reg14]
    1585            ;* r15   assigned to len
    1586            $C$DW$162       .dwtag  DW_TAG_variable, DW_AT_name("len")
    1587                    .dwattr $C$DW$162, DW_AT_TI_symbol_name("len")
    1588                    .dwattr $C$DW$162, DW_AT_type(*$C$DW$T$139)
    1589                    .dwattr $C$DW$162, DW_AT_location[DW_OP_reg15 DW_OP_piece 2 DW_OP_reg16 DW_OP_piece 2]
    1590            ;* r9    assigned to flags
    1591            $C$DW$163       .dwtag  DW_TAG_variable, DW_AT_name("flags")
    1592                    .dwattr $C$DW$163, DW_AT_TI_symbol_name("flags")
    1593                    .dwattr $C$DW$163, DW_AT_type(*$C$DW$T$139)
    1594                    .dwattr $C$DW$163, DW_AT_location[DW_OP_reg9 DW_OP_piece 2 DW_OP_reg10 DW_OP_piece 2]
    1595                    .dwcfi  cfa_offset, 4
    1596                    .dwcfi  save_reg_to_mem, 16, -4
    1597 000000 141A          PUSHM.A   #2,r10                ; [] 
    1598                    .dwcfi  save_reg_to_mem, 10, -8
    1599                    .dwcfi  save_reg_to_mem, 9, -12
    1600                    .dwcfi  cfa_offset, 12
    1601 000002 8031          SUB.W     #16,SP                ; [] 
MSP430 Assembler PC v4.2.1 Fri Mar 21 13:42:37 2014

Tools Copyright (c) 2003-2013 Texas Instruments Incorporated
C:\Users\409010~1\AppData\Local\Temp\0310410                         PAGE   33

         000004 0010 
    1602                    .dwcfi  cfa_offset, 28
    1603 000006 4191          MOV.W     28(SP),0(SP)          ; [] |1082| 
         000008 001C 
         00000a 0000 
    1604 00000c 4191          MOV.W     30(SP),2(SP)          ; [] |1082| 
         00000e 001E 
         000010 0002 
    1605 000012 4191          MOV.W     32(SP),4(SP)          ; [] |1082| 
         000014 0020 
         000016 0004 
    1606                    .dwpsn  file "C:/Users/409010855/Documents/GitHub/CHARM/Embedded_Voltmeter/Basic WiFi Source/S
    1607 000018 4381          MOV.W     #0,6(SP)              ; [] |1083| 
         00001a 0006 
    1608 00001c 1800          MOVX.A    #0,8(SP)              ; [] |1083| 
         00001e 43C1 
         000020 0008 
    1609 000022 1800          MOVX.A    #129,12(SP)           ; [] |1083| 
         000024 40F1 
         000026 0081 
         000028 000C 
    1610            $C$DW$164       .dwtag  DW_TAG_TI_branch
    1611                    .dwattr $C$DW$164, DW_AT_low_pc(0x00)
    1612                    .dwattr $C$DW$164, DW_AT_name("simple_link_send")
    1613                    .dwattr $C$DW$164, DW_AT_TI_call
    1614 00002a 13B0!         CALLA     #simple_link_send     ; [] |1083| 
         00002c 0000 
    1615                                                      ; [] |1083| 
    1616 00002e 5031          ADD.W     #16,SP                ; [] 
         000030 0010 
    1617                    .dwcfi  cfa_offset, 12
    1618 000032 1619          POPM.A    #2,r10                ; [] 
    1619                    .dwcfi  restore_reg, 9
    1620                    .dwcfi  restore_reg, 10
    1621                    .dwcfi  cfa_offset, 4
    1622            $C$DW$165       .dwtag  DW_TAG_TI_branch
    1623                    .dwattr $C$DW$165, DW_AT_low_pc(0x00)
    1624                    .dwattr $C$DW$165, DW_AT_TI_return
    1625 000034 0110          RETA      ; [] 
    1626                    ; [] 
    1627                    .dwattr $C$DW$155, DW_AT_TI_end_file("C:/Users/409010855/Documents/GitHub/CHARM/Embedded_Voltm
    1628                    .dwattr $C$DW$155, DW_AT_TI_end_line(0x43c)
    1629                    .dwattr $C$DW$155, DW_AT_TI_end_column(0x01)
    1630                    .dwendentry
    1631                    .dwendtag $C$DW$155
    1632            
    1633 000000               .sect   ".text:select"
    1634                    .align  2
    1635                    .clink
    1636                    .global select
    1637            
    1638            $C$DW$166       .dwtag  DW_TAG_subprogram, DW_AT_name("select")
    1639                    .dwattr $C$DW$166, DW_AT_low_pc(select)
    1640                    .dwattr $C$DW$166, DW_AT_high_pc(0x00)
    1641                    .dwattr $C$DW$166, DW_AT_TI_symbol_name("select")
MSP430 Assembler PC v4.2.1 Fri Mar 21 13:42:37 2014

Tools Copyright (c) 2003-2013 Texas Instruments Incorporated
C:\Users\409010~1\AppData\Local\Temp\0310410                         PAGE   34

    1642                    .dwattr $C$DW$166, DW_AT_external
    1643                    .dwattr $C$DW$166, DW_AT_type(*$C$DW$T$92)
    1644                    .dwattr $C$DW$166, DW_AT_TI_begin_file("C:/Users/409010855/Documents/GitHub/CHARM/Embedded_Vol
    1645                    .dwattr $C$DW$166, DW_AT_TI_begin_line(0x259)
    1646                    .dwattr $C$DW$166, DW_AT_TI_begin_column(0x07)
    1647                    .dwattr $C$DW$166, DW_AT_TI_max_frame_size(0x30)
    1648                    .dwpsn  file "C:/Users/409010855/Documents/GitHub/CHARM/Embedded_Voltmeter/Basic WiFi Source/S
    1649            
    1650                    .dwfde $C$DW$CIE, select
    1651            $C$DW$167       .dwtag  DW_TAG_formal_parameter, DW_AT_name("nfds")
    1652                    .dwattr $C$DW$167, DW_AT_TI_symbol_name("nfds")
    1653                    .dwattr $C$DW$167, DW_AT_type(*$C$DW$T$19)
    1654                    .dwattr $C$DW$167, DW_AT_location[DW_OP_reg12 DW_OP_piece 2 DW_OP_reg13 DW_OP_piece 2]
    1655            $C$DW$168       .dwtag  DW_TAG_formal_parameter, DW_AT_name("readsds")
    1656                    .dwattr $C$DW$168, DW_AT_TI_symbol_name("readsds")
    1657                    .dwattr $C$DW$168, DW_AT_type(*$C$DW$T$65)
    1658                    .dwattr $C$DW$168, DW_AT_location[DW_OP_reg14]
    1659            $C$DW$169       .dwtag  DW_TAG_formal_parameter, DW_AT_name("writesds")
    1660                    .dwattr $C$DW$169, DW_AT_TI_symbol_name("writesds")
    1661                    .dwattr $C$DW$169, DW_AT_type(*$C$DW$T$65)
    1662                    .dwattr $C$DW$169, DW_AT_location[DW_OP_reg15]
    1663            $C$DW$170       .dwtag  DW_TAG_formal_parameter, DW_AT_name("exceptsds")
    1664                    .dwattr $C$DW$170, DW_AT_TI_symbol_name("exceptsds")
    1665                    .dwattr $C$DW$170, DW_AT_type(*$C$DW$T$65)
    1666                    .dwattr $C$DW$170, DW_AT_location[DW_OP_breg1 48]
    1667            $C$DW$171       .dwtag  DW_TAG_formal_parameter, DW_AT_name("timeout")
    1668                    .dwattr $C$DW$171, DW_AT_TI_symbol_name("timeout")
    1669                    .dwattr $C$DW$171, DW_AT_type(*$C$DW$T$97)
    1670                    .dwattr $C$DW$171, DW_AT_location[DW_OP_breg1 50]
    1671            
    1672            ;*****************************************************************************
    1673            ;* FUNCTION NAME: select                                                     *
    1674            ;*                                                                           *
    1675            ;*   Regs Modified     : SP,SR,r4,r5,r6,r7,r8,r9,r10,r11,r12,r13,r14,r15     *
    1676            ;*   Regs Used         : SP,SR,r4,r5,r6,r7,r8,r9,r10,r11,r12,r13,r14,r15     *
    1677            ;*   Local Frame Size  : 0 Args + 16 Auto + 28 Save = 44 byte                *
    1678            ;*****************************************************************************
    1679            select:
    1680            ;* --------------------------------------------------------------------------*
    1681            ;* r15   assigned to $O$C13
    1682            ;* r12   assigned to $O$v2
    1683            ;* r13   assigned to $O$v1
    1684            ;* r10   assigned to is_blocking
    1685            $C$DW$172       .dwtag  DW_TAG_variable, DW_AT_name("is_blocking")
    1686                    .dwattr $C$DW$172, DW_AT_TI_symbol_name("is_blocking")
    1687                    .dwattr $C$DW$172, DW_AT_type(*$C$DW$T$29)
    1688                    .dwattr $C$DW$172, DW_AT_location[DW_OP_reg10 DW_OP_piece 2 DW_OP_reg11 DW_OP_piece 2]
    1689            ;* r12   assigned to args
    1690            $C$DW$173       .dwtag  DW_TAG_variable, DW_AT_name("args")
    1691                    .dwattr $C$DW$173, DW_AT_TI_symbol_name("args")
    1692                    .dwattr $C$DW$173, DW_AT_type(*$C$DW$T$25)
    1693                    .dwattr $C$DW$173, DW_AT_location[DW_OP_reg12]
    1694            ;* r4    assigned to ptr
    1695            $C$DW$174       .dwtag  DW_TAG_variable, DW_AT_name("ptr")
    1696                    .dwattr $C$DW$174, DW_AT_TI_symbol_name("ptr")
MSP430 Assembler PC v4.2.1 Fri Mar 21 13:42:37 2014

Tools Copyright (c) 2003-2013 Texas Instruments Incorporated
C:\Users\409010~1\AppData\Local\Temp\0310410                         PAGE   35

    1697                    .dwattr $C$DW$174, DW_AT_type(*$C$DW$T$25)
    1698                    .dwattr $C$DW$174, DW_AT_location[DW_OP_reg4]
    1699            ;* r8    assigned to timeout
    1700            $C$DW$175       .dwtag  DW_TAG_variable, DW_AT_name("timeout")
    1701                    .dwattr $C$DW$175, DW_AT_TI_symbol_name("timeout")
    1702                    .dwattr $C$DW$175, DW_AT_type(*$C$DW$T$182)
    1703                    .dwattr $C$DW$175, DW_AT_location[DW_OP_reg8]
    1704            ;* r5    assigned to exceptsds
    1705            $C$DW$176       .dwtag  DW_TAG_variable, DW_AT_name("exceptsds")
    1706                    .dwattr $C$DW$176, DW_AT_TI_symbol_name("exceptsds")
    1707                    .dwattr $C$DW$176, DW_AT_type(*$C$DW$T$66)
    1708                    .dwattr $C$DW$176, DW_AT_location[DW_OP_reg5]
    1709            ;* r6    assigned to writesds
    1710            $C$DW$177       .dwtag  DW_TAG_variable, DW_AT_name("writesds")
    1711                    .dwattr $C$DW$177, DW_AT_TI_symbol_name("writesds")
    1712                    .dwattr $C$DW$177, DW_AT_type(*$C$DW$T$66)
    1713                    .dwattr $C$DW$177, DW_AT_location[DW_OP_reg6]
    1714            ;* r7    assigned to readsds
    1715            $C$DW$178       .dwtag  DW_TAG_variable, DW_AT_name("readsds")
    1716                    .dwattr $C$DW$178, DW_AT_TI_symbol_name("readsds")
    1717                    .dwattr $C$DW$178, DW_AT_type(*$C$DW$T$66)
    1718                    .dwattr $C$DW$178, DW_AT_location[DW_OP_reg7]
    1719            ;* r13   assigned to nfds
    1720            $C$DW$179       .dwtag  DW_TAG_variable, DW_AT_name("nfds")
    1721                    .dwattr $C$DW$179, DW_AT_TI_symbol_name("nfds")
    1722                    .dwattr $C$DW$179, DW_AT_type(*$C$DW$T$139)
    1723                    .dwattr $C$DW$179, DW_AT_location[DW_OP_reg13 DW_OP_piece 2 DW_OP_reg14 DW_OP_piece 2]
    1724            ;* r13   assigned to $O$S3
    1725            ;* r13   assigned to $O$S2
    1726            ;* r13   assigned to $O$S1
    1727            $C$DW$180       .dwtag  DW_TAG_variable, DW_AT_name("tParams")
    1728                    .dwattr $C$DW$180, DW_AT_TI_symbol_name("tParams")
    1729                    .dwattr $C$DW$180, DW_AT_type(*$C$DW$T$174)
    1730                    .dwattr $C$DW$180, DW_AT_location[DW_OP_breg1 0]
    1731                    .dwcfi  cfa_offset, 4
    1732                    .dwcfi  save_reg_to_mem, 16, -4
    1733 000000 146A          PUSHM.A   #7,r10                ; [] 
    1734                    .dwcfi  save_reg_to_mem, 10, -8
    1735                    .dwcfi  save_reg_to_mem, 9, -12
    1736                    .dwcfi  save_reg_to_mem, 8, -16
    1737                    .dwcfi  save_reg_to_mem, 7, -20
    1738                    .dwcfi  save_reg_to_mem, 6, -24
    1739                    .dwcfi  save_reg_to_mem, 5, -28
    1740                    .dwcfi  save_reg_to_mem, 4, -32
    1741                    .dwcfi  cfa_offset, 32
    1742 000002 8031          SUB.W     #16,SP                ; [] 
         000004 0010 
    1743                    .dwcfi  cfa_offset, 48
    1744 000006 0FC6          MOVA      r15,r6                ; [] |603| 
    1745 000008 0EC7          MOVA      r14,r7                ; [] |603| 
    1746 00000a 0DCE          MOVA      r13,r14               ; [] |603| 
    1747 00000c 0CCD          MOVA      r12,r13               ; [] |603| 
    1748 00000e 4118          MOV.W     50(SP),r8             ; [] |603| 
         000010 0032 
    1749 000012 4115          MOV.W     48(SP),r5             ; [] |603| 
MSP430 Assembler PC v4.2.1 Fri Mar 21 13:42:37 2014

Tools Copyright (c) 2003-2013 Texas Instruments Incorporated
C:\Users\409010~1\AppData\Local\Temp\0310410                         PAGE   36

         000014 0030 
    1750                    .dwpsn  file "C:/Users/409010855/Documents/GitHub/CHARM/Embedded_Voltmeter/Basic WiFi Source/S
    1751 000016 430A          MOV.W     #0,r10                ; [] |614| 
    1752 000018 4309          MOV.W     #0,r9                 ; [] |614| 
    1753 00001a 9308          TST.W     r8                    ; [] |614| 
    1754 00001c 2001          JNE       $C$L30                ; [] |614| 
    1755                                                      ; [] |614| 
    1756            ;* --------------------------------------------------------------------------*
    1757 00001e 431A          MOV.W     #1,r10                ; [] |614| 
    1758            ;* --------------------------------------------------------------------------*
    1759 000020       $C$L30:    
    1760                    .dwpsn  file "C:/Users/409010855/Documents/GitHub/CHARM/Embedded_Voltmeter/Basic WiFi Source/S
    1761 000020 4214          MOV.W     &tSLInformation+6,r4  ; [] |618| 
         000022 0006!
    1762                    .dwpsn  file "C:/Users/409010855/Documents/GitHub/CHARM/Embedded_Voltmeter/Basic WiFi Source/S
    1763 000024 403C          MOV.W     #9,r12                ; [] |622| 
         000026 0009 
    1764 000028 540C          ADD.W     r4,r12                ; [] |622| 
    1765            $C$DW$181       .dwtag  DW_TAG_TI_branch
    1766                    .dwattr $C$DW$181, DW_AT_low_pc(0x00)
    1767                    .dwattr $C$DW$181, DW_AT_name("UINT32_TO_STREAM_f")
    1768                    .dwattr $C$DW$181, DW_AT_TI_call
    1769 00002a 13B0!         CALLA     #UINT32_TO_STREAM_f   ; [] |622| 
         00002c 0000 
    1770                                                      ; [] |622| 
    1771            $C$DW$182       .dwtag  DW_TAG_TI_branch
    1772                    .dwattr $C$DW$182, DW_AT_low_pc(0x00)
    1773                    .dwattr $C$DW$182, DW_AT_name("$abproc1")
    1774                    .dwattr $C$DW$182, DW_AT_TI_call
    1775 00002e 13B0!         CALLA     #$abproc1             ; [] 
         000030 0118 
    1776                                                      ; [] 
    1777            $C$DW$183       .dwtag  DW_TAG_TI_branch
    1778                    .dwattr $C$DW$183, DW_AT_low_pc(0x00)
    1779                    .dwattr $C$DW$183, DW_AT_name("$abproc1")
    1780                    .dwattr $C$DW$183, DW_AT_TI_call
    1781 000032 13B0!         CALLA     #$abproc1             ; [] 
         000034 0118 
    1782                                                      ; [] 
    1783                    .dwpsn  file "C:/Users/409010855/Documents/GitHub/CHARM/Embedded_Voltmeter/Basic WiFi Source/S
    1784 000036 0ACD          MOVA      r10,r13               ; [] |627| 
    1785 000038 09CE          MOVA      r9,r14                ; [] |627| 
    1786            $C$DW$184       .dwtag  DW_TAG_TI_branch
    1787                    .dwattr $C$DW$184, DW_AT_low_pc(0x00)
    1788                    .dwattr $C$DW$184, DW_AT_name("UINT32_TO_STREAM_f")
    1789                    .dwattr $C$DW$184, DW_AT_TI_call
    1790 00003a 13B0!         CALLA     #UINT32_TO_STREAM_f   ; [] |627| 
         00003c 0000 
    1791                                                      ; [] |627| 
    1792                    .dwpsn  file "C:/Users/409010855/Documents/GitHub/CHARM/Embedded_Voltmeter/Basic WiFi Source/S
    1793 00003e 9307          TST.W     r7                    ; [] |628| 
    1794 000040 2404          JEQ       $C$L31                ; [] |628| 
    1795                                                      ; [] |628| 
    1796            ;* --------------------------------------------------------------------------*
    1797 000042 472D          MOV.W     @r7,r13               ; [] |628| 
MSP430 Assembler PC v4.2.1 Fri Mar 21 13:42:37 2014

Tools Copyright (c) 2003-2013 Texas Instruments Incorporated
C:\Users\409010~1\AppData\Local\Temp\0310410                         PAGE   37

    1798 000044 471E          MOV.W     2(r7),r14             ; [] |628| 
         000046 0002 
    1799 000048 3C02          JMP       $C$L32                ; [] |628| 
    1800                                                      ; [] |628| 
    1801            ;* --------------------------------------------------------------------------*
    1802 00004a       $C$L31:    
    1803 00004a 430D          MOV.W     #0,r13                ; [] |628| 
    1804 00004c 430E          MOV.W     #0,r14                ; [] |628| 
    1805            ;* --------------------------------------------------------------------------*
    1806            $C$L32:    
    1807            $C$DW$185       .dwtag  DW_TAG_TI_branch
    1808                    .dwattr $C$DW$185, DW_AT_low_pc(0x00)
    1809                    .dwattr $C$DW$185, DW_AT_name("UINT32_TO_STREAM_f")
    1810                    .dwattr $C$DW$185, DW_AT_TI_call
    1811 00004e 13B0!         CALLA     #UINT32_TO_STREAM_f   ; [] |628| 
         000050 0000 
    1812                                                      ; [] |628| 
    1813                    .dwpsn  file "C:/Users/409010855/Documents/GitHub/CHARM/Embedded_Voltmeter/Basic WiFi Source/S
    1814 000052 9306          TST.W     r6                    ; [] |629| 
    1815 000054 2404          JEQ       $C$L33                ; [] |629| 
    1816                                                      ; [] |629| 
    1817            ;* --------------------------------------------------------------------------*
    1818 000056 462D          MOV.W     @r6,r13               ; [] |629| 
    1819 000058 461E          MOV.W     2(r6),r14             ; [] |629| 
         00005a 0002 
    1820 00005c 3C02          JMP       $C$L34                ; [] |629| 
    1821                                                      ; [] |629| 
    1822            ;* --------------------------------------------------------------------------*
    1823 00005e       $C$L33:    
    1824 00005e 430D          MOV.W     #0,r13                ; [] |629| 
    1825 000060 430E          MOV.W     #0,r14                ; [] |629| 
    1826            ;* --------------------------------------------------------------------------*
    1827            $C$L34:    
    1828            $C$DW$186       .dwtag  DW_TAG_TI_branch
    1829                    .dwattr $C$DW$186, DW_AT_low_pc(0x00)
    1830                    .dwattr $C$DW$186, DW_AT_name("UINT32_TO_STREAM_f")
    1831                    .dwattr $C$DW$186, DW_AT_TI_call
    1832 000062 13B0!         CALLA     #UINT32_TO_STREAM_f   ; [] |629| 
         000064 0000 
    1833                                                      ; [] |629| 
    1834                    .dwpsn  file "C:/Users/409010855/Documents/GitHub/CHARM/Embedded_Voltmeter/Basic WiFi Source/S
    1835 000066 9305          TST.W     r5                    ; [] |630| 
    1836 000068 2404          JEQ       $C$L35                ; [] |630| 
    1837                                                      ; [] |630| 
    1838            ;* --------------------------------------------------------------------------*
    1839 00006a 452D          MOV.W     @r5,r13               ; [] |630| 
    1840 00006c 451E          MOV.W     2(r5),r14             ; [] |630| 
         00006e 0002 
    1841 000070 3C02          JMP       $C$L36                ; [] |630| 
    1842                                                      ; [] |630| 
    1843            ;* --------------------------------------------------------------------------*
    1844 000072       $C$L35:    
    1845 000072 430D          MOV.W     #0,r13                ; [] |630| 
    1846 000074 430E          MOV.W     #0,r14                ; [] |630| 
    1847            ;* --------------------------------------------------------------------------*
MSP430 Assembler PC v4.2.1 Fri Mar 21 13:42:37 2014

Tools Copyright (c) 2003-2013 Texas Instruments Incorporated
C:\Users\409010~1\AppData\Local\Temp\0310410                         PAGE   38

    1848            $C$L36:    
    1849            $C$DW$187       .dwtag  DW_TAG_TI_branch
    1850                    .dwattr $C$DW$187, DW_AT_low_pc(0x00)
    1851                    .dwattr $C$DW$187, DW_AT_name("UINT32_TO_STREAM_f")
    1852                    .dwattr $C$DW$187, DW_AT_TI_call
    1853 000076 13B0!         CALLA     #UINT32_TO_STREAM_f   ; [] |630| 
         000078 0000 
    1854                                                      ; [] |630| 
    1855                    .dwpsn  file "C:/Users/409010855/Documents/GitHub/CHARM/Embedded_Voltmeter/Basic WiFi Source/S
    1856 00007a 9308          TST.W     r8                    ; [] |632| 
    1857 00007c 241B          JEQ       $C$L39                ; [] |632| 
    1858                                                      ; [] |632| 
    1859            ;* --------------------------------------------------------------------------*
    1860                    .dwpsn  file "C:/Users/409010855/Documents/GitHub/CHARM/Embedded_Voltmeter/Basic WiFi Source/S
    1861 00007e 482D          MOV.W     @r8,r13               ; [] |634| 
    1862 000080 481E          MOV.W     2(r8),r14             ; [] |634| 
         000082 0002 
    1863 000084 930E          TST.W     r14                   ; [] |634| 
    1864 000086 200E          JNE       $C$L38                ; [] |634| 
    1865                                                      ; [] |634| 
    1866            ;* --------------------------------------------------------------------------*
    1867 000088 930D          TST.W     r13                   ; [] |634| 
    1868 00008a 200C          JNE       $C$L38                ; [] |634| 
    1869                                                      ; [] |634| 
    1870            ;* --------------------------------------------------------------------------*
    1871 00008c 9388          TST.W     6(r8)                 ; [] |634| 
         00008e 0006 
    1872 000090 3805          JL        $C$L37                ; [] |634| 
    1873                                                      ; [] |634| 
    1874            ;* --------------------------------------------------------------------------*
    1875 000092 2008          JNE       $C$L38                ; [] |634| 
    1876                                                      ; [] |634| 
    1877            ;* --------------------------------------------------------------------------*
    1878 000094 90B8          CMP.W     #5000,4(r8)           ; [] |634| 
         000096 1388 
         000098 0004 
    1879 00009a 2C04          JHS       $C$L38                ; [] |634| 
    1880                                                      ; [] |634| 
    1881            ;* --------------------------------------------------------------------------*
    1882 00009c       $C$L37:    
    1883                    .dwpsn  file "C:/Users/409010855/Documents/GitHub/CHARM/Embedded_Voltmeter/Basic WiFi Source/S
    1884 00009c 1800          MOVX.A    #5000,4(r8)           ; [] |637| 
         00009e 40F8 
         0000a0 1388 
         0000a2 0004 
    1885            ;* --------------------------------------------------------------------------*
    1886 0000a4       $C$L38:    
    1887                    .dwpsn  file "C:/Users/409010855/Documents/GitHub/CHARM/Embedded_Voltmeter/Basic WiFi Source/S
    1888            $C$DW$188       .dwtag  DW_TAG_TI_branch
    1889                    .dwattr $C$DW$188, DW_AT_low_pc(0x00)
    1890                    .dwattr $C$DW$188, DW_AT_name("UINT32_TO_STREAM_f")
    1891                    .dwattr $C$DW$188, DW_AT_TI_call
    1892 0000a4 13B0!         CALLA     #UINT32_TO_STREAM_f   ; [] |639| 
         0000a6 0000 
    1893                                                      ; [] |639| 
MSP430 Assembler PC v4.2.1 Fri Mar 21 13:42:37 2014

Tools Copyright (c) 2003-2013 Texas Instruments Incorporated
C:\Users\409010~1\AppData\Local\Temp\0310410                         PAGE   39

    1894                    .dwpsn  file "C:/Users/409010855/Documents/GitHub/CHARM/Embedded_Voltmeter/Basic WiFi Source/S
    1895 0000a8 481D          MOV.W     4(r8),r13             ; [] |640| 
         0000aa 0004 
    1896 0000ac 481E          MOV.W     6(r8),r14             ; [] |640| 
         0000ae 0006 
    1897            $C$DW$189       .dwtag  DW_TAG_TI_branch
    1898                    .dwattr $C$DW$189, DW_AT_low_pc(0x00)
    1899                    .dwattr $C$DW$189, DW_AT_name("UINT32_TO_STREAM_f")
    1900                    .dwattr $C$DW$189, DW_AT_TI_call
    1901 0000b0 13B0!         CALLA     #UINT32_TO_STREAM_f   ; [] |640| 
         0000b2 0000 
    1902                                                      ; [] |640| 
    1903            ;* --------------------------------------------------------------------------*
    1904 0000b4       $C$L39:    
    1905                    .dwpsn  file "C:/Users/409010855/Documents/GitHub/CHARM/Embedded_Voltmeter/Basic WiFi Source/S
    1906 0000b4 403C          MOV.W     #4104,r12             ; [] |644| 
         0000b6 1008 
    1907 0000b8 04CD          MOVA      r4,r13                ; [] |644| 
    1908 0000ba 407E          MOV.B     #44,r14               ; [] |644| 
         0000bc 002C 
    1909            $C$DW$190       .dwtag  DW_TAG_TI_branch
    1910                    .dwattr $C$DW$190, DW_AT_low_pc(0x00)
    1911                    .dwattr $C$DW$190, DW_AT_name("hci_command_send")
    1912                    .dwattr $C$DW$190, DW_AT_TI_call
    1913 0000be 13B0!         CALLA     #hci_command_send     ; [] |644| 
         0000c0 0000 
    1914                                                      ; [] |644| 
    1915                    .dwpsn  file "C:/Users/409010855/Documents/GitHub/CHARM/Embedded_Voltmeter/Basic WiFi Source/S
    1916 0000c2 403C          MOV.W     #4104,r12             ; [] |647| 
         0000c4 1008 
    1917 0000c6 01CD          MOVA      SP,r13                ; [] |647| 
    1918            $C$DW$191       .dwtag  DW_TAG_TI_branch
    1919                    .dwattr $C$DW$191, DW_AT_low_pc(0x00)
    1920                    .dwattr $C$DW$191, DW_AT_name("SimpleLinkWaitEvent")
    1921                    .dwattr $C$DW$191, DW_AT_TI_call
    1922 0000c8 13B0!         CALLA     #SimpleLinkWaitEvent  ; [] |647| 
         0000ca 0000 
    1923                                                      ; [] |647| 
    1924                    .dwpsn  file "C:/Users/409010855/Documents/GitHub/CHARM/Embedded_Voltmeter/Basic WiFi Source/S
    1925 0000cc 412F          MOV.W     0(SP),r15             ; [] |650| 
    1926 0000ce 9381          TST.W     2(SP)                 ; [] |650| 
         0000d0 0002 
    1927 0000d2 3404          JGE       $C$L40                ; [] |650| 
    1928                                                      ; [] |650| 
    1929            ;* --------------------------------------------------------------------------*
    1930                    .dwpsn  file "C:/Users/409010855/Documents/GitHub/CHARM/Embedded_Voltmeter/Basic WiFi Source/S
    1931 0000d4 4F82          MOV.W     r15,&_Errno+0         ; [] |672| 
         0000d6 0000!
    1932                    .dwpsn  file "C:/Users/409010855/Documents/GitHub/CHARM/Embedded_Voltmeter/Basic WiFi Source/S
    1933 0000d8 433C          MOV.W     #-1,r12               ; [] |673| 
    1934 0000da 3C1A          JMP       $C$L44                ; [] |673| 
    1935                                                      ; [] |673| 
    1936            ;* --------------------------------------------------------------------------*
    1937 0000dc       $C$L40:    
    1938                    .dwpsn  file "C:/Users/409010855/Documents/GitHub/CHARM/Embedded_Voltmeter/Basic WiFi Source/S
MSP430 Assembler PC v4.2.1 Fri Mar 21 13:42:37 2014

Tools Copyright (c) 2003-2013 Texas Instruments Incorporated
C:\Users\409010~1\AppData\Local\Temp\0310410                         PAGE   40

    1939 0000dc 9307          TST.W     r7                    ; [] |652| 
    1940 0000de 2406          JEQ       $C$L41                ; [] |652| 
    1941                                                      ; [] |652| 
    1942            ;* --------------------------------------------------------------------------*
    1943                    .dwpsn  file "C:/Users/409010855/Documents/GitHub/CHARM/Embedded_Voltmeter/Basic WiFi Source/S
    1944 0000e0 07CC          MOVA      r7,r12                ; [] |654| 
    1945 0000e2 01CD          MOVA      SP,r13                ; [] |654| 
    1946 0000e4 522D          ADD.W     #4,r13                ; [] |654| 
    1947 0000e6 422E          MOV.W     #4,r14                ; [] |654| 
    1948            $C$DW$192       .dwtag  DW_TAG_TI_branch
    1949                    .dwattr $C$DW$192, DW_AT_low_pc(0x00)
    1950                    .dwattr $C$DW$192, DW_AT_name("memcpy")
    1951                    .dwattr $C$DW$192, DW_AT_TI_call
    1952 0000e8 13B0!         CALLA     #memcpy               ; [] |654| 
         0000ea 0000 
    1953                                                      ; [] |654| 
    1954            ;* --------------------------------------------------------------------------*
    1955 0000ec       $C$L41:    
    1956                    .dwpsn  file "C:/Users/409010855/Documents/GitHub/CHARM/Embedded_Voltmeter/Basic WiFi Source/S
    1957 0000ec 9306          TST.W     r6                    ; [] |657| 
    1958 0000ee 2406          JEQ       $C$L42                ; [] |657| 
    1959                                                      ; [] |657| 
    1960            ;* --------------------------------------------------------------------------*
    1961                    .dwpsn  file "C:/Users/409010855/Documents/GitHub/CHARM/Embedded_Voltmeter/Basic WiFi Source/S
    1962 0000f0 06CC          MOVA      r6,r12                ; [] |659| 
    1963 0000f2 01CD          MOVA      SP,r13                ; [] |659| 
    1964 0000f4 523D          ADD.W     #8,r13                ; [] |659| 
    1965 0000f6 422E          MOV.W     #4,r14                ; [] |659| 
    1966            $C$DW$193       .dwtag  DW_TAG_TI_branch
    1967                    .dwattr $C$DW$193, DW_AT_low_pc(0x00)
    1968                    .dwattr $C$DW$193, DW_AT_name("memcpy")
    1969                    .dwattr $C$DW$193, DW_AT_TI_call
    1970 0000f8 13B0!         CALLA     #memcpy               ; [] |659| 
         0000fa 0000 
    1971                                                      ; [] |659| 
    1972            ;* --------------------------------------------------------------------------*
    1973 0000fc       $C$L42:    
    1974                    .dwpsn  file "C:/Users/409010855/Documents/GitHub/CHARM/Embedded_Voltmeter/Basic WiFi Source/S
    1975 0000fc 9305          TST.W     r5                    ; [] |662| 
    1976 0000fe 2407          JEQ       $C$L43                ; [] |662| 
    1977                                                      ; [] |662| 
    1978            ;* --------------------------------------------------------------------------*
    1979                    .dwpsn  file "C:/Users/409010855/Documents/GitHub/CHARM/Embedded_Voltmeter/Basic WiFi Source/S
    1980 000100 05CC          MOVA      r5,r12                ; [] |664| 
    1981 000102 01CD          MOVA      SP,r13                ; [] |664| 
    1982 000104 503D          ADD.W     #12,r13               ; [] |664| 
         000106 000C 
    1983 000108 422E          MOV.W     #4,r14                ; [] |664| 
    1984            $C$DW$194       .dwtag  DW_TAG_TI_branch
    1985                    .dwattr $C$DW$194, DW_AT_low_pc(0x00)
    1986                    .dwattr $C$DW$194, DW_AT_name("memcpy")
    1987                    .dwattr $C$DW$194, DW_AT_TI_call
    1988 00010a 13B0!         CALLA     #memcpy               ; [] |664| 
         00010c 0000 
    1989                                                      ; [] |664| 
MSP430 Assembler PC v4.2.1 Fri Mar 21 13:42:37 2014

Tools Copyright (c) 2003-2013 Texas Instruments Incorporated
C:\Users\409010~1\AppData\Local\Temp\0310410                         PAGE   41

    1990            ;* --------------------------------------------------------------------------*
    1991 00010e       $C$L43:    
    1992 00010e 412C          MOV.W     0(SP),r12             ; [] |664| 
    1993            ;* --------------------------------------------------------------------------*
    1994 000110       $C$L44:    
    1995 000110 5031          ADD.W     #16,SP                ; [] 
         000112 0010 
    1996                    .dwcfi  cfa_offset, 32
    1997 000114 1664          POPM.A    #7,r10                ; [] 
    1998                    .dwcfi  restore_reg, 4
    1999                    .dwcfi  restore_reg, 5
    2000                    .dwcfi  restore_reg, 6
    2001                    .dwcfi  restore_reg, 7
    2002                    .dwcfi  restore_reg, 8
    2003                    .dwcfi  restore_reg, 9
    2004                    .dwcfi  restore_reg, 10
    2005                    .dwcfi  cfa_offset, 4
    2006            $C$DW$195       .dwtag  DW_TAG_TI_branch
    2007                    .dwattr $C$DW$195, DW_AT_low_pc(0x00)
    2008                    .dwattr $C$DW$195, DW_AT_TI_return
    2009 000116 0110          RETA      ; [] 
    2010                    ; [] 
    2011                    .dwattr $C$DW$166, DW_AT_TI_end_file("C:/Users/409010855/Documents/GitHub/CHARM/Embedded_Voltm
    2012                    .dwattr $C$DW$166, DW_AT_TI_end_line(0x2a3)
    2013                    .dwattr $C$DW$166, DW_AT_TI_end_column(0x01)
    2014                    .dwendentry
    2015                    .dwendtag $C$DW$166
    2016            
    2017 000118               .sect   ".text:select"
    2018            
    2019            $C$DW$196       .dwtag  DW_TAG_subprogram, DW_AT_name("")
    2020                    .dwattr $C$DW$196, DW_AT_low_pc($abproc1)
    2021                    .dwattr $C$DW$196, DW_AT_high_pc(0x00)
    2022                    .dwattr $C$DW$196, DW_AT_TI_symbol_name("$abproc1")
    2023            
    2024                    .dwfde $C$DW$CIE, $abproc1
    2025            
    2026            ;*****************************************************************************
    2027            ;* ABSTRACTED PROCEDURE: $abproc1                                            *
    2028            ;*****************************************************************************
    2029 000118       $abproc1:
    2030                    .dwcfi  cfa_offset, 4
    2031 000118 403D          MOV.W     #20,r13               ; [] |623| 
         00011a 0014 
    2032 00011c 430E          MOV.W     #0,r14                ; [] |623| 
    2033 00011e 13B0!         CALLA     #UINT32_TO_STREAM_f   ; [] |623| 
         000120 0000 
    2034                                                      ; [] |623| 
    2035 000122 403D          MOV.W     #20,r13               ; [] |624| 
         000124 0014 
    2036 000126 430E          MOV.W     #0,r14                ; [] |624| 
    2037 000128 13B0!         CALLA     #UINT32_TO_STREAM_f   ; [] |624| 
         00012a 0000 
    2038                                                      ; [] |624| 
    2039 00012c 0110          RETA      ; [] 
MSP430 Assembler PC v4.2.1 Fri Mar 21 13:42:37 2014

Tools Copyright (c) 2003-2013 Texas Instruments Incorporated
C:\Users\409010~1\AppData\Local\Temp\0310410                         PAGE   42

    2040                    ; [] 
    2041                    .dwendentry
    2042                    .dwendtag $C$DW$196
    2043            
    2044 000000               .sect   ".text:recvfrom"
    2045                    .align  2
    2046                    .clink
    2047                    .global recvfrom
    2048            
    2049            $C$DW$197       .dwtag  DW_TAG_subprogram, DW_AT_name("recvfrom")
    2050                    .dwattr $C$DW$197, DW_AT_low_pc(recvfrom)
    2051                    .dwattr $C$DW$197, DW_AT_high_pc(0x00)
    2052                    .dwattr $C$DW$197, DW_AT_TI_symbol_name("recvfrom")
    2053                    .dwattr $C$DW$197, DW_AT_external
    2054                    .dwattr $C$DW$197, DW_AT_type(*$C$DW$T$92)
    2055                    .dwattr $C$DW$197, DW_AT_TI_begin_file("C:/Users/409010855/Documents/GitHub/CHARM/Embedded_Vol
    2056                    .dwattr $C$DW$197, DW_AT_TI_begin_line(0x3b6)
    2057                    .dwattr $C$DW$197, DW_AT_TI_begin_column(0x07)
    2058                    .dwattr $C$DW$197, DW_AT_TI_max_frame_size(0x22)
    2059                    .dwpsn  file "C:/Users/409010855/Documents/GitHub/CHARM/Embedded_Voltmeter/Basic WiFi Source/S
    2060            
    2061                    .dwfde $C$DW$CIE, recvfrom
    2062            $C$DW$198       .dwtag  DW_TAG_formal_parameter, DW_AT_name("sd")
    2063                    .dwattr $C$DW$198, DW_AT_TI_symbol_name("sd")
    2064                    .dwattr $C$DW$198, DW_AT_type(*$C$DW$T$19)
    2065                    .dwattr $C$DW$198, DW_AT_location[DW_OP_reg12 DW_OP_piece 2 DW_OP_reg13 DW_OP_piece 2]
    2066            $C$DW$199       .dwtag  DW_TAG_formal_parameter, DW_AT_name("buf")
    2067                    .dwattr $C$DW$199, DW_AT_TI_symbol_name("buf")
    2068                    .dwattr $C$DW$199, DW_AT_type(*$C$DW$T$3)
    2069                    .dwattr $C$DW$199, DW_AT_location[DW_OP_reg14]
    2070            $C$DW$200       .dwtag  DW_TAG_formal_parameter, DW_AT_name("len")
    2071                    .dwattr $C$DW$200, DW_AT_TI_symbol_name("len")
    2072                    .dwattr $C$DW$200, DW_AT_type(*$C$DW$T$19)
    2073                    .dwattr $C$DW$200, DW_AT_location[DW_OP_reg15 DW_OP_piece 2 DW_OP_reg16 DW_OP_piece 2]
    2074            $C$DW$201       .dwtag  DW_TAG_formal_parameter, DW_AT_name("flags")
    2075                    .dwattr $C$DW$201, DW_AT_TI_symbol_name("flags")
    2076                    .dwattr $C$DW$201, DW_AT_type(*$C$DW$T$19)
    2077                    .dwattr $C$DW$201, DW_AT_location[DW_OP_breg1 36]
    2078            $C$DW$202       .dwtag  DW_TAG_formal_parameter, DW_AT_name("from")
    2079                    .dwattr $C$DW$202, DW_AT_TI_symbol_name("from")
    2080                    .dwattr $C$DW$202, DW_AT_type(*$C$DW$T$103)
    2081                    .dwattr $C$DW$202, DW_AT_location[DW_OP_breg1 40]
    2082            $C$DW$203       .dwtag  DW_TAG_formal_parameter, DW_AT_name("fromlen")
    2083                    .dwattr $C$DW$203, DW_AT_TI_symbol_name("fromlen")
    2084                    .dwattr $C$DW$203, DW_AT_type(*$C$DW$T$101)
    2085                    .dwattr $C$DW$203, DW_AT_location[DW_OP_breg1 42]
    2086            
    2087            ;*****************************************************************************
    2088            ;* FUNCTION NAME: recvfrom                                                   *
    2089            ;*                                                                           *
    2090            ;*   Regs Modified     : SP,SR,r7,r8,r9,r10,r11,r12,r13,r14,r15              *
    2091            ;*   Regs Used         : SP,SR,r7,r8,r9,r10,r11,r12,r13,r14,r15              *
    2092            ;*   Local Frame Size  : 14 Args + 0 Auto + 16 Save = 30 byte                *
    2093            ;*****************************************************************************
    2094            recvfrom:
MSP430 Assembler PC v4.2.1 Fri Mar 21 13:42:37 2014

Tools Copyright (c) 2003-2013 Texas Instruments Incorporated
C:\Users\409010~1\AppData\Local\Temp\0310410                         PAGE   43

    2095            ;* --------------------------------------------------------------------------*
    2096            ;* r12   assigned to sd
    2097            $C$DW$204       .dwtag  DW_TAG_variable, DW_AT_name("sd")
    2098                    .dwattr $C$DW$204, DW_AT_TI_symbol_name("sd")
    2099                    .dwattr $C$DW$204, DW_AT_type(*$C$DW$T$139)
    2100                    .dwattr $C$DW$204, DW_AT_location[DW_OP_reg12 DW_OP_piece 2 DW_OP_reg13 DW_OP_piece 2]
    2101            ;* r14   assigned to buf
    2102            $C$DW$205       .dwtag  DW_TAG_variable, DW_AT_name("buf")
    2103                    .dwattr $C$DW$205, DW_AT_TI_symbol_name("buf")
    2104                    .dwattr $C$DW$205, DW_AT_type(*$C$DW$T$74)
    2105                    .dwattr $C$DW$205, DW_AT_location[DW_OP_reg14]
    2106            ;* r15   assigned to len
    2107            $C$DW$206       .dwtag  DW_TAG_variable, DW_AT_name("len")
    2108                    .dwattr $C$DW$206, DW_AT_TI_symbol_name("len")
    2109                    .dwattr $C$DW$206, DW_AT_type(*$C$DW$T$139)
    2110                    .dwattr $C$DW$206, DW_AT_location[DW_OP_reg15 DW_OP_piece 2 DW_OP_reg16 DW_OP_piece 2]
    2111            ;* r7    assigned to flags
    2112            $C$DW$207       .dwtag  DW_TAG_variable, DW_AT_name("flags")
    2113                    .dwattr $C$DW$207, DW_AT_TI_symbol_name("flags")
    2114                    .dwattr $C$DW$207, DW_AT_type(*$C$DW$T$139)
    2115                    .dwattr $C$DW$207, DW_AT_location[DW_OP_reg7 DW_OP_piece 2 DW_OP_reg8 DW_OP_piece 2]
    2116            ;* r9    assigned to from
    2117            $C$DW$208       .dwtag  DW_TAG_variable, DW_AT_name("from")
    2118                    .dwattr $C$DW$208, DW_AT_TI_symbol_name("from")
    2119                    .dwattr $C$DW$208, DW_AT_type(*$C$DW$T$180)
    2120                    .dwattr $C$DW$208, DW_AT_location[DW_OP_reg9]
    2121            ;* r10   assigned to fromlen
    2122            $C$DW$209       .dwtag  DW_TAG_variable, DW_AT_name("fromlen")
    2123                    .dwattr $C$DW$209, DW_AT_TI_symbol_name("fromlen")
    2124                    .dwattr $C$DW$209, DW_AT_type(*$C$DW$T$157)
    2125                    .dwattr $C$DW$209, DW_AT_location[DW_OP_reg10]
    2126                    .dwcfi  cfa_offset, 4
    2127                    .dwcfi  save_reg_to_mem, 16, -4
    2128 000000 143A          PUSHM.A   #4,r10                ; [] 
    2129                    .dwcfi  save_reg_to_mem, 10, -8
    2130                    .dwcfi  save_reg_to_mem, 9, -12
    2131                    .dwcfi  save_reg_to_mem, 8, -16
    2132                    .dwcfi  save_reg_to_mem, 7, -20
    2133                    .dwcfi  cfa_offset, 20
    2134 000002 8031          SUB.W     #14,SP                ; [] 
         000004 000E 
    2135                    .dwcfi  cfa_offset, 34
    2136 000006 4191          MOV.W     34(SP),0(SP)          ; [] |952| 
         000008 0022 
         00000a 0000 
    2137 00000c 4191          MOV.W     36(SP),2(SP)          ; [] |952| 
         00000e 0024 
         000010 0002 
    2138 000012 4191          MOV.W     38(SP),4(SP)          ; [] |952| 
         000014 0026 
         000016 0004 
    2139 000018 4191          MOV.W     40(SP),6(SP)          ; [] |952| 
         00001a 0028 
         00001c 0006 
    2140 00001e 4191          MOV.W     42(SP),8(SP)          ; [] |952| 
MSP430 Assembler PC v4.2.1 Fri Mar 21 13:42:37 2014

Tools Copyright (c) 2003-2013 Texas Instruments Incorporated
C:\Users\409010~1\AppData\Local\Temp\0310410                         PAGE   44

         000020 002A 
         000022 0008 
    2141                    .dwpsn  file "C:/Users/409010855/Documents/GitHub/CHARM/Embedded_Voltmeter/Basic WiFi Source/S
    2142 000024 1800          MOVX.A    #4109,10(SP)          ; [] |953| 
         000026 40F1 
         000028 100D 
         00002a 000A 
    2143            $C$DW$210       .dwtag  DW_TAG_TI_branch
    2144                    .dwattr $C$DW$210, DW_AT_low_pc(0x00)
    2145                    .dwattr $C$DW$210, DW_AT_name("simple_link_recv")
    2146                    .dwattr $C$DW$210, DW_AT_TI_call
    2147 00002c 13B0!         CALLA     #simple_link_recv     ; [] |953| 
         00002e 0000 
    2148                                                      ; [] |953| 
    2149 000030 5031          ADD.W     #14,SP                ; [] 
         000032 000E 
    2150                    .dwcfi  cfa_offset, 20
    2151 000034 1637          POPM.A    #4,r10                ; [] 
    2152                    .dwcfi  restore_reg, 7
    2153                    .dwcfi  restore_reg, 8
    2154                    .dwcfi  restore_reg, 9
    2155                    .dwcfi  restore_reg, 10
    2156                    .dwcfi  cfa_offset, 4
    2157            $C$DW$211       .dwtag  DW_TAG_TI_branch
    2158                    .dwattr $C$DW$211, DW_AT_low_pc(0x00)
    2159                    .dwattr $C$DW$211, DW_AT_TI_return
    2160 000036 0110          RETA      ; [] 
    2161                    ; [] 
    2162                    .dwattr $C$DW$197, DW_AT_TI_end_file("C:/Users/409010855/Documents/GitHub/CHARM/Embedded_Voltm
    2163                    .dwattr $C$DW$197, DW_AT_TI_end_line(0x3bb)
    2164                    .dwattr $C$DW$197, DW_AT_TI_end_column(0x01)
    2165                    .dwendentry
    2166                    .dwendtag $C$DW$197
    2167            
    2168 000000               .sect   ".text:recv"
    2169                    .align  2
    2170                    .clink
    2171                    .global recv
    2172            
    2173            $C$DW$212       .dwtag  DW_TAG_subprogram, DW_AT_name("recv")
    2174                    .dwattr $C$DW$212, DW_AT_low_pc(recv)
    2175                    .dwattr $C$DW$212, DW_AT_high_pc(0x00)
    2176                    .dwattr $C$DW$212, DW_AT_TI_symbol_name("recv")
    2177                    .dwattr $C$DW$212, DW_AT_external
    2178                    .dwattr $C$DW$212, DW_AT_type(*$C$DW$T$92)
    2179                    .dwattr $C$DW$212, DW_AT_TI_begin_file("C:/Users/409010855/Documents/GitHub/CHARM/Embedded_Vol
    2180                    .dwattr $C$DW$212, DW_AT_TI_begin_line(0x395)
    2181                    .dwattr $C$DW$212, DW_AT_TI_begin_column(0x07)
    2182                    .dwattr $C$DW$212, DW_AT_TI_max_frame_size(0x1a)
    2183                    .dwpsn  file "C:/Users/409010855/Documents/GitHub/CHARM/Embedded_Voltmeter/Basic WiFi Source/S
    2184            
    2185                    .dwfde $C$DW$CIE, recv
    2186            $C$DW$213       .dwtag  DW_TAG_formal_parameter, DW_AT_name("sd")
    2187                    .dwattr $C$DW$213, DW_AT_TI_symbol_name("sd")
    2188                    .dwattr $C$DW$213, DW_AT_type(*$C$DW$T$19)
MSP430 Assembler PC v4.2.1 Fri Mar 21 13:42:37 2014

Tools Copyright (c) 2003-2013 Texas Instruments Incorporated
C:\Users\409010~1\AppData\Local\Temp\0310410                         PAGE   45

    2189                    .dwattr $C$DW$213, DW_AT_location[DW_OP_reg12 DW_OP_piece 2 DW_OP_reg13 DW_OP_piece 2]
    2190            $C$DW$214       .dwtag  DW_TAG_formal_parameter, DW_AT_name("buf")
    2191                    .dwattr $C$DW$214, DW_AT_TI_symbol_name("buf")
    2192                    .dwattr $C$DW$214, DW_AT_type(*$C$DW$T$3)
    2193                    .dwattr $C$DW$214, DW_AT_location[DW_OP_reg14]
    2194            $C$DW$215       .dwtag  DW_TAG_formal_parameter, DW_AT_name("len")
    2195                    .dwattr $C$DW$215, DW_AT_TI_symbol_name("len")
    2196                    .dwattr $C$DW$215, DW_AT_type(*$C$DW$T$19)
    2197                    .dwattr $C$DW$215, DW_AT_location[DW_OP_reg15 DW_OP_piece 2 DW_OP_reg16 DW_OP_piece 2]
    2198            $C$DW$216       .dwtag  DW_TAG_formal_parameter, DW_AT_name("flags")
    2199                    .dwattr $C$DW$216, DW_AT_TI_symbol_name("flags")
    2200                    .dwattr $C$DW$216, DW_AT_type(*$C$DW$T$19)
    2201                    .dwattr $C$DW$216, DW_AT_location[DW_OP_breg1 28]
    2202            
    2203            ;*****************************************************************************
    2204            ;* FUNCTION NAME: recv                                                       *
    2205            ;*                                                                           *
    2206            ;*   Regs Modified     : SP,SR,r9,r10,r11,r12,r13,r14,r15                    *
    2207            ;*   Regs Used         : SP,SR,r9,r10,r11,r12,r13,r14,r15                    *
    2208            ;*   Local Frame Size  : 14 Args + 0 Auto + 8 Save = 22 byte                 *
    2209            ;*****************************************************************************
    2210            recv:
    2211            ;* --------------------------------------------------------------------------*
    2212            ;* r12   assigned to sd
    2213            $C$DW$217       .dwtag  DW_TAG_variable, DW_AT_name("sd")
    2214                    .dwattr $C$DW$217, DW_AT_TI_symbol_name("sd")
    2215                    .dwattr $C$DW$217, DW_AT_type(*$C$DW$T$139)
    2216                    .dwattr $C$DW$217, DW_AT_location[DW_OP_reg12 DW_OP_piece 2 DW_OP_reg13 DW_OP_piece 2]
    2217            ;* r14   assigned to buf
    2218            $C$DW$218       .dwtag  DW_TAG_variable, DW_AT_name("buf")
    2219                    .dwattr $C$DW$218, DW_AT_TI_symbol_name("buf")
    2220                    .dwattr $C$DW$218, DW_AT_type(*$C$DW$T$74)
    2221                    .dwattr $C$DW$218, DW_AT_location[DW_OP_reg14]
    2222            ;* r15   assigned to len
    2223            $C$DW$219       .dwtag  DW_TAG_variable, DW_AT_name("len")
    2224                    .dwattr $C$DW$219, DW_AT_TI_symbol_name("len")
    2225                    .dwattr $C$DW$219, DW_AT_type(*$C$DW$T$139)
    2226                    .dwattr $C$DW$219, DW_AT_location[DW_OP_reg15 DW_OP_piece 2 DW_OP_reg16 DW_OP_piece 2]
    2227            ;* r9    assigned to flags
    2228            $C$DW$220       .dwtag  DW_TAG_variable, DW_AT_name("flags")
    2229                    .dwattr $C$DW$220, DW_AT_TI_symbol_name("flags")
    2230                    .dwattr $C$DW$220, DW_AT_type(*$C$DW$T$139)
    2231                    .dwattr $C$DW$220, DW_AT_location[DW_OP_reg9 DW_OP_piece 2 DW_OP_reg10 DW_OP_piece 2]
    2232                    .dwcfi  cfa_offset, 4
    2233                    .dwcfi  save_reg_to_mem, 16, -4
    2234 000000 141A          PUSHM.A   #2,r10                ; [] 
    2235                    .dwcfi  save_reg_to_mem, 10, -8
    2236                    .dwcfi  save_reg_to_mem, 9, -12
    2237                    .dwcfi  cfa_offset, 12
    2238 000002 8031          SUB.W     #14,SP                ; [] 
         000004 000E 
    2239                    .dwcfi  cfa_offset, 26
    2240 000006 4191          MOV.W     26(SP),0(SP)          ; [] |918| 
         000008 001A 
         00000a 0000 
MSP430 Assembler PC v4.2.1 Fri Mar 21 13:42:37 2014

Tools Copyright (c) 2003-2013 Texas Instruments Incorporated
C:\Users\409010~1\AppData\Local\Temp\0310410                         PAGE   46

    2241 00000c 4191          MOV.W     28(SP),2(SP)          ; [] |918| 
         00000e 001C 
         000010 0002 
    2242 000012 4191          MOV.W     30(SP),4(SP)          ; [] |918| 
         000014 001E 
         000016 0004 
    2243                    .dwpsn  file "C:/Users/409010855/Documents/GitHub/CHARM/Embedded_Voltmeter/Basic WiFi Source/S
    2244 000018 4381          MOV.W     #0,6(SP)              ; [] |919| 
         00001a 0006 
    2245 00001c 4381          MOV.W     #0,8(SP)              ; [] |919| 
         00001e 0008 
    2246 000020 1800          MOVX.A    #4100,10(SP)          ; [] |919| 
         000022 40F1 
         000024 1004 
         000026 000A 
    2247            $C$DW$221       .dwtag  DW_TAG_TI_branch
    2248                    .dwattr $C$DW$221, DW_AT_low_pc(0x00)
    2249                    .dwattr $C$DW$221, DW_AT_name("simple_link_recv")
    2250                    .dwattr $C$DW$221, DW_AT_TI_call
    2251 000028 13B0!         CALLA     #simple_link_recv     ; [] |919| 
         00002a 0000 
    2252                                                      ; [] |919| 
    2253 00002c 5031          ADD.W     #14,SP                ; [] 
         00002e 000E 
    2254                    .dwcfi  cfa_offset, 12
    2255 000030 1619          POPM.A    #2,r10                ; [] 
    2256                    .dwcfi  restore_reg, 9
    2257                    .dwcfi  restore_reg, 10
    2258                    .dwcfi  cfa_offset, 4
    2259            $C$DW$222       .dwtag  DW_TAG_TI_branch
    2260                    .dwattr $C$DW$222, DW_AT_low_pc(0x00)
    2261                    .dwattr $C$DW$222, DW_AT_TI_return
    2262 000032 0110          RETA      ; [] 
    2263                    ; [] 
    2264                    .dwattr $C$DW$212, DW_AT_TI_end_file("C:/Users/409010855/Documents/GitHub/CHARM/Embedded_Voltm
    2265                    .dwattr $C$DW$212, DW_AT_TI_end_line(0x398)
    2266                    .dwattr $C$DW$212, DW_AT_TI_end_column(0x01)
    2267                    .dwendentry
    2268                    .dwendtag $C$DW$212
    2269            
    2270 000000               .sect   ".text:mdnsAdvertiser"
    2271                    .align  2
    2272                    .clink
    2273                    .global mdnsAdvertiser
    2274            
    2275            $C$DW$223       .dwtag  DW_TAG_subprogram, DW_AT_name("mdnsAdvertiser")
    2276                    .dwattr $C$DW$223, DW_AT_low_pc(mdnsAdvertiser)
    2277                    .dwattr $C$DW$223, DW_AT_high_pc(0x00)
    2278                    .dwattr $C$DW$223, DW_AT_TI_symbol_name("mdnsAdvertiser")
    2279                    .dwattr $C$DW$223, DW_AT_external
    2280                    .dwattr $C$DW$223, DW_AT_type(*$C$DW$T$92)
    2281                    .dwattr $C$DW$223, DW_AT_TI_begin_file("C:/Users/409010855/Documents/GitHub/CHARM/Embedded_Vol
    2282                    .dwattr $C$DW$223, DW_AT_TI_begin_line(0x46f)
    2283                    .dwattr $C$DW$223, DW_AT_TI_begin_column(0x07)
    2284                    .dwattr $C$DW$223, DW_AT_TI_max_frame_size(0x12)
MSP430 Assembler PC v4.2.1 Fri Mar 21 13:42:37 2014

Tools Copyright (c) 2003-2013 Texas Instruments Incorporated
C:\Users\409010~1\AppData\Local\Temp\0310410                         PAGE   47

    2285                    .dwpsn  file "C:/Users/409010855/Documents/GitHub/CHARM/Embedded_Voltmeter/Basic WiFi Source/S
    2286            
    2287                    .dwfde $C$DW$CIE, mdnsAdvertiser
    2288            $C$DW$224       .dwtag  DW_TAG_formal_parameter, DW_AT_name("mdnsEnabled")
    2289                    .dwattr $C$DW$224, DW_AT_TI_symbol_name("mdnsEnabled")
    2290                    .dwattr $C$DW$224, DW_AT_type(*$C$DW$T$23)
    2291                    .dwattr $C$DW$224, DW_AT_location[DW_OP_reg12]
    2292            $C$DW$225       .dwtag  DW_TAG_formal_parameter, DW_AT_name("deviceServiceName")
    2293                    .dwattr $C$DW$225, DW_AT_TI_symbol_name("deviceServiceName")
    2294                    .dwattr $C$DW$225, DW_AT_type(*$C$DW$T$28)
    2295                    .dwattr $C$DW$225, DW_AT_location[DW_OP_reg13]
    2296            $C$DW$226       .dwtag  DW_TAG_formal_parameter, DW_AT_name("deviceServiceNameLength")
    2297                    .dwattr $C$DW$226, DW_AT_TI_symbol_name("deviceServiceNameLength")
    2298                    .dwattr $C$DW$226, DW_AT_type(*$C$DW$T$23)
    2299                    .dwattr $C$DW$226, DW_AT_location[DW_OP_reg14]
    2300            
    2301            ;*****************************************************************************
    2302            ;* FUNCTION NAME: mdnsAdvertiser                                             *
    2303            ;*                                                                           *
    2304            ;*   Regs Modified     : SP,SR,r8,r9,r10,r11,r12,r13,r14,r15                 *
    2305            ;*   Regs Used         : SP,SR,r8,r9,r10,r11,r12,r13,r14,r15                 *
    2306            ;*   Local Frame Size  : 0 Args + 2 Auto + 12 Save = 14 byte                 *
    2307            ;*****************************************************************************
    2308            mdnsAdvertiser:
    2309            ;* --------------------------------------------------------------------------*
    2310            ;* r12   assigned to pArgs
    2311            $C$DW$227       .dwtag  DW_TAG_variable, DW_AT_name("pArgs")
    2312                    .dwattr $C$DW$227, DW_AT_TI_symbol_name("pArgs")
    2313                    .dwattr $C$DW$227, DW_AT_type(*$C$DW$T$25)
    2314                    .dwattr $C$DW$227, DW_AT_location[DW_OP_reg12]
    2315            ;* r8    assigned to pTxBuffer
    2316            $C$DW$228       .dwtag  DW_TAG_variable, DW_AT_name("pTxBuffer")
    2317                    .dwattr $C$DW$228, DW_AT_TI_symbol_name("pTxBuffer")
    2318                    .dwattr $C$DW$228, DW_AT_type(*$C$DW$T$25)
    2319                    .dwattr $C$DW$228, DW_AT_location[DW_OP_reg8]
    2320            $C$DW$229       .dwtag  DW_TAG_variable, DW_AT_name("ret")
    2321                    .dwattr $C$DW$229, DW_AT_TI_symbol_name("ret")
    2322                    .dwattr $C$DW$229, DW_AT_type(*$C$DW$T$82)
    2323                    .dwattr $C$DW$229, DW_AT_location[DW_OP_breg1 0]
    2324            ;* r9    assigned to deviceServiceNameLength
    2325            $C$DW$230       .dwtag  DW_TAG_variable, DW_AT_name("deviceServiceNameLength")
    2326                    .dwattr $C$DW$230, DW_AT_TI_symbol_name("deviceServiceNameLength")
    2327                    .dwattr $C$DW$230, DW_AT_type(*$C$DW$T$113)
    2328                    .dwattr $C$DW$230, DW_AT_location[DW_OP_reg9]
    2329            ;* r10   assigned to deviceServiceName
    2330            $C$DW$231       .dwtag  DW_TAG_variable, DW_AT_name("deviceServiceName")
    2331                    .dwattr $C$DW$231, DW_AT_TI_symbol_name("deviceServiceName")
    2332                    .dwattr $C$DW$231, DW_AT_type(*$C$DW$T$164)
    2333                    .dwattr $C$DW$231, DW_AT_location[DW_OP_reg10]
    2334            ;* r13   assigned to mdnsEnabled
    2335            $C$DW$232       .dwtag  DW_TAG_variable, DW_AT_name("mdnsEnabled")
    2336                    .dwattr $C$DW$232, DW_AT_TI_symbol_name("mdnsEnabled")
    2337                    .dwattr $C$DW$232, DW_AT_type(*$C$DW$T$113)
    2338                    .dwattr $C$DW$232, DW_AT_location[DW_OP_reg13]
    2339            ;* r15   assigned to $O$L1
MSP430 Assembler PC v4.2.1 Fri Mar 21 13:42:37 2014

Tools Copyright (c) 2003-2013 Texas Instruments Incorporated
C:\Users\409010~1\AppData\Local\Temp\0310410                         PAGE   48

    2340            ;* r10   assigned to $O$U19
    2341                    .dwcfi  cfa_offset, 4
    2342                    .dwcfi  save_reg_to_mem, 16, -4
    2343 000000 142A          PUSHM.A   #3,r10                ; [] 
    2344                    .dwcfi  save_reg_to_mem, 10, -8
    2345                    .dwcfi  save_reg_to_mem, 9, -12
    2346                    .dwcfi  save_reg_to_mem, 8, -16
    2347                    .dwcfi  cfa_offset, 16
    2348 000002 8321          SUB.W     #2,SP                 ; [] 
    2349                    .dwcfi  cfa_offset, 18
    2350 000004 0EC9          MOVA      r14,r9                ; [] |1136| 
    2351 000006 0DCA          MOVA      r13,r10               ; [] |1136| 
    2352 000008 0CCD          MOVA      r12,r13               ; [] |1136| 
    2353                    .dwpsn  file "C:/Users/409010855/Documents/GitHub/CHARM/Embedded_Voltmeter/Basic WiFi Source/S
    2354 00000a 9039          CMP.W     #33,r9                ; [] |1140| 
         00000c 0021 
    2355 00000e 2802          JLO       $C$L45                ; [] |1140| 
    2356                                                      ; [] |1140| 
    2357            ;* --------------------------------------------------------------------------*
    2358                    .dwpsn  file "C:/Users/409010855/Documents/GitHub/CHARM/Embedded_Voltmeter/Basic WiFi Source/S
    2359 000010 433C          MOV.W     #-1,r12               ; [] |1142| 
    2360 000012 3C27          JMP       $C$L48                ; [] |1142| 
    2361                                                      ; [] |1142| 
    2362            ;* --------------------------------------------------------------------------*
    2363 000014       $C$L45:    
    2364                    .dwpsn  file "C:/Users/409010855/Documents/GitHub/CHARM/Embedded_Voltmeter/Basic WiFi Source/S
    2365 000014 4218          MOV.W     &tSLInformation+6,r8  ; [] |1145| 
         000016 0006!
    2366                    .dwpsn  file "C:/Users/409010855/Documents/GitHub/CHARM/Embedded_Voltmeter/Basic WiFi Source/S
    2367 000018 403C          MOV.W     #9,r12                ; [] |1149| 
         00001a 0009 
    2368 00001c 580C          ADD.W     r8,r12                ; [] |1149| 
    2369 00001e 430E          MOV.W     #0,r14                ; [] |1149| 
    2370            $C$DW$233       .dwtag  DW_TAG_TI_branch
    2371                    .dwattr $C$DW$233, DW_AT_low_pc(0x00)
    2372                    .dwattr $C$DW$233, DW_AT_name("UINT32_TO_STREAM_f")
    2373                    .dwattr $C$DW$233, DW_AT_TI_call
    2374 000020 13B0!         CALLA     #UINT32_TO_STREAM_f   ; [] |1149| 
         000022 0000 
    2375                                                      ; [] |1149| 
    2376                    .dwpsn  file "C:/Users/409010855/Documents/GitHub/CHARM/Embedded_Voltmeter/Basic WiFi Source/S
    2377 000024 423D          MOV.W     #8,r13                ; [] |1150| 
    2378 000026 430E          MOV.W     #0,r14                ; [] |1150| 
    2379            $C$DW$234       .dwtag  DW_TAG_TI_branch
    2380                    .dwattr $C$DW$234, DW_AT_low_pc(0x00)
    2381                    .dwattr $C$DW$234, DW_AT_name("UINT32_TO_STREAM_f")
    2382                    .dwattr $C$DW$234, DW_AT_TI_call
    2383 000028 13B0!         CALLA     #UINT32_TO_STREAM_f   ; [] |1150| 
         00002a 0000 
    2384                                                      ; [] |1150| 
    2385                    .dwpsn  file "C:/Users/409010855/Documents/GitHub/CHARM/Embedded_Voltmeter/Basic WiFi Source/S
    2386 00002c 09CD          MOVA      r9,r13                ; [] |1151| 
    2387 00002e 430E          MOV.W     #0,r14                ; [] |1151| 
    2388            $C$DW$235       .dwtag  DW_TAG_TI_branch
    2389                    .dwattr $C$DW$235, DW_AT_low_pc(0x00)
MSP430 Assembler PC v4.2.1 Fri Mar 21 13:42:37 2014

Tools Copyright (c) 2003-2013 Texas Instruments Incorporated
C:\Users\409010~1\AppData\Local\Temp\0310410                         PAGE   49

    2390                    .dwattr $C$DW$235, DW_AT_name("UINT32_TO_STREAM_f")
    2391                    .dwattr $C$DW$235, DW_AT_TI_call
    2392 000030 13B0!         CALLA     #UINT32_TO_STREAM_f   ; [] |1151| 
         000032 0000 
    2393                                                      ; [] |1151| 
    2394                    .dwpsn  file "C:/Users/409010855/Documents/GitHub/CHARM/Embedded_Voltmeter/Basic WiFi Source/S
    2395 000034 9309          TST.W     r9                    ; [] |1152| 
    2396 000036 2406          JEQ       $C$L47                ; [] |1152| 
    2397                                                      ; [] |1152| 
    2398            ;* --------------------------------------------------------------------------*
    2399 000038 09CF          MOVA      r9,r15                ; [] |1152| 
    2400            ;* --------------------------------------------------------------------------*
    2401            ;*   BEGIN LOOP $C$L46
    2402            ;*
    2403            ;*   Loop source line                : 1152
    2404            ;*   Loop closing brace source line  : 1152
    2405            ;*   Known Minimum Trip Count        : 1
    2406            ;*   Known Maximum Trip Count        : 32
    2407            ;*   Known Max Trip Count Factor     : 1
    2408            ;* --------------------------------------------------------------------------*
    2409 00003a       $C$L46:    
    2410 00003a 531C          ADD.W     #1,r12                ; [] |1152| 
    2411 00003c 4AFC          MOV.B     @r10+,-1(r12)         ; [] |1152| 
         00003e FFFF 
    2412 000040 831F          SUB.W     #1,r15                ; [] |1152| 
    2413 000042 23FB          JNE       $C$L46                ; [] |1152| 
    2414                                                      ; [] |1152| 
    2415            ;* --------------------------------------------------------------------------*
    2416 000044       $C$L47:    
    2417                    .dwpsn  file "C:/Users/409010855/Documents/GitHub/CHARM/Embedded_Voltmeter/Basic WiFi Source/S
    2418 000044 403E          MOV.W     #12,r14               ; [] |1155| 
         000046 000C 
    2419 000048 594E          ADD.B     r9,r14                ; [] |1155| 
    2420 00004a 403C          MOV.W     #4113,r12             ; [] |1155| 
         00004c 1011 
    2421 00004e 08CD          MOVA      r8,r13                ; [] |1155| 
    2422            $C$DW$236       .dwtag  DW_TAG_TI_branch
    2423                    .dwattr $C$DW$236, DW_AT_low_pc(0x00)
    2424                    .dwattr $C$DW$236, DW_AT_name("hci_command_send")
    2425                    .dwattr $C$DW$236, DW_AT_TI_call
    2426 000050 13B0!         CALLA     #hci_command_send     ; [] |1155| 
         000052 0000 
    2427                                                      ; [] |1155| 
    2428                    .dwpsn  file "C:/Users/409010855/Documents/GitHub/CHARM/Embedded_Voltmeter/Basic WiFi Source/S
    2429 000054 403C          MOV.W     #4113,r12             ; [] |1158| 
         000056 1011 
    2430 000058 01CD          MOVA      SP,r13                ; [] |1158| 
    2431            $C$DW$237       .dwtag  DW_TAG_TI_branch
    2432                    .dwattr $C$DW$237, DW_AT_low_pc(0x00)
    2433                    .dwattr $C$DW$237, DW_AT_name("SimpleLinkWaitEvent")
    2434                    .dwattr $C$DW$237, DW_AT_TI_call
    2435 00005a 13B0!         CALLA     #SimpleLinkWaitEvent  ; [] |1158| 
         00005c 0000 
    2436                                                      ; [] |1158| 
    2437                    .dwpsn  file "C:/Users/409010855/Documents/GitHub/CHARM/Embedded_Voltmeter/Basic WiFi Source/S
MSP430 Assembler PC v4.2.1 Fri Mar 21 13:42:37 2014

Tools Copyright (c) 2003-2013 Texas Instruments Incorporated
C:\Users\409010~1\AppData\Local\Temp\0310410                         PAGE   50

    2438 00005e 416C          MOV.B     0(SP),r12             ; [] |1160| 
    2439 000060 118C          SXT       r12                   ; [] |1160| 
    2440            ;* --------------------------------------------------------------------------*
    2441 000062       $C$L48:    
    2442 000062 5321          ADD.W     #2,SP                 ; [] 
    2443                    .dwcfi  cfa_offset, 16
    2444 000064 1628          POPM.A    #3,r10                ; [] 
    2445                    .dwcfi  restore_reg, 8
    2446                    .dwcfi  restore_reg, 9
    2447                    .dwcfi  restore_reg, 10
    2448                    .dwcfi  cfa_offset, 4
    2449            $C$DW$238       .dwtag  DW_TAG_TI_branch
    2450                    .dwattr $C$DW$238, DW_AT_low_pc(0x00)
    2451                    .dwattr $C$DW$238, DW_AT_TI_return
    2452 000066 0110          RETA      ; [] 
    2453                    ; [] 
    2454                    .dwattr $C$DW$223, DW_AT_TI_end_file("C:/Users/409010855/Documents/GitHub/CHARM/Embedded_Voltm
    2455                    .dwattr $C$DW$223, DW_AT_TI_end_line(0x48a)
    2456                    .dwattr $C$DW$223, DW_AT_TI_end_column(0x01)
    2457                    .dwendentry
    2458                    .dwendtag $C$DW$223
    2459            
    2460 000000               .sect   ".text:listen"
    2461                    .align  2
    2462                    .clink
    2463                    .global listen
    2464            
    2465            $C$DW$239       .dwtag  DW_TAG_subprogram, DW_AT_name("listen")
    2466                    .dwattr $C$DW$239, DW_AT_low_pc(listen)
    2467                    .dwattr $C$DW$239, DW_AT_high_pc(0x00)
    2468                    .dwattr $C$DW$239, DW_AT_TI_symbol_name("listen")
    2469                    .dwattr $C$DW$239, DW_AT_external
    2470                    .dwattr $C$DW$239, DW_AT_type(*$C$DW$T$19)
    2471                    .dwattr $C$DW$239, DW_AT_TI_begin_file("C:/Users/409010855/Documents/GitHub/CHARM/Embedded_Vol
    2472                    .dwattr $C$DW$239, DW_AT_TI_begin_line(0x1a8)
    2473                    .dwattr $C$DW$239, DW_AT_TI_begin_column(0x07)
    2474                    .dwattr $C$DW$239, DW_AT_TI_max_frame_size(0x14)
    2475                    .dwpsn  file "C:/Users/409010855/Documents/GitHub/CHARM/Embedded_Voltmeter/Basic WiFi Source/S
    2476            
    2477                    .dwfde $C$DW$CIE, listen
    2478            $C$DW$240       .dwtag  DW_TAG_formal_parameter, DW_AT_name("sd")
    2479                    .dwattr $C$DW$240, DW_AT_TI_symbol_name("sd")
    2480                    .dwattr $C$DW$240, DW_AT_type(*$C$DW$T$19)
    2481                    .dwattr $C$DW$240, DW_AT_location[DW_OP_reg12 DW_OP_piece 2 DW_OP_reg13 DW_OP_piece 2]
    2482            $C$DW$241       .dwtag  DW_TAG_formal_parameter, DW_AT_name("backlog")
    2483                    .dwattr $C$DW$241, DW_AT_TI_symbol_name("backlog")
    2484                    .dwattr $C$DW$241, DW_AT_type(*$C$DW$T$19)
    2485                    .dwattr $C$DW$241, DW_AT_location[DW_OP_reg14 DW_OP_piece 2 DW_OP_reg15 DW_OP_piece 2]
    2486            
    2487            ;*****************************************************************************
    2488            ;* FUNCTION NAME: listen                                                     *
    2489            ;*                                                                           *
    2490            ;*   Regs Modified     : SP,SR,r8,r9,r10,r11,r12,r13,r14,r15                 *
    2491            ;*   Regs Used         : SP,SR,r8,r9,r10,r11,r12,r13,r14,r15                 *
    2492            ;*   Local Frame Size  : 0 Args + 4 Auto + 12 Save = 16 byte                 *
MSP430 Assembler PC v4.2.1 Fri Mar 21 13:42:37 2014

Tools Copyright (c) 2003-2013 Texas Instruments Incorporated
C:\Users\409010~1\AppData\Local\Temp\0310410                         PAGE   51

    2493            ;*****************************************************************************
    2494            listen:
    2495            ;* --------------------------------------------------------------------------*
    2496            ;* r15   assigned to sd
    2497            $C$DW$242       .dwtag  DW_TAG_variable, DW_AT_name("sd")
    2498                    .dwattr $C$DW$242, DW_AT_TI_symbol_name("sd")
    2499                    .dwattr $C$DW$242, DW_AT_type(*$C$DW$T$139)
    2500                    .dwattr $C$DW$242, DW_AT_location[DW_OP_reg15 DW_OP_piece 2 DW_OP_reg16 DW_OP_piece 2]
    2501            ;* r15   assigned to backlog
    2502            $C$DW$243       .dwtag  DW_TAG_variable, DW_AT_name("backlog")
    2503                    .dwattr $C$DW$243, DW_AT_TI_symbol_name("backlog")
    2504                    .dwattr $C$DW$243, DW_AT_type(*$C$DW$T$139)
    2505                    .dwattr $C$DW$243, DW_AT_location[DW_OP_reg15 DW_OP_piece 2 DW_OP_reg16 DW_OP_piece 2]
    2506            $C$DW$244       .dwtag  DW_TAG_variable, DW_AT_name("ret")
    2507                    .dwattr $C$DW$244, DW_AT_TI_symbol_name("ret")
    2508                    .dwattr $C$DW$244, DW_AT_type(*$C$DW$T$19)
    2509                    .dwattr $C$DW$244, DW_AT_location[DW_OP_breg1 0]
    2510            ;* r8    assigned to ptr
    2511            $C$DW$245       .dwtag  DW_TAG_variable, DW_AT_name("ptr")
    2512                    .dwattr $C$DW$245, DW_AT_TI_symbol_name("ptr")
    2513                    .dwattr $C$DW$245, DW_AT_type(*$C$DW$T$25)
    2514                    .dwattr $C$DW$245, DW_AT_location[DW_OP_reg8]
    2515            ;* r12   assigned to args
    2516            $C$DW$246       .dwtag  DW_TAG_variable, DW_AT_name("args")
    2517                    .dwattr $C$DW$246, DW_AT_TI_symbol_name("args")
    2518                    .dwattr $C$DW$246, DW_AT_type(*$C$DW$T$25)
    2519                    .dwattr $C$DW$246, DW_AT_location[DW_OP_reg12]
    2520                    .dwcfi  cfa_offset, 4
    2521                    .dwcfi  save_reg_to_mem, 16, -4
    2522 000000 142A          PUSHM.A   #3,r10                ; [] 
    2523                    .dwcfi  save_reg_to_mem, 10, -8
    2524                    .dwcfi  save_reg_to_mem, 9, -12
    2525                    .dwcfi  save_reg_to_mem, 8, -16
    2526                    .dwcfi  cfa_offset, 16
    2527 000002 8221          SUB.W     #4,SP                 ; [] 
    2528                    .dwcfi  cfa_offset, 20
    2529 000004 0EC9          MOVA      r14,r9                ; [] |425| 
    2530 000006 0DCE          MOVA      r13,r14               ; [] |425| 
    2531 000008 0FCA          MOVA      r15,r10               ; [] |425| 
    2532 00000a 0CCD          MOVA      r12,r13               ; [] |425| 
    2533                    .dwpsn  file "C:/Users/409010855/Documents/GitHub/CHARM/Embedded_Voltmeter/Basic WiFi Source/S
    2534 00000c 43B1          MOV.W     #-1,0(SP)             ; [] |429| 
         00000e 0000 
    2535 000010 43B1          MOV.W     #-1,2(SP)             ; [] |429| 
         000012 0002 
    2536                    .dwpsn  file "C:/Users/409010855/Documents/GitHub/CHARM/Embedded_Voltmeter/Basic WiFi Source/S
    2537 000014 4218          MOV.W     &tSLInformation+6,r8  ; [] |430| 
         000016 0006!
    2538                    .dwpsn  file "C:/Users/409010855/Documents/GitHub/CHARM/Embedded_Voltmeter/Basic WiFi Source/S
    2539 000018 403C          MOV.W     #9,r12                ; [] |434| 
         00001a 0009 
    2540 00001c 580C          ADD.W     r8,r12                ; [] |434| 
    2541            $C$DW$247       .dwtag  DW_TAG_TI_branch
    2542                    .dwattr $C$DW$247, DW_AT_low_pc(0x00)
    2543                    .dwattr $C$DW$247, DW_AT_name("UINT32_TO_STREAM_f")
MSP430 Assembler PC v4.2.1 Fri Mar 21 13:42:37 2014

Tools Copyright (c) 2003-2013 Texas Instruments Incorporated
C:\Users\409010~1\AppData\Local\Temp\0310410                         PAGE   52

    2544                    .dwattr $C$DW$247, DW_AT_TI_call
    2545 00001e 13B0!         CALLA     #UINT32_TO_STREAM_f   ; [] |434| 
         000020 0000 
    2546                                                      ; [] |434| 
    2547                    .dwpsn  file "C:/Users/409010855/Documents/GitHub/CHARM/Embedded_Voltmeter/Basic WiFi Source/S
    2548 000022 09CD          MOVA      r9,r13                ; [] |435| 
    2549 000024 0ACE          MOVA      r10,r14               ; [] |435| 
    2550            $C$DW$248       .dwtag  DW_TAG_TI_branch
    2551                    .dwattr $C$DW$248, DW_AT_low_pc(0x00)
    2552                    .dwattr $C$DW$248, DW_AT_name("UINT32_TO_STREAM_f")
    2553                    .dwattr $C$DW$248, DW_AT_TI_call
    2554 000026 13B0!         CALLA     #UINT32_TO_STREAM_f   ; [] |435| 
         000028 0000 
    2555                                                      ; [] |435| 
    2556                    .dwpsn  file "C:/Users/409010855/Documents/GitHub/CHARM/Embedded_Voltmeter/Basic WiFi Source/S
    2557 00002a 403C          MOV.W     #4102,r12             ; [] |438| 
         00002c 1006 
    2558 00002e 08CD          MOVA      r8,r13                ; [] |438| 
    2559 000030 427E          MOV.B     #8,r14                ; [] |438| 
    2560            $C$DW$249       .dwtag  DW_TAG_TI_branch
    2561                    .dwattr $C$DW$249, DW_AT_low_pc(0x00)
    2562                    .dwattr $C$DW$249, DW_AT_name("hci_command_send")
    2563                    .dwattr $C$DW$249, DW_AT_TI_call
    2564 000032 13B0!         CALLA     #hci_command_send     ; [] |438| 
         000034 0000 
    2565                                                      ; [] |438| 
    2566                    .dwpsn  file "C:/Users/409010855/Documents/GitHub/CHARM/Embedded_Voltmeter/Basic WiFi Source/S
    2567 000036 403C          MOV.W     #4102,r12             ; [] |442| 
         000038 1006 
    2568 00003a 01CD          MOVA      SP,r13                ; [] |442| 
    2569            $C$DW$250       .dwtag  DW_TAG_TI_branch
    2570                    .dwattr $C$DW$250, DW_AT_low_pc(0x00)
    2571                    .dwattr $C$DW$250, DW_AT_name("SimpleLinkWaitEvent")
    2572                    .dwattr $C$DW$250, DW_AT_TI_call
    2573 00003c 13B0!         CALLA     #SimpleLinkWaitEvent  ; [] |442| 
         00003e 0000 
    2574                                                      ; [] |442| 
    2575                    .dwpsn  file "C:/Users/409010855/Documents/GitHub/CHARM/Embedded_Voltmeter/Basic WiFi Source/S
    2576 000040 41A2          MOV.W     0(SP),&_Errno+0       ; [] |443| 
         000042 0000!
    2577                    .dwpsn  file "C:/Users/409010855/Documents/GitHub/CHARM/Embedded_Voltmeter/Basic WiFi Source/S
    2578 000044 412C          MOV.W     0(SP),r12             ; [] |445| 
    2579 000046 411D          MOV.W     2(SP),r13             ; [] |445| 
         000048 0002 
    2580 00004a 5221          ADD.W     #4,SP                 ; [] 
    2581                    .dwcfi  cfa_offset, 16
    2582 00004c 1628          POPM.A    #3,r10                ; [] 
    2583                    .dwcfi  restore_reg, 8
    2584                    .dwcfi  restore_reg, 9
    2585                    .dwcfi  restore_reg, 10
    2586                    .dwcfi  cfa_offset, 4
    2587            $C$DW$251       .dwtag  DW_TAG_TI_branch
    2588                    .dwattr $C$DW$251, DW_AT_low_pc(0x00)
    2589                    .dwattr $C$DW$251, DW_AT_TI_return
    2590 00004e 0110          RETA      ; [] 
MSP430 Assembler PC v4.2.1 Fri Mar 21 13:42:37 2014

Tools Copyright (c) 2003-2013 Texas Instruments Incorporated
C:\Users\409010~1\AppData\Local\Temp\0310410                         PAGE   53

    2591                    ; [] 
    2592                    .dwattr $C$DW$239, DW_AT_TI_end_file("C:/Users/409010855/Documents/GitHub/CHARM/Embedded_Voltm
    2593                    .dwattr $C$DW$239, DW_AT_TI_end_line(0x1be)
    2594                    .dwattr $C$DW$239, DW_AT_TI_end_column(0x01)
    2595                    .dwendentry
    2596                    .dwendtag $C$DW$239
    2597            
    2598 000000               .sect   ".text:inet_aton"
    2599                    .align  2
    2600                    .clink
    2601                    .global inet_aton
    2602            
    2603            $C$DW$252       .dwtag  DW_TAG_subprogram, DW_AT_name("inet_aton")
    2604                    .dwattr $C$DW$252, DW_AT_low_pc(inet_aton)
    2605                    .dwattr $C$DW$252, DW_AT_high_pc(0x00)
    2606                    .dwattr $C$DW$252, DW_AT_TI_symbol_name("inet_aton")
    2607                    .dwattr $C$DW$252, DW_AT_external
    2608                    .dwattr $C$DW$252, DW_AT_type(*$C$DW$T$29)
    2609                    .dwattr $C$DW$252, DW_AT_TI_begin_file("C:/Users/409010855/Documents/GitHub/CHARM/Embedded_Vol
    2610                    .dwattr $C$DW$252, DW_AT_TI_begin_line(0x152)
    2611                    .dwattr $C$DW$252, DW_AT_TI_begin_column(0x08)
    2612                    .dwattr $C$DW$252, DW_AT_TI_max_frame_size(0x04)
    2613                    .dwpsn  file "C:/Users/409010855/Documents/GitHub/CHARM/Embedded_Voltmeter/Basic WiFi Source/S
    2614            
    2615                    .dwfde $C$DW$CIE, inet_aton
    2616            $C$DW$253       .dwtag  DW_TAG_formal_parameter, DW_AT_name("IpAdd")
    2617                    .dwattr $C$DW$253, DW_AT_TI_symbol_name("IpAdd")
    2618                    .dwattr $C$DW$253, DW_AT_type(*$C$DW$T$87)
    2619                    .dwattr $C$DW$253, DW_AT_location[DW_OP_reg12]
    2620            
    2621            ;*****************************************************************************
    2622            ;* FUNCTION NAME: inet_aton                                                  *
    2623            ;*                                                                           *
    2624            ;*   Regs Modified     : SP,SR,r12,r13,r14,r15                               *
    2625            ;*   Regs Used         : SP,SR,r12,r13,r14,r15                               *
    2626            ;*   Local Frame Size  : 0 Args + 0 Auto + 0 Save = 0 byte                   *
    2627            ;*****************************************************************************
    2628            inet_aton:
    2629            ;* --------------------------------------------------------------------------*
    2630            ;* r15   assigned to IpAdd
    2631            $C$DW$254       .dwtag  DW_TAG_variable, DW_AT_name("IpAdd")
    2632                    .dwattr $C$DW$254, DW_AT_TI_symbol_name("IpAdd")
    2633                    .dwattr $C$DW$254, DW_AT_type(*$C$DW$T$91)
    2634                    .dwattr $C$DW$254, DW_AT_location[DW_OP_reg15]
    2635                    .dwcfi  cfa_offset, 4
    2636                    .dwcfi  save_reg_to_mem, 16, -4
    2637 000000 0CCF          MOVA      r12,r15               ; [] |339| 
    2638                    .dwpsn  file "C:/Users/409010855/Documents/GitHub/CHARM/Embedded_Voltmeter/Basic WiFi Source/S
    2639 000002 4F5C          MOV.B     3(r15),r12            ; [] |346| 
         000004 0003 
    2640 000006 430D          MOV.W     #0,r13                ; [] |346| 
    2641            $C$DW$255       .dwtag  DW_TAG_TI_branch
    2642                    .dwattr $C$DW$255, DW_AT_low_pc(0x00)
    2643                    .dwattr $C$DW$255, DW_AT_name("L_LSL_8")
    2644                    .dwattr $C$DW$255, DW_AT_TI_call
MSP430 Assembler PC v4.2.1 Fri Mar 21 13:42:37 2014

Tools Copyright (c) 2003-2013 Texas Instruments Incorporated
C:\Users\409010~1\AppData\Local\Temp\0310410                         PAGE   54

    2645 000008 13B0!         CALLA     #L_LSL_8              ; [] |346| 
         00000a 0000 
    2646                                                      ; [] |346| 
    2647 00000c 4F5E          MOV.B     2(r15),r14            ; [] |346| 
         00000e 0002 
    2648 000010 DE0C          OR.W      r14,r12               ; [] |346| 
    2649            $C$DW$256       .dwtag  DW_TAG_TI_branch
    2650                    .dwattr $C$DW$256, DW_AT_low_pc(0x00)
    2651                    .dwattr $C$DW$256, DW_AT_name("L_LSL_8")
    2652                    .dwattr $C$DW$256, DW_AT_TI_call
    2653 000012 13B0!         CALLA     #L_LSL_8              ; [] |346| 
         000014 0000 
    2654                                                      ; [] |346| 
    2655 000016 4F5E          MOV.B     1(r15),r14            ; [] |346| 
         000018 0001 
    2656 00001a DE0C          OR.W      r14,r12               ; [] |346| 
    2657            $C$DW$257       .dwtag  DW_TAG_TI_branch
    2658                    .dwattr $C$DW$257, DW_AT_low_pc(0x00)
    2659                    .dwattr $C$DW$257, DW_AT_name("L_LSL_8")
    2660                    .dwattr $C$DW$257, DW_AT_TI_call
    2661 00001c 13B0!         CALLA     #L_LSL_8              ; [] |346| 
         00001e 0000 
    2662                                                      ; [] |346| 
    2663 000020 4F6F          MOV.B     @r15,r15              ; [] |346| 
    2664 000022 DF0C          OR.W      r15,r12               ; [] |346| 
    2665            $C$DW$258       .dwtag  DW_TAG_TI_branch
    2666                    .dwattr $C$DW$258, DW_AT_low_pc(0x00)
    2667                    .dwattr $C$DW$258, DW_AT_TI_return
    2668 000024 0110          RETA      ; [] 
    2669                    ; [] 
    2670                    .dwattr $C$DW$252, DW_AT_TI_end_file("C:/Users/409010855/Documents/GitHub/CHARM/Embedded_Voltm
    2671                    .dwattr $C$DW$252, DW_AT_TI_end_line(0x15b)
    2672                    .dwattr $C$DW$252, DW_AT_TI_end_column(0x01)
    2673                    .dwendentry
    2674                    .dwendtag $C$DW$252
    2675            
    2676 000000               .sect   ".text:getsockopt"
    2677                    .align  2
    2678                    .clink
    2679                    .global getsockopt
    2680            
    2681            $C$DW$259       .dwtag  DW_TAG_subprogram, DW_AT_name("getsockopt")
    2682                    .dwattr $C$DW$259, DW_AT_low_pc(getsockopt)
    2683                    .dwattr $C$DW$259, DW_AT_high_pc(0x00)
    2684                    .dwattr $C$DW$259, DW_AT_TI_symbol_name("getsockopt")
    2685                    .dwattr $C$DW$259, DW_AT_external
    2686                    .dwattr $C$DW$259, DW_AT_type(*$C$DW$T$92)
    2687                    .dwattr $C$DW$259, DW_AT_TI_begin_file("C:/Users/409010855/Documents/GitHub/CHARM/Embedded_Vol
    2688                    .dwattr $C$DW$259, DW_AT_TI_begin_line(0x328)
    2689                    .dwattr $C$DW$259, DW_AT_TI_begin_column(0x07)
    2690                    .dwattr $C$DW$259, DW_AT_TI_max_frame_size(0x26)
    2691                    .dwpsn  file "C:/Users/409010855/Documents/GitHub/CHARM/Embedded_Voltmeter/Basic WiFi Source/S
    2692            
    2693                    .dwfde $C$DW$CIE, getsockopt
    2694            $C$DW$260       .dwtag  DW_TAG_formal_parameter, DW_AT_name("sd")
MSP430 Assembler PC v4.2.1 Fri Mar 21 13:42:37 2014

Tools Copyright (c) 2003-2013 Texas Instruments Incorporated
C:\Users\409010~1\AppData\Local\Temp\0310410                         PAGE   55

    2695                    .dwattr $C$DW$260, DW_AT_TI_symbol_name("sd")
    2696                    .dwattr $C$DW$260, DW_AT_type(*$C$DW$T$19)
    2697                    .dwattr $C$DW$260, DW_AT_location[DW_OP_reg12 DW_OP_piece 2 DW_OP_reg13 DW_OP_piece 2]
    2698            $C$DW$261       .dwtag  DW_TAG_formal_parameter, DW_AT_name("level")
    2699                    .dwattr $C$DW$261, DW_AT_TI_symbol_name("level")
    2700                    .dwattr $C$DW$261, DW_AT_type(*$C$DW$T$19)
    2701                    .dwattr $C$DW$261, DW_AT_location[DW_OP_reg14 DW_OP_piece 2 DW_OP_reg15 DW_OP_piece 2]
    2702            $C$DW$262       .dwtag  DW_TAG_formal_parameter, DW_AT_name("optname")
    2703                    .dwattr $C$DW$262, DW_AT_TI_symbol_name("optname")
    2704                    .dwattr $C$DW$262, DW_AT_type(*$C$DW$T$19)
    2705                    .dwattr $C$DW$262, DW_AT_location[DW_OP_breg1 38]
    2706            $C$DW$263       .dwtag  DW_TAG_formal_parameter, DW_AT_name("optval")
    2707                    .dwattr $C$DW$263, DW_AT_TI_symbol_name("optval")
    2708                    .dwattr $C$DW$263, DW_AT_type(*$C$DW$T$3)
    2709                    .dwattr $C$DW$263, DW_AT_location[DW_OP_breg1 42]
    2710            $C$DW$264       .dwtag  DW_TAG_formal_parameter, DW_AT_name("optlen")
    2711                    .dwattr $C$DW$264, DW_AT_TI_symbol_name("optlen")
    2712                    .dwattr $C$DW$264, DW_AT_type(*$C$DW$T$101)
    2713                    .dwattr $C$DW$264, DW_AT_location[DW_OP_breg1 44]
    2714            
    2715            ;*****************************************************************************
    2716            ;* FUNCTION NAME: getsockopt                                                 *
    2717            ;*                                                                           *
    2718            ;*   Regs Modified     : SP,SR,r4,r5,r6,r7,r8,r9,r10,r11,r12,r13,r14,r15     *
    2719            ;*   Regs Used         : SP,SR,r4,r5,r6,r7,r8,r9,r10,r11,r12,r13,r14,r15     *
    2720            ;*   Local Frame Size  : 0 Args + 6 Auto + 28 Save = 34 byte                 *
    2721            ;*****************************************************************************
    2722            getsockopt:
    2723            ;* --------------------------------------------------------------------------*
    2724            ;* r12   assigned to args
    2725            $C$DW$265       .dwtag  DW_TAG_variable, DW_AT_name("args")
    2726                    .dwattr $C$DW$265, DW_AT_TI_symbol_name("args")
    2727                    .dwattr $C$DW$265, DW_AT_type(*$C$DW$T$25)
    2728                    .dwattr $C$DW$265, DW_AT_location[DW_OP_reg12]
    2729            ;* r8    assigned to ptr
    2730            $C$DW$266       .dwtag  DW_TAG_variable, DW_AT_name("ptr")
    2731                    .dwattr $C$DW$266, DW_AT_TI_symbol_name("ptr")
    2732                    .dwattr $C$DW$266, DW_AT_type(*$C$DW$T$25)
    2733                    .dwattr $C$DW$266, DW_AT_location[DW_OP_reg8]
    2734            ;* r5    assigned to optlen
    2735            $C$DW$267       .dwtag  DW_TAG_variable, DW_AT_name("optlen")
    2736                    .dwattr $C$DW$267, DW_AT_TI_symbol_name("optlen")
    2737                    .dwattr $C$DW$267, DW_AT_type(*$C$DW$T$157)
    2738                    .dwattr $C$DW$267, DW_AT_location[DW_OP_reg5]
    2739            ;* r4    assigned to optval
    2740            $C$DW$268       .dwtag  DW_TAG_variable, DW_AT_name("optval")
    2741                    .dwattr $C$DW$268, DW_AT_TI_symbol_name("optval")
    2742                    .dwattr $C$DW$268, DW_AT_type(*$C$DW$T$74)
    2743                    .dwattr $C$DW$268, DW_AT_location[DW_OP_reg4]
    2744            ;* r6    assigned to optname
    2745            $C$DW$269       .dwtag  DW_TAG_variable, DW_AT_name("optname")
    2746                    .dwattr $C$DW$269, DW_AT_TI_symbol_name("optname")
    2747                    .dwattr $C$DW$269, DW_AT_type(*$C$DW$T$139)
    2748                    .dwattr $C$DW$269, DW_AT_location[DW_OP_reg6 DW_OP_piece 2 DW_OP_reg7 DW_OP_piece 2]
    2749            ;* r15   assigned to level
MSP430 Assembler PC v4.2.1 Fri Mar 21 13:42:37 2014

Tools Copyright (c) 2003-2013 Texas Instruments Incorporated
C:\Users\409010~1\AppData\Local\Temp\0310410                         PAGE   56

    2750            $C$DW$270       .dwtag  DW_TAG_variable, DW_AT_name("level")
    2751                    .dwattr $C$DW$270, DW_AT_TI_symbol_name("level")
    2752                    .dwattr $C$DW$270, DW_AT_type(*$C$DW$T$139)
    2753                    .dwattr $C$DW$270, DW_AT_location[DW_OP_reg15 DW_OP_piece 2 DW_OP_reg16 DW_OP_piece 2]
    2754            ;* r15   assigned to sd
    2755            $C$DW$271       .dwtag  DW_TAG_variable, DW_AT_name("sd")
    2756                    .dwattr $C$DW$271, DW_AT_TI_symbol_name("sd")
    2757                    .dwattr $C$DW$271, DW_AT_type(*$C$DW$T$139)
    2758                    .dwattr $C$DW$271, DW_AT_location[DW_OP_reg15 DW_OP_piece 2 DW_OP_reg16 DW_OP_piece 2]
    2759            ;* r12   assigned to $O$U16
    2760            $C$DW$272       .dwtag  DW_TAG_variable, DW_AT_name("tRetParams")
    2761                    .dwattr $C$DW$272, DW_AT_TI_symbol_name("tRetParams")
    2762                    .dwattr $C$DW$272, DW_AT_type(*$C$DW$T$170)
    2763                    .dwattr $C$DW$272, DW_AT_location[DW_OP_breg1 0]
    2764                    .dwcfi  cfa_offset, 4
    2765                    .dwcfi  save_reg_to_mem, 16, -4
    2766 000000 146A          PUSHM.A   #7,r10                ; [] 
    2767                    .dwcfi  save_reg_to_mem, 10, -8
    2768                    .dwcfi  save_reg_to_mem, 9, -12
    2769                    .dwcfi  save_reg_to_mem, 8, -16
    2770                    .dwcfi  save_reg_to_mem, 7, -20
    2771                    .dwcfi  save_reg_to_mem, 6, -24
    2772                    .dwcfi  save_reg_to_mem, 5, -28
    2773                    .dwcfi  save_reg_to_mem, 4, -32
    2774                    .dwcfi  cfa_offset, 32
    2775 000002 8031          SUB.W     #6,SP                 ; [] 
         000004 0006 
    2776                    .dwcfi  cfa_offset, 38
    2777 000006 0EC9          MOVA      r14,r9                ; [] |809| 
    2778 000008 0DCE          MOVA      r13,r14               ; [] |809| 
    2779 00000a 0FCA          MOVA      r15,r10               ; [] |809| 
    2780 00000c 0CCD          MOVA      r12,r13               ; [] |809| 
    2781 00000e 4115          MOV.W     44(SP),r5             ; [] |809| 
         000010 002C 
    2782 000012 4114          MOV.W     42(SP),r4             ; [] |809| 
         000014 002A 
    2783 000016 4116          MOV.W     38(SP),r6             ; [] |809| 
         000018 0026 
    2784 00001a 4117          MOV.W     40(SP),r7             ; [] |809| 
         00001c 0028 
    2785                    .dwpsn  file "C:/Users/409010855/Documents/GitHub/CHARM/Embedded_Voltmeter/Basic WiFi Source/S
    2786 00001e 4218          MOV.W     &tSLInformation+6,r8  ; [] |813| 
         000020 0006!
    2787                    .dwpsn  file "C:/Users/409010855/Documents/GitHub/CHARM/Embedded_Voltmeter/Basic WiFi Source/S
    2788 000022 403C          MOV.W     #9,r12                ; [] |817| 
         000024 0009 
    2789 000026 580C          ADD.W     r8,r12                ; [] |817| 
    2790            $C$DW$273       .dwtag  DW_TAG_TI_branch
    2791                    .dwattr $C$DW$273, DW_AT_low_pc(0x00)
    2792                    .dwattr $C$DW$273, DW_AT_name("UINT32_TO_STREAM_f")
    2793                    .dwattr $C$DW$273, DW_AT_TI_call
    2794 000028 13B0!         CALLA     #UINT32_TO_STREAM_f   ; [] |817| 
         00002a 0000 
    2795                                                      ; [] |817| 
    2796                    .dwpsn  file "C:/Users/409010855/Documents/GitHub/CHARM/Embedded_Voltmeter/Basic WiFi Source/S
MSP430 Assembler PC v4.2.1 Fri Mar 21 13:42:37 2014

Tools Copyright (c) 2003-2013 Texas Instruments Incorporated
C:\Users\409010~1\AppData\Local\Temp\0310410                         PAGE   57

    2797 00002c 09CD          MOVA      r9,r13                ; [] |818| 
    2798 00002e 0ACE          MOVA      r10,r14               ; [] |818| 
    2799            $C$DW$274       .dwtag  DW_TAG_TI_branch
    2800                    .dwattr $C$DW$274, DW_AT_low_pc(0x00)
    2801                    .dwattr $C$DW$274, DW_AT_name("UINT32_TO_STREAM_f")
    2802                    .dwattr $C$DW$274, DW_AT_TI_call
    2803 000030 13B0!         CALLA     #UINT32_TO_STREAM_f   ; [] |818| 
         000032 0000 
    2804                                                      ; [] |818| 
    2805                    .dwpsn  file "C:/Users/409010855/Documents/GitHub/CHARM/Embedded_Voltmeter/Basic WiFi Source/S
    2806 000034 06CD          MOVA      r6,r13                ; [] |819| 
    2807 000036 07CE          MOVA      r7,r14                ; [] |819| 
    2808            $C$DW$275       .dwtag  DW_TAG_TI_branch
    2809                    .dwattr $C$DW$275, DW_AT_low_pc(0x00)
    2810                    .dwattr $C$DW$275, DW_AT_name("UINT32_TO_STREAM_f")
    2811                    .dwattr $C$DW$275, DW_AT_TI_call
    2812 000038 13B0!         CALLA     #UINT32_TO_STREAM_f   ; [] |819| 
         00003a 0000 
    2813                                                      ; [] |819| 
    2814                    .dwpsn  file "C:/Users/409010855/Documents/GitHub/CHARM/Embedded_Voltmeter/Basic WiFi Source/S
    2815 00003c 403C          MOV.W     #4106,r12             ; [] |822| 
         00003e 100A 
    2816 000040 08CD          MOVA      r8,r13                ; [] |822| 
    2817 000042 407E          MOV.B     #12,r14               ; [] |822| 
         000044 000C 
    2818            $C$DW$276       .dwtag  DW_TAG_TI_branch
    2819                    .dwattr $C$DW$276, DW_AT_low_pc(0x00)
    2820                    .dwattr $C$DW$276, DW_AT_name("hci_command_send")
    2821                    .dwattr $C$DW$276, DW_AT_TI_call
    2822 000046 13B0!         CALLA     #hci_command_send     ; [] |822| 
         000048 0000 
    2823                                                      ; [] |822| 
    2824                    .dwpsn  file "C:/Users/409010855/Documents/GitHub/CHARM/Embedded_Voltmeter/Basic WiFi Source/S
    2825 00004a 403C          MOV.W     #4106,r12             ; [] |826| 
         00004c 100A 
    2826 00004e 01CD          MOVA      SP,r13                ; [] |826| 
    2827            $C$DW$277       .dwtag  DW_TAG_TI_branch
    2828                    .dwattr $C$DW$277, DW_AT_low_pc(0x00)
    2829                    .dwattr $C$DW$277, DW_AT_name("SimpleLinkWaitEvent")
    2830                    .dwattr $C$DW$277, DW_AT_TI_call
    2831 000050 13B0!         CALLA     #SimpleLinkWaitEvent  ; [] |826| 
         000052 0000 
    2832                                                      ; [] |826| 
    2833                    .dwpsn  file "C:/Users/409010855/Documents/GitHub/CHARM/Embedded_Voltmeter/Basic WiFi Source/S
    2834 000054 415C          MOV.B     4(SP),r12             ; [] |828| 
         000056 0004 
    2835 000058 934C          TST.B     r12                   ; [] |828| 
    2836 00005a 380A          JL        $C$L49                ; [] |828| 
    2837                                                      ; [] |828| 
    2838            ;* --------------------------------------------------------------------------*
    2839                    .dwpsn  file "C:/Users/409010855/Documents/GitHub/CHARM/Embedded_Voltmeter/Basic WiFi Source/S
    2840 00005c 1800          MOVX.A    #4,0(r5)              ; [] |830| 
         00005e 42E5 
         000060 0000 
    2841                    .dwpsn  file "C:/Users/409010855/Documents/GitHub/CHARM/Embedded_Voltmeter/Basic WiFi Source/S
MSP430 Assembler PC v4.2.1 Fri Mar 21 13:42:37 2014

Tools Copyright (c) 2003-2013 Texas Instruments Incorporated
C:\Users\409010~1\AppData\Local\Temp\0310410                         PAGE   58

    2842 000062 04CC          MOVA      r4,r12                ; [] |831| 
    2843 000064 01CD          MOVA      SP,r13                ; [] |831| 
    2844 000066 422E          MOV.W     #4,r14                ; [] |831| 
    2845            $C$DW$278       .dwtag  DW_TAG_TI_branch
    2846                    .dwattr $C$DW$278, DW_AT_low_pc(0x00)
    2847                    .dwattr $C$DW$278, DW_AT_name("memcpy")
    2848                    .dwattr $C$DW$278, DW_AT_TI_call
    2849 000068 13B0!         CALLA     #memcpy               ; [] |831| 
         00006a 0000 
    2850                                                      ; [] |831| 
    2851                    .dwpsn  file "C:/Users/409010855/Documents/GitHub/CHARM/Embedded_Voltmeter/Basic WiFi Source/S
    2852 00006c 430C          MOV.W     #0,r12                ; [] |832| 
    2853 00006e 3C04          JMP       $C$L50                ; [] |832| 
    2854                                                      ; [] |832| 
    2855            ;* --------------------------------------------------------------------------*
    2856 000070       $C$L49:    
    2857                    .dwpsn  file "C:/Users/409010855/Documents/GitHub/CHARM/Embedded_Voltmeter/Basic WiFi Source/S
    2858 000070 4C4F          MOV.B     r12,r15               ; [] |836| 
    2859 000072 4F82          MOV.W     r15,&_Errno+0         ; [] |836| 
         000074 0000!
    2860                    .dwpsn  file "C:/Users/409010855/Documents/GitHub/CHARM/Embedded_Voltmeter/Basic WiFi Source/S
    2861 000076 4C4C          MOV.B     r12,r12               ; [] |837| 
    2862            ;* --------------------------------------------------------------------------*
    2863 000078       $C$L50:    
    2864 000078 5031          ADD.W     #6,SP                 ; [] 
         00007a 0006 
    2865                    .dwcfi  cfa_offset, 32
    2866 00007c 1664          POPM.A    #7,r10                ; [] 
    2867                    .dwcfi  restore_reg, 4
    2868                    .dwcfi  restore_reg, 5
    2869                    .dwcfi  restore_reg, 6
    2870                    .dwcfi  restore_reg, 7
    2871                    .dwcfi  restore_reg, 8
    2872                    .dwcfi  restore_reg, 9
    2873                    .dwcfi  restore_reg, 10
    2874                    .dwcfi  cfa_offset, 4
    2875            $C$DW$279       .dwtag  DW_TAG_TI_branch
    2876                    .dwattr $C$DW$279, DW_AT_low_pc(0x00)
    2877                    .dwattr $C$DW$279, DW_AT_TI_return
    2878 00007e 0110          RETA      ; [] 
    2879                    ; [] 
    2880                    .dwattr $C$DW$259, DW_AT_TI_end_file("C:/Users/409010855/Documents/GitHub/CHARM/Embedded_Voltm
    2881                    .dwattr $C$DW$259, DW_AT_TI_end_line(0x347)
    2882                    .dwattr $C$DW$259, DW_AT_TI_end_column(0x01)
    2883                    .dwendentry
    2884                    .dwendtag $C$DW$259
    2885            
    2886 000000               .sect   ".text:getmssvalue"
    2887                    .align  2
    2888                    .clink
    2889                    .global getmssvalue
    2890            
    2891            $C$DW$280       .dwtag  DW_TAG_subprogram, DW_AT_name("getmssvalue")
    2892                    .dwattr $C$DW$280, DW_AT_low_pc(getmssvalue)
    2893                    .dwattr $C$DW$280, DW_AT_high_pc(0x00)
MSP430 Assembler PC v4.2.1 Fri Mar 21 13:42:37 2014

Tools Copyright (c) 2003-2013 Texas Instruments Incorporated
C:\Users\409010~1\AppData\Local\Temp\0310410                         PAGE   59

    2894                    .dwattr $C$DW$280, DW_AT_TI_symbol_name("getmssvalue")
    2895                    .dwattr $C$DW$280, DW_AT_external
    2896                    .dwattr $C$DW$280, DW_AT_type(*$C$DW$T$23)
    2897                    .dwattr $C$DW$280, DW_AT_TI_begin_file("C:/Users/409010855/Documents/GitHub/CHARM/Embedded_Vol
    2898                    .dwattr $C$DW$280, DW_AT_TI_begin_line(0x498)
    2899                    .dwattr $C$DW$280, DW_AT_TI_begin_column(0x08)
    2900                    .dwattr $C$DW$280, DW_AT_TI_max_frame_size(0x0a)
    2901                    .dwpsn  file "C:/Users/409010855/Documents/GitHub/CHARM/Embedded_Voltmeter/Basic WiFi Source/S
    2902            
    2903                    .dwfde $C$DW$CIE, getmssvalue
    2904            $C$DW$281       .dwtag  DW_TAG_formal_parameter, DW_AT_name("sd")
    2905                    .dwattr $C$DW$281, DW_AT_TI_symbol_name("sd")
    2906                    .dwattr $C$DW$281, DW_AT_type(*$C$DW$T$19)
    2907                    .dwattr $C$DW$281, DW_AT_location[DW_OP_reg12 DW_OP_piece 2 DW_OP_reg13 DW_OP_piece 2]
    2908            
    2909            ;*****************************************************************************
    2910            ;* FUNCTION NAME: getmssvalue                                                *
    2911            ;*                                                                           *
    2912            ;*   Regs Modified     : SP,SR,r10,r11,r12,r13,r14,r15                       *
    2913            ;*   Regs Used         : SP,SR,r10,r11,r12,r13,r14,r15                       *
    2914            ;*   Local Frame Size  : 0 Args + 2 Auto + 4 Save = 6 byte                   *
    2915            ;*****************************************************************************
    2916            getmssvalue:
    2917            ;* --------------------------------------------------------------------------*
    2918            ;* r15   assigned to sd
    2919            $C$DW$282       .dwtag  DW_TAG_variable, DW_AT_name("sd")
    2920                    .dwattr $C$DW$282, DW_AT_TI_symbol_name("sd")
    2921                    .dwattr $C$DW$282, DW_AT_type(*$C$DW$T$139)
    2922                    .dwattr $C$DW$282, DW_AT_location[DW_OP_reg15 DW_OP_piece 2 DW_OP_reg16 DW_OP_piece 2]
    2923            ;* r10   assigned to ptr
    2924            $C$DW$283       .dwtag  DW_TAG_variable, DW_AT_name("ptr")
    2925                    .dwattr $C$DW$283, DW_AT_TI_symbol_name("ptr")
    2926                    .dwattr $C$DW$283, DW_AT_type(*$C$DW$T$25)
    2927                    .dwattr $C$DW$283, DW_AT_location[DW_OP_reg10]
    2928            $C$DW$284       .dwtag  DW_TAG_variable, DW_AT_name("ret")
    2929                    .dwattr $C$DW$284, DW_AT_TI_symbol_name("ret")
    2930                    .dwattr $C$DW$284, DW_AT_type(*$C$DW$T$23)
    2931                    .dwattr $C$DW$284, DW_AT_location[DW_OP_breg1 0]
    2932                    .dwcfi  cfa_offset, 4
    2933                    .dwcfi  save_reg_to_mem, 16, -4
    2934 000000 140A          PUSHM.A   #1,r10                ; [] 
    2935                    .dwcfi  save_reg_to_mem, 10, -8
    2936                    .dwcfi  cfa_offset, 8
    2937 000002 8321          SUB.W     #2,SP                 ; [] 
    2938                    .dwcfi  cfa_offset, 10
    2939 000004 0DCE          MOVA      r13,r14               ; [] |1177| 
    2940 000006 0CCD          MOVA      r12,r13               ; [] |1177| 
    2941                    .dwpsn  file "C:/Users/409010855/Documents/GitHub/CHARM/Embedded_Voltmeter/Basic WiFi Source/S
    2942 000008 421A          MOV.W     &tSLInformation+6,r10 ; [] |1181| 
         00000a 0006!
    2943                    .dwpsn  file "C:/Users/409010855/Documents/GitHub/CHARM/Embedded_Voltmeter/Basic WiFi Source/S
    2944 00000c 403C          MOV.W     #9,r12                ; [] |1185| 
         00000e 0009 
    2945 000010 5A0C          ADD.W     r10,r12               ; [] |1185| 
    2946            $C$DW$285       .dwtag  DW_TAG_TI_branch
MSP430 Assembler PC v4.2.1 Fri Mar 21 13:42:37 2014

Tools Copyright (c) 2003-2013 Texas Instruments Incorporated
C:\Users\409010~1\AppData\Local\Temp\0310410                         PAGE   60

    2947                    .dwattr $C$DW$285, DW_AT_low_pc(0x00)
    2948                    .dwattr $C$DW$285, DW_AT_name("UINT32_TO_STREAM_f")
    2949                    .dwattr $C$DW$285, DW_AT_TI_call
    2950 000012 13B0!         CALLA     #UINT32_TO_STREAM_f   ; [] |1185| 
         000014 0000 
    2951                                                      ; [] |1185| 
    2952                    .dwpsn  file "C:/Users/409010855/Documents/GitHub/CHARM/Embedded_Voltmeter/Basic WiFi Source/S
    2953 000016 403C          MOV.W     #4114,r12             ; [] |1188| 
         000018 1012 
    2954 00001a 0ACD          MOVA      r10,r13               ; [] |1188| 
    2955 00001c 426E          MOV.B     #4,r14                ; [] |1188| 
    2956            $C$DW$286       .dwtag  DW_TAG_TI_branch
    2957                    .dwattr $C$DW$286, DW_AT_low_pc(0x00)
    2958                    .dwattr $C$DW$286, DW_AT_name("hci_command_send")
    2959                    .dwattr $C$DW$286, DW_AT_TI_call
    2960 00001e 13B0!         CALLA     #hci_command_send     ; [] |1188| 
         000020 0000 
    2961                                                      ; [] |1188| 
    2962                    .dwpsn  file "C:/Users/409010855/Documents/GitHub/CHARM/Embedded_Voltmeter/Basic WiFi Source/S
    2963 000022 403C          MOV.W     #4114,r12             ; [] |1191| 
         000024 1012 
    2964 000026 01CD          MOVA      SP,r13                ; [] |1191| 
    2965            $C$DW$287       .dwtag  DW_TAG_TI_branch
    2966                    .dwattr $C$DW$287, DW_AT_low_pc(0x00)
    2967                    .dwattr $C$DW$287, DW_AT_name("SimpleLinkWaitEvent")
    2968                    .dwattr $C$DW$287, DW_AT_TI_call
    2969 000028 13B0!         CALLA     #SimpleLinkWaitEvent  ; [] |1191| 
         00002a 0000 
    2970                                                      ; [] |1191| 
    2971                    .dwpsn  file "C:/Users/409010855/Documents/GitHub/CHARM/Embedded_Voltmeter/Basic WiFi Source/S
    2972 00002c 412C          MOV.W     0(SP),r12             ; [] |1193| 
    2973 00002e 5321          ADD.W     #2,SP                 ; [] 
    2974                    .dwcfi  cfa_offset, 8
    2975 000030 160A          POPM.A    #1,r10                ; [] 
    2976                    .dwcfi  restore_reg, 10
    2977                    .dwcfi  cfa_offset, 4
    2978            $C$DW$288       .dwtag  DW_TAG_TI_branch
    2979                    .dwattr $C$DW$288, DW_AT_low_pc(0x00)
    2980                    .dwattr $C$DW$288, DW_AT_TI_return
    2981 000032 0110          RETA      ; [] 
    2982                    ; [] 
    2983                    .dwattr $C$DW$280, DW_AT_TI_end_file("C:/Users/409010855/Documents/GitHub/CHARM/Embedded_Voltm
    2984                    .dwattr $C$DW$280, DW_AT_TI_end_line(0x4aa)
    2985                    .dwattr $C$DW$280, DW_AT_TI_end_column(0x01)
    2986                    .dwendentry
    2987                    .dwendtag $C$DW$280
    2988            
    2989 000000               .sect   ".text:gethostbyname"
    2990                    .align  2
    2991                    .clink
    2992                    .global gethostbyname
    2993            
    2994            $C$DW$289       .dwtag  DW_TAG_subprogram, DW_AT_name("gethostbyname")
    2995                    .dwattr $C$DW$289, DW_AT_low_pc(gethostbyname)
    2996                    .dwattr $C$DW$289, DW_AT_high_pc(0x00)
MSP430 Assembler PC v4.2.1 Fri Mar 21 13:42:37 2014

Tools Copyright (c) 2003-2013 Texas Instruments Incorporated
C:\Users\409010~1\AppData\Local\Temp\0310410                         PAGE   61

    2997                    .dwattr $C$DW$289, DW_AT_TI_symbol_name("gethostbyname")
    2998                    .dwattr $C$DW$289, DW_AT_external
    2999                    .dwattr $C$DW$289, DW_AT_type(*$C$DW$T$92)
    3000                    .dwattr $C$DW$289, DW_AT_TI_begin_file("C:/Users/409010855/Documents/GitHub/CHARM/Embedded_Vol
    3001                    .dwattr $C$DW$289, DW_AT_TI_begin_line(0x1d4)
    3002                    .dwattr $C$DW$289, DW_AT_TI_begin_column(0x07)
    3003                    .dwattr $C$DW$289, DW_AT_TI_max_frame_size(0x1c)
    3004                    .dwpsn  file "C:/Users/409010855/Documents/GitHub/CHARM/Embedded_Voltmeter/Basic WiFi Source/S
    3005            
    3006                    .dwfde $C$DW$CIE, gethostbyname
    3007            $C$DW$290       .dwtag  DW_TAG_formal_parameter, DW_AT_name("hostname")
    3008                    .dwattr $C$DW$290, DW_AT_TI_symbol_name("hostname")
    3009                    .dwattr $C$DW$290, DW_AT_type(*$C$DW$T$28)
    3010                    .dwattr $C$DW$290, DW_AT_location[DW_OP_reg12]
    3011            $C$DW$291       .dwtag  DW_TAG_formal_parameter, DW_AT_name("usNameLen")
    3012                    .dwattr $C$DW$291, DW_AT_TI_symbol_name("usNameLen")
    3013                    .dwattr $C$DW$291, DW_AT_type(*$C$DW$T$23)
    3014                    .dwattr $C$DW$291, DW_AT_location[DW_OP_reg13]
    3015            $C$DW$292       .dwtag  DW_TAG_formal_parameter, DW_AT_name("out_ip_addr")
    3016                    .dwattr $C$DW$292, DW_AT_TI_symbol_name("out_ip_addr")
    3017                    .dwattr $C$DW$292, DW_AT_type(*$C$DW$T$30)
    3018                    .dwattr $C$DW$292, DW_AT_location[DW_OP_reg14]
    3019            
    3020            ;*****************************************************************************
    3021            ;* FUNCTION NAME: gethostbyname                                              *
    3022            ;*                                                                           *
    3023            ;*   Regs Modified     : SP,SR,r7,r8,r9,r10,r11,r12,r13,r14,r15              *
    3024            ;*   Regs Used         : SP,SR,r7,r8,r9,r10,r11,r12,r13,r14,r15              *
    3025            ;*   Local Frame Size  : 0 Args + 8 Auto + 16 Save = 24 byte                 *
    3026            ;*****************************************************************************
    3027            gethostbyname:
    3028            ;* --------------------------------------------------------------------------*
    3029            ;* r12   assigned to $O$y41
    3030            ;* r12   assigned to args
    3031            $C$DW$293       .dwtag  DW_TAG_variable, DW_AT_name("args")
    3032                    .dwattr $C$DW$293, DW_AT_TI_symbol_name("args")
    3033                    .dwattr $C$DW$293, DW_AT_type(*$C$DW$T$25)
    3034                    .dwattr $C$DW$293, DW_AT_location[DW_OP_reg12]
    3035            ;* r7    assigned to ptr
    3036            $C$DW$294       .dwtag  DW_TAG_variable, DW_AT_name("ptr")
    3037                    .dwattr $C$DW$294, DW_AT_TI_symbol_name("ptr")
    3038                    .dwattr $C$DW$294, DW_AT_type(*$C$DW$T$25)
    3039                    .dwattr $C$DW$294, DW_AT_location[DW_OP_reg7]
    3040            ;* r8    assigned to out_ip_addr
    3041            $C$DW$295       .dwtag  DW_TAG_variable, DW_AT_name("out_ip_addr")
    3042                    .dwattr $C$DW$295, DW_AT_TI_symbol_name("out_ip_addr")
    3043                    .dwattr $C$DW$295, DW_AT_type(*$C$DW$T$155)
    3044                    .dwattr $C$DW$295, DW_AT_location[DW_OP_reg8]
    3045            ;* r9    assigned to usNameLen
    3046            $C$DW$296       .dwtag  DW_TAG_variable, DW_AT_name("usNameLen")
    3047                    .dwattr $C$DW$296, DW_AT_TI_symbol_name("usNameLen")
    3048                    .dwattr $C$DW$296, DW_AT_type(*$C$DW$T$113)
    3049                    .dwattr $C$DW$296, DW_AT_location[DW_OP_reg9]
    3050            ;* r10   assigned to hostname
    3051            $C$DW$297       .dwtag  DW_TAG_variable, DW_AT_name("hostname")
MSP430 Assembler PC v4.2.1 Fri Mar 21 13:42:37 2014

Tools Copyright (c) 2003-2013 Texas Instruments Incorporated
C:\Users\409010~1\AppData\Local\Temp\0310410                         PAGE   62

    3052                    .dwattr $C$DW$297, DW_AT_TI_symbol_name("hostname")
    3053                    .dwattr $C$DW$297, DW_AT_type(*$C$DW$T$164)
    3054                    .dwattr $C$DW$297, DW_AT_location[DW_OP_reg10]
    3055            ;* r15   assigned to $O$L1
    3056            ;* r10   assigned to $O$U19
    3057            $C$DW$298       .dwtag  DW_TAG_variable, DW_AT_name("ret")
    3058                    .dwattr $C$DW$298, DW_AT_TI_symbol_name("ret")
    3059                    .dwattr $C$DW$298, DW_AT_type(*$C$DW$T$168)
    3060                    .dwattr $C$DW$298, DW_AT_location[DW_OP_breg1 0]
    3061                    .dwcfi  cfa_offset, 4
    3062                    .dwcfi  save_reg_to_mem, 16, -4
    3063 000000 143A          PUSHM.A   #4,r10                ; [] 
    3064                    .dwcfi  save_reg_to_mem, 10, -8
    3065                    .dwcfi  save_reg_to_mem, 9, -12
    3066                    .dwcfi  save_reg_to_mem, 8, -16
    3067                    .dwcfi  save_reg_to_mem, 7, -20
    3068                    .dwcfi  cfa_offset, 20
    3069 000002 8231          SUB.W     #8,SP                 ; [] 
    3070                    .dwcfi  cfa_offset, 28
    3071 000004 0EC8          MOVA      r14,r8                ; [] |470| 
    3072 000006 0DC9          MOVA      r13,r9                ; [] |470| 
    3073 000008 0CCA          MOVA      r12,r10               ; [] |470| 
    3074                    .dwpsn  file "C:/Users/409010855/Documents/GitHub/CHARM/Embedded_Voltmeter/Basic WiFi Source/S
    3075 00000a 43B2          MOV.W     #-1,&_Errno+0         ; [] |474| 
         00000c 0000!
    3076                    .dwpsn  file "C:/Users/409010855/Documents/GitHub/CHARM/Embedded_Voltmeter/Basic WiFi Source/S
    3077 00000e 9039          CMP.W     #231,r9               ; [] |476| 
         000010 00E7 
    3078 000012 2802          JLO       $C$L51                ; [] |476| 
    3079                                                      ; [] |476| 
    3080            ;* --------------------------------------------------------------------------*
    3081                    .dwpsn  file "C:/Users/409010855/Documents/GitHub/CHARM/Embedded_Voltmeter/Basic WiFi Source/S
    3082 000014 433C          MOV.W     #-1,r12               ; [] |478| 
    3083 000016 3C2A          JMP       $C$L54                ; [] |478| 
    3084                                                      ; [] |478| 
    3085            ;* --------------------------------------------------------------------------*
    3086 000018       $C$L51:    
    3087                    .dwpsn  file "C:/Users/409010855/Documents/GitHub/CHARM/Embedded_Voltmeter/Basic WiFi Source/S
    3088 000018 4217          MOV.W     &tSLInformation+6,r7  ; [] |481| 
         00001a 0006!
    3089                    .dwpsn  file "C:/Users/409010855/Documents/GitHub/CHARM/Embedded_Voltmeter/Basic WiFi Source/S
    3090 00001c 403C          MOV.W     #9,r12                ; [] |485| 
         00001e 0009 
    3091 000020 570C          ADD.W     r7,r12                ; [] |485| 
    3092 000022 423D          MOV.W     #8,r13                ; [] |485| 
    3093 000024 430E          MOV.W     #0,r14                ; [] |485| 
    3094            $C$DW$299       .dwtag  DW_TAG_TI_branch
    3095                    .dwattr $C$DW$299, DW_AT_low_pc(0x00)
    3096                    .dwattr $C$DW$299, DW_AT_name("UINT32_TO_STREAM_f")
    3097                    .dwattr $C$DW$299, DW_AT_TI_call
    3098 000026 13B0!         CALLA     #UINT32_TO_STREAM_f   ; [] |485| 
         000028 0000 
    3099                                                      ; [] |485| 
    3100                    .dwpsn  file "C:/Users/409010855/Documents/GitHub/CHARM/Embedded_Voltmeter/Basic WiFi Source/S
    3101 00002a 09CD          MOVA      r9,r13                ; [] |486| 
MSP430 Assembler PC v4.2.1 Fri Mar 21 13:42:37 2014

Tools Copyright (c) 2003-2013 Texas Instruments Incorporated
C:\Users\409010~1\AppData\Local\Temp\0310410                         PAGE   63

    3102 00002c 430E          MOV.W     #0,r14                ; [] |486| 
    3103            $C$DW$300       .dwtag  DW_TAG_TI_branch
    3104                    .dwattr $C$DW$300, DW_AT_low_pc(0x00)
    3105                    .dwattr $C$DW$300, DW_AT_name("UINT32_TO_STREAM_f")
    3106                    .dwattr $C$DW$300, DW_AT_TI_call
    3107 00002e 13B0!         CALLA     #UINT32_TO_STREAM_f   ; [] |486| 
         000030 0000 
    3108                                                      ; [] |486| 
    3109                    .dwpsn  file "C:/Users/409010855/Documents/GitHub/CHARM/Embedded_Voltmeter/Basic WiFi Source/S
    3110 000032 9309          TST.W     r9                    ; [] |487| 
    3111 000034 2406          JEQ       $C$L53                ; [] |487| 
    3112                                                      ; [] |487| 
    3113            ;* --------------------------------------------------------------------------*
    3114 000036 09CF          MOVA      r9,r15                ; [] |487| 
    3115            ;* --------------------------------------------------------------------------*
    3116            ;*   BEGIN LOOP $C$L52
    3117            ;*
    3118            ;*   Loop source line                : 487
    3119            ;*   Loop closing brace source line  : 487
    3120            ;*   Known Minimum Trip Count        : 1
    3121            ;*   Known Maximum Trip Count        : 230
    3122            ;*   Known Max Trip Count Factor     : 1
    3123            ;* --------------------------------------------------------------------------*
    3124 000038       $C$L52:    
    3125 000038 531C          ADD.W     #1,r12                ; [] |487| 
    3126 00003a 4AFC          MOV.B     @r10+,-1(r12)         ; [] |487| 
         00003c FFFF 
    3127 00003e 831F          SUB.W     #1,r15                ; [] |487| 
    3128 000040 23FB          JNE       $C$L52                ; [] |487| 
    3129                                                      ; [] |487| 
    3130            ;* --------------------------------------------------------------------------*
    3131 000042       $C$L53:    
    3132                    .dwpsn  file "C:/Users/409010855/Documents/GitHub/CHARM/Embedded_Voltmeter/Basic WiFi Source/S
    3133 000042 423E          MOV.W     #8,r14                ; [] |490| 
    3134 000044 594E          ADD.B     r9,r14                ; [] |490| 
    3135 000046 403C          MOV.W     #4112,r12             ; [] |490| 
         000048 1010 
    3136 00004a 07CD          MOVA      r7,r13                ; [] |490| 
    3137            $C$DW$301       .dwtag  DW_TAG_TI_branch
    3138                    .dwattr $C$DW$301, DW_AT_low_pc(0x00)
    3139                    .dwattr $C$DW$301, DW_AT_name("hci_command_send")
    3140                    .dwattr $C$DW$301, DW_AT_TI_call
    3141 00004c 13B0!         CALLA     #hci_command_send     ; [] |490| 
         00004e 0000 
    3142                                                      ; [] |490| 
    3143                    .dwpsn  file "C:/Users/409010855/Documents/GitHub/CHARM/Embedded_Voltmeter/Basic WiFi Source/S
    3144 000050 403C          MOV.W     #4112,r12             ; [] |494| 
         000052 1010 
    3145 000054 01CD          MOVA      SP,r13                ; [] |494| 
    3146            $C$DW$302       .dwtag  DW_TAG_TI_branch
    3147                    .dwattr $C$DW$302, DW_AT_low_pc(0x00)
    3148                    .dwattr $C$DW$302, DW_AT_name("SimpleLinkWaitEvent")
    3149                    .dwattr $C$DW$302, DW_AT_TI_call
    3150 000056 13B0!         CALLA     #SimpleLinkWaitEvent  ; [] |494| 
         000058 0000 
MSP430 Assembler PC v4.2.1 Fri Mar 21 13:42:37 2014

Tools Copyright (c) 2003-2013 Texas Instruments Incorporated
C:\Users\409010~1\AppData\Local\Temp\0310410                         PAGE   64

    3151                                                      ; [] |494| 
    3152                    .dwpsn  file "C:/Users/409010855/Documents/GitHub/CHARM/Embedded_Voltmeter/Basic WiFi Source/S
    3153 00005a 412C          MOV.W     0(SP),r12             ; [] |496| 
    3154 00005c 4C82          MOV.W     r12,&_Errno+0         ; [] |496| 
         00005e 0000!
    3155                    .dwpsn  file "C:/Users/409010855/Documents/GitHub/CHARM/Embedded_Voltmeter/Basic WiFi Source/S
    3156 000060 4198          MOV.W     4(SP),0(r8)           ; [] |498| 
         000062 0004 
         000064 0000 
    3157 000066 4198          MOV.W     6(SP),2(r8)           ; [] |498| 
         000068 0006 
         00006a 0002 
