MSP430 Assembler PC v4.2.1 Fri Mar 21 13:42:39 2014

Tools Copyright (c) 2003-2013 Texas Instruments Incorporated
C:\Users\409010~1\AppData\Local\Temp\0188810                         PAGE    1

       1            ;******************************************************************************
       2            ;* MSP430 C/C++ Codegen                                             PC v4.2.1 *
       3            ;* Date/Time created: Fri Mar 21 13:42:39 2014                                *
       4            ;******************************************************************************
       5                    .compiler_opts --abi=coffabi --hll_source=on --mem_model:code=large --mem_model:data=small --o
       6            
       7            $C$DW$CU        .dwtag  DW_TAG_compile_unit
       8                    .dwattr $C$DW$CU, DW_AT_name("C:/Users/409010855/Documents/GitHub/CHARM/Embedded_Voltmeter/Bas
       9                    .dwattr $C$DW$CU, DW_AT_producer("MSP430 C/C++ Codegen PC v4.2.1 Copyright (c) 2003-2013 Texas
      10                    .dwattr $C$DW$CU, DW_AT_TI_version(0x01)
      11                    .dwattr $C$DW$CU, DW_AT_comp_dir("C:\Users\409010855\Documents\GitHub\CHARM\Embedded_Voltmeter
      12            
      13            $C$DW$1 .dwtag  DW_TAG_subprogram, DW_AT_name("__builtin_strlen")
      14                    .dwattr $C$DW$1, DW_AT_TI_symbol_name("__builtin_strlen")
      15                    .dwattr $C$DW$1, DW_AT_type(*$C$DW$T$11)
      16                    .dwattr $C$DW$1, DW_AT_declaration
      17                    .dwattr $C$DW$1, DW_AT_external
      18            $C$DW$2 .dwtag  DW_TAG_formal_parameter
      19                    .dwattr $C$DW$2, DW_AT_type(*$C$DW$T$119)
      20                    .dwendtag $C$DW$1
      21            
      22            
      23            $C$DW$3 .dwtag  DW_TAG_subprogram, DW_AT_name("strlen")
      24                    .dwattr $C$DW$3, DW_AT_TI_symbol_name("strlen")
      25                    .dwattr $C$DW$3, DW_AT_type(*$C$DW$T$57)
      26                    .dwattr $C$DW$3, DW_AT_declaration
      27                    .dwattr $C$DW$3, DW_AT_external
      28            $C$DW$4 .dwtag  DW_TAG_formal_parameter
      29                    .dwattr $C$DW$4, DW_AT_type(*$C$DW$T$119)
      30                    .dwendtag $C$DW$3
      31            
      32            
      33            $C$DW$5 .dwtag  DW_TAG_subprogram, DW_AT_name("strcpy")
      34                    .dwattr $C$DW$5, DW_AT_TI_symbol_name("strcpy")
      35                    .dwattr $C$DW$5, DW_AT_type(*$C$DW$T$177)
      36                    .dwattr $C$DW$5, DW_AT_declaration
      37                    .dwattr $C$DW$5, DW_AT_external
      38            $C$DW$6 .dwtag  DW_TAG_formal_parameter
      39                    .dwattr $C$DW$6, DW_AT_type(*$C$DW$T$177)
      40            $C$DW$7 .dwtag  DW_TAG_formal_parameter
      41                    .dwattr $C$DW$7, DW_AT_type(*$C$DW$T$119)
      42                    .dwendtag $C$DW$5
      43            
      44            
      45            $C$DW$8 .dwtag  DW_TAG_subprogram, DW_AT_name("memset")
      46                    .dwattr $C$DW$8, DW_AT_TI_symbol_name("memset")
      47                    .dwattr $C$DW$8, DW_AT_type(*$C$DW$T$3)
      48                    .dwattr $C$DW$8, DW_AT_declaration
      49                    .dwattr $C$DW$8, DW_AT_external
      50            $C$DW$9 .dwtag  DW_TAG_formal_parameter
      51                    .dwattr $C$DW$9, DW_AT_type(*$C$DW$T$3)
      52            $C$DW$10        .dwtag  DW_TAG_formal_parameter
      53                    .dwattr $C$DW$10, DW_AT_type(*$C$DW$T$10)
      54            $C$DW$11        .dwtag  DW_TAG_formal_parameter
      55                    .dwattr $C$DW$11, DW_AT_type(*$C$DW$T$57)
MSP430 Assembler PC v4.2.1 Fri Mar 21 13:42:39 2014

Tools Copyright (c) 2003-2013 Texas Instruments Incorporated
C:\Users\409010~1\AppData\Local\Temp\0188810                         PAGE    2

      56                    .dwendtag $C$DW$8
      57            
      58            
      59            $C$DW$12        .dwtag  DW_TAG_subprogram, DW_AT_name("SimpleLinkWaitEvent")
      60                    .dwattr $C$DW$12, DW_AT_TI_symbol_name("SimpleLinkWaitEvent")
      61                    .dwattr $C$DW$12, DW_AT_declaration
      62                    .dwattr $C$DW$12, DW_AT_external
      63            $C$DW$13        .dwtag  DW_TAG_formal_parameter
      64                    .dwattr $C$DW$13, DW_AT_type(*$C$DW$T$19)
      65            $C$DW$14        .dwtag  DW_TAG_formal_parameter
      66                    .dwattr $C$DW$14, DW_AT_type(*$C$DW$T$3)
      67                    .dwendtag $C$DW$12
      68            
      69            
      70            $C$DW$15        .dwtag  DW_TAG_subprogram, DW_AT_name("UINT32_TO_STREAM_f")
      71                    .dwattr $C$DW$15, DW_AT_TI_symbol_name("UINT32_TO_STREAM_f")
      72                    .dwattr $C$DW$15, DW_AT_type(*$C$DW$T$21)
      73                    .dwattr $C$DW$15, DW_AT_declaration
      74                    .dwattr $C$DW$15, DW_AT_external
      75            $C$DW$16        .dwtag  DW_TAG_formal_parameter
      76                    .dwattr $C$DW$16, DW_AT_type(*$C$DW$T$21)
      77            $C$DW$17        .dwtag  DW_TAG_formal_parameter
      78                    .dwattr $C$DW$17, DW_AT_type(*$C$DW$T$25)
      79                    .dwendtag $C$DW$15
      80            
      81            
      82            $C$DW$18        .dwtag  DW_TAG_subprogram, DW_AT_name("UINT16_TO_STREAM_f")
      83                    .dwattr $C$DW$18, DW_AT_TI_symbol_name("UINT16_TO_STREAM_f")
      84                    .dwattr $C$DW$18, DW_AT_type(*$C$DW$T$21)
      85                    .dwattr $C$DW$18, DW_AT_declaration
      86                    .dwattr $C$DW$18, DW_AT_external
      87            $C$DW$19        .dwtag  DW_TAG_formal_parameter
      88                    .dwattr $C$DW$19, DW_AT_type(*$C$DW$T$21)
      89            $C$DW$20        .dwtag  DW_TAG_formal_parameter
      90                    .dwattr $C$DW$20, DW_AT_type(*$C$DW$T$19)
      91                    .dwendtag $C$DW$18
      92            
      93            
      94            $C$DW$21        .dwtag  DW_TAG_subprogram, DW_AT_name("hci_command_send")
      95                    .dwattr $C$DW$21, DW_AT_TI_symbol_name("hci_command_send")
      96                    .dwattr $C$DW$21, DW_AT_type(*$C$DW$T$19)
      97                    .dwattr $C$DW$21, DW_AT_declaration
      98                    .dwattr $C$DW$21, DW_AT_external
      99            $C$DW$22        .dwtag  DW_TAG_formal_parameter
     100                    .dwattr $C$DW$22, DW_AT_type(*$C$DW$T$19)
     101            $C$DW$23        .dwtag  DW_TAG_formal_parameter
     102                    .dwattr $C$DW$23, DW_AT_type(*$C$DW$T$21)
     103            $C$DW$24        .dwtag  DW_TAG_formal_parameter
     104                    .dwattr $C$DW$24, DW_AT_type(*$C$DW$T$20)
     105                    .dwendtag $C$DW$21
     106            
     107            
     108            $C$DW$25        .dwtag  DW_TAG_subprogram, DW_AT_name("SpiOpen")
     109                    .dwattr $C$DW$25, DW_AT_TI_symbol_name("SpiOpen")
     110                    .dwattr $C$DW$25, DW_AT_declaration
MSP430 Assembler PC v4.2.1 Fri Mar 21 13:42:39 2014

Tools Copyright (c) 2003-2013 Texas Instruments Incorporated
C:\Users\409010~1\AppData\Local\Temp\0188810                         PAGE    3

     111                    .dwattr $C$DW$25, DW_AT_external
     112            $C$DW$26        .dwtag  DW_TAG_formal_parameter
     113                    .dwattr $C$DW$26, DW_AT_type(*$C$DW$T$75)
     114                    .dwendtag $C$DW$25
     115            
     116            
     117            $C$DW$27        .dwtag  DW_TAG_subprogram, DW_AT_name("SpiClose")
     118                    .dwattr $C$DW$27, DW_AT_TI_symbol_name("SpiClose")
     119                    .dwattr $C$DW$27, DW_AT_declaration
     120                    .dwattr $C$DW$27, DW_AT_external
     121            
     122            $C$DW$28        .dwtag  DW_TAG_subprogram, DW_AT_name("socket")
     123                    .dwattr $C$DW$28, DW_AT_TI_symbol_name("socket")
     124                    .dwattr $C$DW$28, DW_AT_type(*$C$DW$T$48)
     125                    .dwattr $C$DW$28, DW_AT_declaration
     126                    .dwattr $C$DW$28, DW_AT_external
     127            $C$DW$29        .dwtag  DW_TAG_formal_parameter
     128                    .dwattr $C$DW$29, DW_AT_type(*$C$DW$T$32)
     129            $C$DW$30        .dwtag  DW_TAG_formal_parameter
     130                    .dwattr $C$DW$30, DW_AT_type(*$C$DW$T$32)
     131            $C$DW$31        .dwtag  DW_TAG_formal_parameter
     132                    .dwattr $C$DW$31, DW_AT_type(*$C$DW$T$32)
     133                    .dwendtag $C$DW$28
     134            
     135            
     136            $C$DW$32        .dwtag  DW_TAG_subprogram, DW_AT_name("inet_aton")
     137                    .dwattr $C$DW$32, DW_AT_TI_symbol_name("inet_aton")
     138                    .dwattr $C$DW$32, DW_AT_type(*$C$DW$T$25)
     139                    .dwattr $C$DW$32, DW_AT_declaration
     140                    .dwattr $C$DW$32, DW_AT_external
     141            $C$DW$33        .dwtag  DW_TAG_formal_parameter
     142                    .dwattr $C$DW$33, DW_AT_type(*$C$DW$T$88)
     143                    .dwendtag $C$DW$32
     144            
     145            
     146            $C$DW$34        .dwtag  DW_TAG_subprogram, DW_AT_name("connect")
     147                    .dwattr $C$DW$34, DW_AT_TI_symbol_name("connect")
     148                    .dwattr $C$DW$34, DW_AT_type(*$C$DW$T$32)
     149                    .dwattr $C$DW$34, DW_AT_declaration
     150                    .dwattr $C$DW$34, DW_AT_external
     151            $C$DW$35        .dwtag  DW_TAG_formal_parameter
     152                    .dwattr $C$DW$35, DW_AT_type(*$C$DW$T$32)
     153            $C$DW$36        .dwtag  DW_TAG_formal_parameter
     154                    .dwattr $C$DW$36, DW_AT_type(*$C$DW$T$131)
     155            $C$DW$37        .dwtag  DW_TAG_formal_parameter
     156                    .dwattr $C$DW$37, DW_AT_type(*$C$DW$T$32)
     157                    .dwendtag $C$DW$34
     158            
     159            
     160            $C$DW$38        .dwtag  DW_TAG_subprogram, DW_AT_name("nvmem_read")
     161                    .dwattr $C$DW$38, DW_AT_TI_symbol_name("nvmem_read")
     162                    .dwattr $C$DW$38, DW_AT_type(*$C$DW$T$32)
     163                    .dwattr $C$DW$38, DW_AT_declaration
     164                    .dwattr $C$DW$38, DW_AT_external
     165            $C$DW$39        .dwtag  DW_TAG_formal_parameter
MSP430 Assembler PC v4.2.1 Fri Mar 21 13:42:39 2014

Tools Copyright (c) 2003-2013 Texas Instruments Incorporated
C:\Users\409010~1\AppData\Local\Temp\0188810                         PAGE    4

     166                    .dwattr $C$DW$39, DW_AT_type(*$C$DW$T$25)
     167            $C$DW$40        .dwtag  DW_TAG_formal_parameter
     168                    .dwattr $C$DW$40, DW_AT_type(*$C$DW$T$25)
     169            $C$DW$41        .dwtag  DW_TAG_formal_parameter
     170                    .dwattr $C$DW$41, DW_AT_type(*$C$DW$T$25)
     171            $C$DW$42        .dwtag  DW_TAG_formal_parameter
     172                    .dwattr $C$DW$42, DW_AT_type(*$C$DW$T$21)
     173                    .dwendtag $C$DW$38
     174            
     175            
     176            $C$DW$43        .dwtag  DW_TAG_subprogram, DW_AT_name("aes_decrypt")
     177                    .dwattr $C$DW$43, DW_AT_TI_symbol_name("aes_decrypt")
     178                    .dwattr $C$DW$43, DW_AT_declaration
     179                    .dwattr $C$DW$43, DW_AT_external
     180            $C$DW$44        .dwtag  DW_TAG_formal_parameter
     181                    .dwattr $C$DW$44, DW_AT_type(*$C$DW$T$21)
     182            $C$DW$45        .dwtag  DW_TAG_formal_parameter
     183                    .dwattr $C$DW$45, DW_AT_type(*$C$DW$T$21)
     184                    .dwendtag $C$DW$43
     185            
     186            
     187            $C$DW$46        .dwtag  DW_TAG_subprogram, DW_AT_name("aes_read_key")
     188                    .dwattr $C$DW$46, DW_AT_TI_symbol_name("aes_read_key")
     189                    .dwattr $C$DW$46, DW_AT_type(*$C$DW$T$32)
     190                    .dwattr $C$DW$46, DW_AT_declaration
     191                    .dwattr $C$DW$46, DW_AT_external
     192            $C$DW$47        .dwtag  DW_TAG_formal_parameter
     193                    .dwattr $C$DW$47, DW_AT_type(*$C$DW$T$21)
     194                    .dwendtag $C$DW$46
     195            
     196            
     197            $C$DW$48        .dwtag  DW_TAG_subprogram, DW_AT_name("hci_unsolicited_event_handler")
     198                    .dwattr $C$DW$48, DW_AT_TI_symbol_name("hci_unsolicited_event_handler")
     199                    .dwattr $C$DW$48, DW_AT_type(*$C$DW$T$32)
     200                    .dwattr $C$DW$48, DW_AT_declaration
     201                    .dwattr $C$DW$48, DW_AT_external
     202            $C$DW$49        .dwtag  DW_TAG_variable, DW_AT_name("_Errno")
     203                    .dwattr $C$DW$49, DW_AT_TI_symbol_name("_Errno")
     204                    .dwattr $C$DW$49, DW_AT_type(*$C$DW$T$10)
     205                    .dwattr $C$DW$49, DW_AT_declaration
     206                    .dwattr $C$DW$49, DW_AT_external
     207            $C$DW$50        .dwtag  DW_TAG_variable, DW_AT_name("wlan_tx_buffer")
     208                    .dwattr $C$DW$50, DW_AT_TI_symbol_name("wlan_tx_buffer")
     209                    .dwattr $C$DW$50, DW_AT_type(*$C$DW$T$99)
     210                    .dwattr $C$DW$50, DW_AT_declaration
     211                    .dwattr $C$DW$50, DW_AT_external
     212                    .global tSLInformation
     213 000000               .bss    tSLInformation,62,2
     214            $C$DW$51        .dwtag  DW_TAG_variable, DW_AT_name("tSLInformation")
     215                    .dwattr $C$DW$51, DW_AT_TI_symbol_name("tSLInformation")
     216                    .dwattr $C$DW$51, DW_AT_location[DW_OP_addr tSLInformation]
     217                    .dwattr $C$DW$51, DW_AT_type(*$C$DW$T$56)
     218                    .dwattr $C$DW$51, DW_AT_external
     219            $C$DW$52        .dwtag  DW_TAG_variable, DW_AT_name("ulSocket")
     220                    .dwattr $C$DW$52, DW_AT_TI_symbol_name("ulSocket")
MSP430 Assembler PC v4.2.1 Fri Mar 21 13:42:39 2014

Tools Copyright (c) 2003-2013 Texas Instruments Incorporated
C:\Users\409010~1\AppData\Local\Temp\0188810                         PAGE    5

     221                    .dwattr $C$DW$52, DW_AT_type(*$C$DW$T$142)
     222                    .dwattr $C$DW$52, DW_AT_declaration
     223                    .dwattr $C$DW$52, DW_AT_external
     224                    .global key
     225 00003e               .bss    key,16,2
     226            $C$DW$53        .dwtag  DW_TAG_variable, DW_AT_name("key")
     227                    .dwattr $C$DW$53, DW_AT_TI_symbol_name("key")
     228                    .dwattr $C$DW$53, DW_AT_location[DW_OP_addr key]
     229                    .dwattr $C$DW$53, DW_AT_type(*$C$DW$T$85)
     230                    .dwattr $C$DW$53, DW_AT_external
     231                    .global profileArray
     232 00004e               .bss    profileArray,68,2
     233            $C$DW$54        .dwtag  DW_TAG_variable, DW_AT_name("profileArray")
     234                    .dwattr $C$DW$54, DW_AT_TI_symbol_name("profileArray")
     235                    .dwattr $C$DW$54, DW_AT_location[DW_OP_addr profileArray]
     236                    .dwattr $C$DW$54, DW_AT_type(*$C$DW$T$86)
     237                    .dwattr $C$DW$54, DW_AT_external
     238 000000               .sect   ".const:.string:$P$T0$1"
     239                    .clink
     240                    .align  2
     241 000000       $P$T0$1:
     242 000000 00C0          .bits   192,8                   ; $P$T0$1[0] @ 0
     243 000000 A8C0          .bits   168,8                   ; $P$T0$1[1] @ 8
     244 000002 0001          .bits   1,8                     ; $P$T0$1[2] @ 16
     245 000002 7101          .bits   113,8                   ; $P$T0$1[3] @ 24
     246            
     247            $C$DW$55        .dwtag  DW_TAG_variable, DW_AT_name("$P$T0$1")
     248                    .dwattr $C$DW$55, DW_AT_TI_symbol_name("$P$T0$1")
     249                    .dwattr $C$DW$55, DW_AT_type(*$C$DW$T$102)
     250                    .dwattr $C$DW$55, DW_AT_location[DW_OP_addr $P$T0$1]
     251            ;       C:\ti\ccsv5\tools\compiler\msp430_4.2.1\bin\opt430.exe C:\\Users\\409010~1\\AppData\\Local\\Te
     252 000000               .sect   ".text:SpiReceiveHandler"
     253                    .align  2
     254                    .clink
     255                    .global SpiReceiveHandler
     256            
     257            $C$DW$56        .dwtag  DW_TAG_subprogram, DW_AT_name("SpiReceiveHandler")
     258                    .dwattr $C$DW$56, DW_AT_low_pc(SpiReceiveHandler)
     259                    .dwattr $C$DW$56, DW_AT_high_pc(0x00)
     260                    .dwattr $C$DW$56, DW_AT_TI_symbol_name("SpiReceiveHandler")
     261                    .dwattr $C$DW$56, DW_AT_external
     262                    .dwattr $C$DW$56, DW_AT_TI_begin_file("C:/Users/409010855/Documents/GitHub/CHARM/Embedded_Volt
     263                    .dwattr $C$DW$56, DW_AT_TI_begin_line(0x11e)
     264                    .dwattr $C$DW$56, DW_AT_TI_begin_column(0x06)
     265                    .dwattr $C$DW$56, DW_AT_TI_max_frame_size(0x04)
     266                    .dwpsn  file "C:/Users/409010855/Documents/GitHub/CHARM/Embedded_Voltmeter/Basic WiFi Source/S
     267            
     268                    .dwfde $C$DW$CIE, SpiReceiveHandler
     269            $C$DW$57        .dwtag  DW_TAG_formal_parameter, DW_AT_name("pvBuffer")
     270                    .dwattr $C$DW$57, DW_AT_TI_symbol_name("pvBuffer")
     271                    .dwattr $C$DW$57, DW_AT_type(*$C$DW$T$3)
     272                    .dwattr $C$DW$57, DW_AT_location[DW_OP_reg12]
     273            
     274            ;*****************************************************************************
     275            ;* FUNCTION NAME: SpiReceiveHandler                                          *
MSP430 Assembler PC v4.2.1 Fri Mar 21 13:42:39 2014

Tools Copyright (c) 2003-2013 Texas Instruments Incorporated
C:\Users\409010~1\AppData\Local\Temp\0188810                         PAGE    6

     276            ;*                                                                           *
     277            ;*   Regs Modified     : SR,r11,r12,r13,r14,r15                              *
     278            ;*   Regs Used         : SR,r11,r12,r13,r14,r15                              *
     279            ;*   Local Frame Size  : 0 Args + 0 Auto + 0 Save = 0 byte                   *
     280            ;*****************************************************************************
     281            SpiReceiveHandler:
     282            ;* --------------------------------------------------------------------------*
     283            ;* r12   assigned to pvBuffer
     284            $C$DW$58        .dwtag  DW_TAG_variable, DW_AT_name("pvBuffer")
     285                    .dwattr $C$DW$58, DW_AT_TI_symbol_name("pvBuffer")
     286                    .dwattr $C$DW$58, DW_AT_type(*$C$DW$T$60)
     287                    .dwattr $C$DW$58, DW_AT_location[DW_OP_reg12]
     288                    .dwcfi  cfa_offset, 4
     289                    .dwcfi  save_reg_to_mem, 16, -4
     290                    .dwpsn  file "C:/Users/409010855/Documents/GitHub/CHARM/Embedded_Voltmeter/Basic WiFi Source/S
     291 000000 4392          MOV.W     #1,&tSLInformation+2  ; [] |288| 
         000002 0002!
     292                    .dwpsn  file "C:/Users/409010855/Documents/GitHub/CHARM/Embedded_Voltmeter/Basic WiFi Source/S
     293 000004 4C82          MOV.W     r12,&tSLInformation+4 ; [] |289| 
         000006 0004!
     294                    .dwpsn  file "C:/Users/409010855/Documents/GitHub/CHARM/Embedded_Voltmeter/Basic WiFi Source/S
     295            $C$DW$59        .dwtag  DW_TAG_TI_branch
     296                    .dwattr $C$DW$59, DW_AT_low_pc(0x00)
     297                    .dwattr $C$DW$59, DW_AT_name("hci_unsolicited_event_handler")
     298                    .dwattr $C$DW$59, DW_AT_TI_call
     299                    .dwattr $C$DW$59, DW_AT_TI_return
     300 000008 0080!         MOVX.A    #hci_unsolicited_event_handler,PC ; [] |291| 
         00000a 0000 
     301                                                      ; [] |291| 
     302                    .dwattr $C$DW$56, DW_AT_TI_end_file("C:/Users/409010855/Documents/GitHub/CHARM/Embedded_Voltme
     303                    .dwattr $C$DW$56, DW_AT_TI_end_line(0x124)
     304                    .dwattr $C$DW$56, DW_AT_TI_end_column(0x01)
     305                    .dwendentry
     306                    .dwendtag $C$DW$56
     307            
     308 000000               .sect   ".text:wlan_stop"
     309                    .align  2
     310                    .clink
     311                    .global wlan_stop
     312            
     313            $C$DW$60        .dwtag  DW_TAG_subprogram, DW_AT_name("wlan_stop")
     314                    .dwattr $C$DW$60, DW_AT_low_pc(wlan_stop)
     315                    .dwattr $C$DW$60, DW_AT_high_pc(0x00)
     316                    .dwattr $C$DW$60, DW_AT_TI_symbol_name("wlan_stop")
     317                    .dwattr $C$DW$60, DW_AT_external
     318                    .dwattr $C$DW$60, DW_AT_TI_begin_file("C:/Users/409010855/Documents/GitHub/CHARM/Embedded_Volt
     319                    .dwattr $C$DW$60, DW_AT_TI_begin_line(0x187)
     320                    .dwattr $C$DW$60, DW_AT_TI_begin_column(0x06)
     321                    .dwattr $C$DW$60, DW_AT_TI_max_frame_size(0x04)
     322                    .dwpsn  file "C:/Users/409010855/Documents/GitHub/CHARM/Embedded_Voltmeter/Basic WiFi Source/S
     323            
     324                    .dwfde $C$DW$CIE, wlan_stop
     325            
     326            ;*****************************************************************************
     327            ;* FUNCTION NAME: wlan_stop                                                  *
MSP430 Assembler PC v4.2.1 Fri Mar 21 13:42:39 2014

Tools Copyright (c) 2003-2013 Texas Instruments Incorporated
C:\Users\409010~1\AppData\Local\Temp\0188810                         PAGE    7

     328            ;*                                                                           *
     329            ;*   Regs Modified     : SR,r11,r12,r13,r14,r15                              *
     330            ;*   Regs Used         : SR,r11,r12,r13,r14,r15                              *
     331            ;*   Local Frame Size  : 0 Args + 0 Auto + 0 Save = 0 byte                   *
     332            ;*****************************************************************************
     333 000000       wlan_stop:
     334            ;* --------------------------------------------------------------------------*
     335                    .dwcfi  cfa_offset, 4
     336                    .dwcfi  save_reg_to_mem, 16, -4
     337                    .dwpsn  file "C:/Users/409010855/Documents/GitHub/CHARM/Embedded_Voltmeter/Basic WiFi Source/S
     338 000000 434C          MOV.B     #0,r12                ; [] |394| 
     339            $C$DW$61        .dwtag  DW_TAG_TI_branch
     340                    .dwattr $C$DW$61, DW_AT_low_pc(0x00)
     341                    .dwattr $C$DW$61, DW_AT_TI_call
     342                    .dwattr $C$DW$61, DW_AT_TI_indirect
     343 000002 1380!         CALLA     &tSLInformation+36    ; [] |394| 
         000004 0024 
     344                                                      ; [] |394| 
     345            ;* --------------------------------------------------------------------------*
     346            ;*   BEGIN LOOP $C$L1
     347            ;*
     348            ;*   Loop source line                : 397
     349            ;*   Loop closing brace source line  : 399
     350            ;*   Known Minimum Trip Count        : 1
     351            ;*   Known Maximum Trip Count        : 4294967295
     352            ;*   Known Max Trip Count Factor     : 1
     353            ;* --------------------------------------------------------------------------*
     354 000006       $C$L1:    
     355                    .dwpsn  file "C:/Users/409010855/Documents/GitHub/CHARM/Embedded_Voltmeter/Basic WiFi Source/S
     356            $C$DW$62        .dwtag  DW_TAG_TI_branch
     357                    .dwattr $C$DW$62, DW_AT_low_pc(0x00)
     358                    .dwattr $C$DW$62, DW_AT_TI_call
     359                    .dwattr $C$DW$62, DW_AT_TI_indirect
     360 000006 1380!         CALLA     &tSLInformation+24    ; [] |397| 
         000008 0018 
     361                                                      ; [] |397| 
     362 00000a 930D          TST.W     r13                   ; [] |397| 
     363 00000c 2002          JNE       $C$L2                 ; [] |397| 
     364                                                      ; [] |397| 
     365            ;* --------------------------------------------------------------------------*
     366 00000e 930C          TST.W     r12                   ; [] |397| 
     367 000010 27FA          JEQ       $C$L1                 ; [] |397| 
     368                                                      ; [] |397| 
     369            ;* --------------------------------------------------------------------------*
     370 000012       $C$L2:    
     371                    .dwpsn  file "C:/Users/409010855/Documents/GitHub/CHARM/Embedded_Voltmeter/Basic WiFi Source/S
     372 000012 9382          TST.W     &tSLInformation+6     ; [] |402| 
         000014 0006!
     373 000016 2402          JEQ       $C$L3                 ; [] |402| 
     374                                                      ; [] |402| 
     375            ;* --------------------------------------------------------------------------*
     376                    .dwpsn  file "C:/Users/409010855/Documents/GitHub/CHARM/Embedded_Voltmeter/Basic WiFi Source/S
     377 000018 4382          MOV.W     #0,&tSLInformation+6  ; [] |404| 
         00001a 0006!
     378            ;* --------------------------------------------------------------------------*
MSP430 Assembler PC v4.2.1 Fri Mar 21 13:42:39 2014

Tools Copyright (c) 2003-2013 Texas Instruments Incorporated
C:\Users\409010~1\AppData\Local\Temp\0188810                         PAGE    8

     379 00001c       $C$L3:    
     380                    .dwpsn  file "C:/Users/409010855/Documents/GitHub/CHARM/Embedded_Voltmeter/Basic WiFi Source/S
     381            $C$DW$63        .dwtag  DW_TAG_TI_branch
     382                    .dwattr $C$DW$63, DW_AT_low_pc(0x00)
     383                    .dwattr $C$DW$63, DW_AT_name("SpiClose")
     384                    .dwattr $C$DW$63, DW_AT_TI_call
     385                    .dwattr $C$DW$63, DW_AT_TI_return
     386 00001c 0080!         MOVX.A    #SpiClose,PC          ; [] |407| 
         00001e 0000 
     387                                                      ; [] |407| 
     388                    .dwattr $C$DW$60, DW_AT_TI_end_file("C:/Users/409010855/Documents/GitHub/CHARM/Embedded_Voltme
     389                    .dwattr $C$DW$60, DW_AT_TI_end_line(0x198)
     390                    .dwattr $C$DW$60, DW_AT_TI_end_column(0x01)
     391                    .dwendentry
     392                    .dwendtag $C$DW$60
     393            
     394 000000               .sect   ".text:wlan_start"
     395                    .align  2
     396                    .clink
     397                    .global wlan_start
     398            
     399            $C$DW$64        .dwtag  DW_TAG_subprogram, DW_AT_name("wlan_start")
     400                    .dwattr $C$DW$64, DW_AT_low_pc(wlan_start)
     401                    .dwattr $C$DW$64, DW_AT_high_pc(0x00)
     402                    .dwattr $C$DW$64, DW_AT_TI_symbol_name("wlan_start")
     403                    .dwattr $C$DW$64, DW_AT_external
     404                    .dwattr $C$DW$64, DW_AT_TI_begin_file("C:/Users/409010855/Documents/GitHub/CHARM/Embedded_Volt
     405                    .dwattr $C$DW$64, DW_AT_TI_begin_line(0x142)
     406                    .dwattr $C$DW$64, DW_AT_TI_begin_column(0x06)
     407                    .dwattr $C$DW$64, DW_AT_TI_max_frame_size(0x10)
     408                    .dwpsn  file "C:/Users/409010855/Documents/GitHub/CHARM/Embedded_Voltmeter/Basic WiFi Source/S
     409            
     410                    .dwfde $C$DW$CIE, wlan_start
     411            $C$DW$65        .dwtag  DW_TAG_formal_parameter, DW_AT_name("usPatchesAvailableAtHost")
     412                    .dwattr $C$DW$65, DW_AT_TI_symbol_name("usPatchesAvailableAtHost")
     413                    .dwattr $C$DW$65, DW_AT_type(*$C$DW$T$19)
     414                    .dwattr $C$DW$65, DW_AT_location[DW_OP_reg12]
     415            
     416            ;*****************************************************************************
     417            ;* FUNCTION NAME: wlan_start                                                 *
     418            ;*                                                                           *
     419            ;*   Regs Modified     : SP,SR,r8,r9,r10,r11,r12,r13,r14,r15                 *
     420            ;*   Regs Used         : SP,SR,r8,r9,r10,r11,r12,r13,r14,r15                 *
     421            ;*   Local Frame Size  : 0 Args + 0 Auto + 12 Save = 12 byte                 *
     422            ;*****************************************************************************
     423            wlan_start:
     424            ;* --------------------------------------------------------------------------*
     425            ;* r13   assigned to ptr
     426            $C$DW$66        .dwtag  DW_TAG_variable, DW_AT_name("ptr")
     427                    .dwattr $C$DW$66, DW_AT_TI_symbol_name("ptr")
     428                    .dwattr $C$DW$66, DW_AT_type(*$C$DW$T$21)
     429                    .dwattr $C$DW$66, DW_AT_location[DW_OP_reg13]
     430            ;* r15   assigned to args
     431            $C$DW$67        .dwtag  DW_TAG_variable, DW_AT_name("args")
     432                    .dwattr $C$DW$67, DW_AT_TI_symbol_name("args")
MSP430 Assembler PC v4.2.1 Fri Mar 21 13:42:39 2014

Tools Copyright (c) 2003-2013 Texas Instruments Incorporated
C:\Users\409010~1\AppData\Local\Temp\0188810                         PAGE    9

     433                    .dwattr $C$DW$67, DW_AT_type(*$C$DW$T$21)
     434                    .dwattr $C$DW$67, DW_AT_location[DW_OP_reg15]
     435            ;* r14   assigned to $O$S1
     436            ;* r8    assigned to ulSpiIRQState
     437            $C$DW$68        .dwtag  DW_TAG_variable, DW_AT_name("ulSpiIRQState")
     438                    .dwattr $C$DW$68, DW_AT_TI_symbol_name("ulSpiIRQState")
     439                    .dwattr $C$DW$68, DW_AT_type(*$C$DW$T$25)
     440                    .dwattr $C$DW$68, DW_AT_location[DW_OP_reg8 DW_OP_piece 2 DW_OP_reg9 DW_OP_piece 2]
     441            ;* r10   assigned to usPatchesAvailableAtHost
     442            $C$DW$69        .dwtag  DW_TAG_variable, DW_AT_name("usPatchesAvailableAtHost")
     443                    .dwattr $C$DW$69, DW_AT_TI_symbol_name("usPatchesAvailableAtHost")
     444                    .dwattr $C$DW$69, DW_AT_type(*$C$DW$T$113)
     445                    .dwattr $C$DW$69, DW_AT_location[DW_OP_reg10]
     446                    .dwcfi  cfa_offset, 4
     447                    .dwcfi  save_reg_to_mem, 16, -4
     448 000000 142A          PUSHM.A   #3,r10                ; [] 
     449                    .dwcfi  save_reg_to_mem, 10, -8
     450                    .dwcfi  save_reg_to_mem, 9, -12
     451                    .dwcfi  save_reg_to_mem, 8, -16
     452                    .dwcfi  cfa_offset, 16
     453 000002 0CCA          MOVA      r12,r10               ; [] |323| 
     454                    .dwpsn  file "C:/Users/409010855/Documents/GitHub/CHARM/Embedded_Voltmeter/Basic WiFi Source/S
     455 000004 1800!         MOVX.A    #0,&tSLInformation+52 ; [] |327| 
         000006 43C2 
         000008 0034 
     456                    .dwpsn  file "C:/Users/409010855/Documents/GitHub/CHARM/Embedded_Voltmeter/Basic WiFi Source/S
     457 00000a 1800!         MOVX.A    #0,&tSLInformation+56 ; [] |328| 
         00000c 43C2 
         00000e 0038 
     458                    .dwpsn  file "C:/Users/409010855/Documents/GitHub/CHARM/Embedded_Voltmeter/Basic WiFi Source/S
     459 000010 4382          MOV.W     #0,&tSLInformation+0  ; [] |329| 
         000012 0000!
     460                    .dwpsn  file "C:/Users/409010855/Documents/GitHub/CHARM/Embedded_Voltmeter/Basic WiFi Source/S
     461 000014 4382          MOV.W     #0,&tSLInformation+44 ; [] |330| 
         000016 002C!
     462                    .dwpsn  file "C:/Users/409010855/Documents/GitHub/CHARM/Embedded_Voltmeter/Basic WiFi Source/S
     463 000018 4382          MOV.W     #0,&tSLInformation+46 ; [] |331| 
         00001a 002E!
     464                    .dwpsn  file "C:/Users/409010855/Documents/GitHub/CHARM/Embedded_Voltmeter/Basic WiFi Source/S
     465 00001c 4382          MOV.W     #0,&tSLInformation+48 ; [] |332| 
         00001e 0030!
     466                    .dwpsn  file "C:/Users/409010855/Documents/GitHub/CHARM/Embedded_Voltmeter/Basic WiFi Source/S
     467 000020 4382          MOV.W     #0,&tSLInformation+50 ; [] |333| 
         000022 0032!
     468                    .dwpsn  file "C:/Users/409010855/Documents/GitHub/CHARM/Embedded_Voltmeter/Basic WiFi Source/S
     469 000024 1800!         MOVX.A    #0,&tSLInformation+40 ; [] |334| 
         000026 43C2 
         000028 0028 
     470                    .dwpsn  file "C:/Users/409010855/Documents/GitHub/CHARM/Embedded_Voltmeter/Basic WiFi Source/S
     471 00002a 4382          MOV.W     #0,&tSLInformation+2  ; [] |335| 
         00002c 0002!
     472                    .dwpsn  file "C:/Users/409010855/Documents/GitHub/CHARM/Embedded_Voltmeter/Basic WiFi Source/S
     473 00002e 4382          MOV.W     #0,&tSLInformation+4  ; [] |336| 
         000030 0004!
     474                    .dwpsn  file "C:/Users/409010855/Documents/GitHub/CHARM/Embedded_Voltmeter/Basic WiFi Source/S
MSP430 Assembler PC v4.2.1 Fri Mar 21 13:42:39 2014

Tools Copyright (c) 2003-2013 Texas Instruments Incorporated
C:\Users\409010~1\AppData\Local\Temp\0188810                         PAGE   10

     475 000032 40B2          MOV.W     #wlan_tx_buffer+0,&tSLInformation+6 ; [] |339| 
         000034 0000!
         000036 0006!
     476                    .dwpsn  file "C:/Users/409010855/Documents/GitHub/CHARM/Embedded_Voltmeter/Basic WiFi Source/S
     477 000038 008C!         MOVX.A    #SpiReceiveHandler+0,r12 ; [] |342| 
         00003a 0000 
     478            $C$DW$70        .dwtag  DW_TAG_TI_branch
     479                    .dwattr $C$DW$70, DW_AT_low_pc(0x00)
     480                    .dwattr $C$DW$70, DW_AT_name("SpiOpen")
     481                    .dwattr $C$DW$70, DW_AT_TI_call
     482 00003c 13B0!         CALLA     #SpiOpen              ; [] |342| 
         00003e 0000 
     483                                                      ; [] |342| 
     484                    .dwpsn  file "C:/Users/409010855/Documents/GitHub/CHARM/Embedded_Voltmeter/Basic WiFi Source/S
     485            $C$DW$71        .dwtag  DW_TAG_TI_branch
     486                    .dwattr $C$DW$71, DW_AT_low_pc(0x00)
     487                    .dwattr $C$DW$71, DW_AT_TI_call
     488                    .dwattr $C$DW$71, DW_AT_TI_indirect
     489 000040 1380!         CALLA     &tSLInformation+24    ; [] |345| 
         000042 0018 
     490                                                      ; [] |345| 
     491 000044 0CC8          MOVA      r12,r8                ; [] |345| 
     492 000046 0DC9          MOVA      r13,r9                ; [] |345| 
     493                    .dwpsn  file "C:/Users/409010855/Documents/GitHub/CHARM/Embedded_Voltmeter/Basic WiFi Source/S
     494 000048 435C          MOV.B     #1,r12                ; [] |348| 
     495            $C$DW$72        .dwtag  DW_TAG_TI_branch
     496                    .dwattr $C$DW$72, DW_AT_low_pc(0x00)
     497                    .dwattr $C$DW$72, DW_AT_TI_call
     498                    .dwattr $C$DW$72, DW_AT_TI_indirect
     499 00004a 1380!         CALLA     &tSLInformation+36    ; [] |348| 
         00004c 0024 
     500                                                      ; [] |348| 
     501                    .dwpsn  file "C:/Users/409010855/Documents/GitHub/CHARM/Embedded_Voltmeter/Basic WiFi Source/S
     502 00004e 9309          TST.W     r9                    ; [] |350| 
     503 000050 200F          JNE       $C$L6                 ; [] |350| 
     504                                                      ; [] |350| 
     505            ;* --------------------------------------------------------------------------*
     506 000052 9308          TST.W     r8                    ; [] |350| 
     507 000054 200D          JNE       $C$L6                 ; [] |350| 
     508                                                      ; [] |350| 
     509            ;* --------------------------------------------------------------------------*
     510            ;*   BEGIN LOOP $C$L4
     511            ;*
     512            ;*   Loop source line                : 360
     513            ;*   Loop closing brace source line  : 362
     514            ;*   Known Minimum Trip Count        : 1
     515            ;*   Known Maximum Trip Count        : 4294967295
     516            ;*   Known Max Trip Count Factor     : 1
     517            ;* --------------------------------------------------------------------------*
     518 000056       $C$L4:    
     519                    .dwpsn  file "C:/Users/409010855/Documents/GitHub/CHARM/Embedded_Voltmeter/Basic WiFi Source/S
     520            $C$DW$73        .dwtag  DW_TAG_TI_branch
     521                    .dwattr $C$DW$73, DW_AT_low_pc(0x00)
     522                    .dwattr $C$DW$73, DW_AT_TI_call
     523                    .dwattr $C$DW$73, DW_AT_TI_indirect
MSP430 Assembler PC v4.2.1 Fri Mar 21 13:42:39 2014

Tools Copyright (c) 2003-2013 Texas Instruments Incorporated
C:\Users\409010~1\AppData\Local\Temp\0188810                         PAGE   11

     524 000056 1380!         CALLA     &tSLInformation+24    ; [] |360| 
         000058 0018 
     525                                                      ; [] |360| 
     526 00005a 930D          TST.W     r13                   ; [] |360| 
     527 00005c 2002          JNE       $C$L5                 ; [] |360| 
     528                                                      ; [] |360| 
     529            ;* --------------------------------------------------------------------------*
     530 00005e 930C          TST.W     r12                   ; [] |360| 
     531 000060 27FA          JEQ       $C$L4                 ; [] |360| 
     532                                                      ; [] |360| 
     533            ;* --------------------------------------------------------------------------*
     534            ;*   BEGIN LOOP $C$L5
     535            ;*
     536            ;*   Loop source line                : 364
     537            ;*   Loop closing brace source line  : 366
     538            ;*   Known Minimum Trip Count        : 1
     539            ;*   Known Maximum Trip Count        : 4294967295
     540            ;*   Known Max Trip Count Factor     : 1
     541            ;* --------------------------------------------------------------------------*
     542 000062       $C$L5:    
     543                    .dwpsn  file "C:/Users/409010855/Documents/GitHub/CHARM/Embedded_Voltmeter/Basic WiFi Source/S
     544            $C$DW$74        .dwtag  DW_TAG_TI_branch
     545                    .dwattr $C$DW$74, DW_AT_low_pc(0x00)
     546                    .dwattr $C$DW$74, DW_AT_TI_call
     547                    .dwattr $C$DW$74, DW_AT_TI_indirect
     548 000062 1380!         CALLA     &tSLInformation+24    ; [] |364| 
         000064 0018 
     549                                                      ; [] |364| 
     550 000066 930D          TST.W     r13                   ; [] |364| 
     551 000068 23FC          JNE       $C$L5                 ; [] |364| 
     552                                                      ; [] |364| 
     553            ;* --------------------------------------------------------------------------*
     554 00006a 930C          TST.W     r12                   ; [] |364| 
     555 00006c 23FA          JNE       $C$L5                 ; [] |364| 
     556                                                      ; [] |364| 
     557            ;* --------------------------------------------------------------------------*
     558 00006e 3C06          JMP       $C$L7                 ; [] |364| 
     559                                                      ; [] |364| 
     560            ;* --------------------------------------------------------------------------*
     561            ;*   BEGIN LOOP $C$L6
     562            ;*
     563            ;*   Loop source line                : 353
     564            ;*   Loop closing brace source line  : 355
     565            ;*   Known Minimum Trip Count        : 1
     566            ;*   Known Maximum Trip Count        : 4294967295
     567            ;*   Known Max Trip Count Factor     : 1
     568            ;* --------------------------------------------------------------------------*
     569 000070       $C$L6:    
     570                    .dwpsn  file "C:/Users/409010855/Documents/GitHub/CHARM/Embedded_Voltmeter/Basic WiFi Source/S
     571            $C$DW$75        .dwtag  DW_TAG_TI_branch
     572                    .dwattr $C$DW$75, DW_AT_low_pc(0x00)
     573                    .dwattr $C$DW$75, DW_AT_TI_call
     574                    .dwattr $C$DW$75, DW_AT_TI_indirect
     575 000070 1380!         CALLA     &tSLInformation+24    ; [] |356| 
         000072 0018 
MSP430 Assembler PC v4.2.1 Fri Mar 21 13:42:39 2014

Tools Copyright (c) 2003-2013 Texas Instruments Incorporated
C:\Users\409010~1\AppData\Local\Temp\0188810                         PAGE   12

     576                                                      ; [] |356| 
     577 000074 930D          TST.W     r13                   ; [] |356| 
     578 000076 23FC          JNE       $C$L6                 ; [] |356| 
     579                                                      ; [] |356| 
     580            ;* --------------------------------------------------------------------------*
     581 000078 930C          TST.W     r12                   ; [] |356| 
     582 00007a 23FA          JNE       $C$L6                 ; [] |356| 
     583                                                      ; [] |356| 
     584            ;* --------------------------------------------------------------------------*
     585 00007c       $C$L7:    
     586                    .dwpsn  file "C:/Users/409010855/Documents/GitHub/CHARM/Embedded_Voltmeter/Basic WiFi Source/S
     587 00007c 421D          MOV.W     &tSLInformation+6,r13 ; [] |120| 
         00007e 0006!
     588                    .dwpsn  file "C:/Users/409010855/Documents/GitHub/CHARM/Embedded_Voltmeter/Basic WiFi Source/S
     589 000080 403F          MOV.W     #9,r15                ; [] |121| 
         000082 0009 
     590 000084 5D0F          ADD.W     r13,r15               ; [] |121| 
     591                    .dwpsn  file "C:/Users/409010855/Documents/GitHub/CHARM/Embedded_Voltmeter/Basic WiFi Source/S
     592 000086 930A          TST.W     r10                   ; [] |123| 
     593 000088 2402          JEQ       $C$L8                 ; [] |123| 
     594                                                      ; [] |123| 
     595            ;* --------------------------------------------------------------------------*
     596 00008a 436E          MOV.B     #2,r14                ; [] |123| 
     597 00008c 3C01          JMP       $C$L9                 ; [] |123| 
     598                                                      ; [] |123| 
     599            ;* --------------------------------------------------------------------------*
     600 00008e       $C$L8:    
     601 00008e 434E          MOV.B     #0,r14                ; [] |123| 
     602            ;* --------------------------------------------------------------------------*
     603 000090       $C$L9:    
     604 000090 4ECF          MOV.B     r14,0(r15)            ; [] |123| 
         000092 0000 
     605                    .dwpsn  file "C:/Users/409010855/Documents/GitHub/CHARM/Embedded_Voltmeter/Basic WiFi Source/S
     606 000094 403C          MOV.W     #16384,r12            ; [] |126| 
         000096 4000 
     607 000098 435E          MOV.B     #1,r14                ; [] |126| 
     608            $C$DW$76        .dwtag  DW_TAG_TI_branch
     609                    .dwattr $C$DW$76, DW_AT_low_pc(0x00)
     610                    .dwattr $C$DW$76, DW_AT_name("hci_command_send")
     611                    .dwattr $C$DW$76, DW_AT_TI_call
     612 00009a 13B0!         CALLA     #hci_command_send     ; [] |126| 
         00009c 0000 
     613                                                      ; [] |126| 
     614                    .dwpsn  file "C:/Users/409010855/Documents/GitHub/CHARM/Embedded_Voltmeter/Basic WiFi Source/S
     615 00009e 403C          MOV.W     #16384,r12            ; [] |128| 
         0000a0 4000 
     616 0000a2 430D          MOV.W     #0,r13                ; [] |128| 
     617            $C$DW$77        .dwtag  DW_TAG_TI_branch
     618                    .dwattr $C$DW$77, DW_AT_low_pc(0x00)
     619                    .dwattr $C$DW$77, DW_AT_name("SimpleLinkWaitEvent")
     620                    .dwattr $C$DW$77, DW_AT_TI_call
     621 0000a4 13B0!         CALLA     #SimpleLinkWaitEvent  ; [] |128| 
         0000a6 0000 
     622                                                      ; [] |128| 
     623                    .dwpsn  file "C:/Users/409010855/Documents/GitHub/CHARM/Embedded_Voltmeter/Basic WiFi Source/S
MSP430 Assembler PC v4.2.1 Fri Mar 21 13:42:39 2014

Tools Copyright (c) 2003-2013 Texas Instruments Incorporated
C:\Users\409010~1\AppData\Local\Temp\0188810                         PAGE   13

     624 0000a8 403C          MOV.W     #16395,r12            ; [] |372| 
         0000aa 400B 
     625 0000ac 421D          MOV.W     &tSLInformation+6,r13 ; [] |372| 
         0000ae 0006!
     626 0000b0 434E          MOV.B     #0,r14                ; [] |372| 
     627            $C$DW$78        .dwtag  DW_TAG_TI_branch
     628                    .dwattr $C$DW$78, DW_AT_low_pc(0x00)
     629                    .dwattr $C$DW$78, DW_AT_name("hci_command_send")
     630                    .dwattr $C$DW$78, DW_AT_TI_call
     631 0000b2 13B0!         CALLA     #hci_command_send     ; [] |372| 
         0000b4 0000 
     632                                                      ; [] |372| 
     633                    .dwpsn  file "C:/Users/409010855/Documents/GitHub/CHARM/Embedded_Voltmeter/Basic WiFi Source/S
     634 0000b6 403C          MOV.W     #16395,r12            ; [] |373| 
         0000b8 400B 
     635 0000ba 430D          MOV.W     #0,r13                ; [] |373| 
     636            $C$DW$79        .dwtag  DW_TAG_TI_branch
     637                    .dwattr $C$DW$79, DW_AT_low_pc(0x00)
     638                    .dwattr $C$DW$79, DW_AT_name("SimpleLinkWaitEvent")
     639                    .dwattr $C$DW$79, DW_AT_TI_call
     640 0000bc 13B0!         CALLA     #SimpleLinkWaitEvent  ; [] |373| 
         0000be 0000 
     641                                                      ; [] |373| 
     642 0000c0 1628          POPM.A    #3,r10                ; [] 
     643                    .dwcfi  restore_reg, 8
     644                    .dwcfi  restore_reg, 9
     645                    .dwcfi  restore_reg, 10
     646                    .dwcfi  cfa_offset, 4
     647            $C$DW$80        .dwtag  DW_TAG_TI_branch
     648                    .dwattr $C$DW$80, DW_AT_low_pc(0x00)
     649                    .dwattr $C$DW$80, DW_AT_TI_return
     650 0000c2 0110          RETA      ; [] 
     651                    ; [] 
     652                    .dwattr $C$DW$64, DW_AT_TI_end_file("C:/Users/409010855/Documents/GitHub/CHARM/Embedded_Voltme
     653                    .dwattr $C$DW$64, DW_AT_TI_end_line(0x176)
     654                    .dwattr $C$DW$64, DW_AT_TI_end_column(0x01)
     655                    .dwendentry
     656                    .dwendtag $C$DW$64
     657            
     658 000000               .sect   ".text:wlan_smart_config_stop"
     659                    .align  2
     660                    .clink
     661                    .global wlan_smart_config_stop
     662            
     663            $C$DW$81        .dwtag  DW_TAG_subprogram, DW_AT_name("wlan_smart_config_stop")
     664                    .dwattr $C$DW$81, DW_AT_low_pc(wlan_smart_config_stop)
     665                    .dwattr $C$DW$81, DW_AT_high_pc(0x00)
     666                    .dwattr $C$DW$81, DW_AT_TI_symbol_name("wlan_smart_config_stop")
     667                    .dwattr $C$DW$81, DW_AT_external
     668                    .dwattr $C$DW$81, DW_AT_type(*$C$DW$T$32)
     669                    .dwattr $C$DW$81, DW_AT_TI_begin_file("C:/Users/409010855/Documents/GitHub/CHARM/Embedded_Volt
     670                    .dwattr $C$DW$81, DW_AT_TI_begin_line(0x458)
     671                    .dwattr $C$DW$81, DW_AT_TI_begin_column(0x07)
     672                    .dwattr $C$DW$81, DW_AT_TI_max_frame_size(0x08)
     673                    .dwpsn  file "C:/Users/409010855/Documents/GitHub/CHARM/Embedded_Voltmeter/Basic WiFi Source/S
MSP430 Assembler PC v4.2.1 Fri Mar 21 13:42:39 2014

Tools Copyright (c) 2003-2013 Texas Instruments Incorporated
C:\Users\409010~1\AppData\Local\Temp\0188810                         PAGE   14

     674            
     675                    .dwfde $C$DW$CIE, wlan_smart_config_stop
     676            
     677            ;*****************************************************************************
     678            ;* FUNCTION NAME: wlan_smart_config_stop                                     *
     679            ;*                                                                           *
     680            ;*   Regs Modified     : SP,SR,r11,r12,r13,r14,r15                           *
     681            ;*   Regs Used         : SP,SR,r11,r12,r13,r14,r15                           *
     682            ;*   Local Frame Size  : 0 Args + 4 Auto + 0 Save = 4 byte                   *
     683            ;*****************************************************************************
     684            wlan_smart_config_stop:
     685            ;* --------------------------------------------------------------------------*
     686            $C$DW$82        .dwtag  DW_TAG_variable, DW_AT_name("ret")
     687                    .dwattr $C$DW$82, DW_AT_TI_symbol_name("ret")
     688                    .dwattr $C$DW$82, DW_AT_type(*$C$DW$T$32)
     689                    .dwattr $C$DW$82, DW_AT_location[DW_OP_breg1 0]
     690            ;* r13   assigned to ptr
     691            $C$DW$83        .dwtag  DW_TAG_variable, DW_AT_name("ptr")
     692                    .dwattr $C$DW$83, DW_AT_TI_symbol_name("ptr")
     693                    .dwattr $C$DW$83, DW_AT_type(*$C$DW$T$21)
     694                    .dwattr $C$DW$83, DW_AT_location[DW_OP_reg13]
     695                    .dwcfi  cfa_offset, 4
     696                    .dwcfi  save_reg_to_mem, 16, -4
     697 000000 8221          SUB.W     #4,SP                 ; [] 
     698                    .dwcfi  cfa_offset, 8
     699                    .dwpsn  file "C:/Users/409010855/Documents/GitHub/CHARM/Embedded_Voltmeter/Basic WiFi Source/S
     700 000002 43B1          MOV.W     #-1,0(SP)             ; [] |1117| 
         000004 0000 
     701 000006 43B1          MOV.W     #-1,2(SP)             ; [] |1117| 
         000008 0002 
     702                    .dwpsn  file "C:/Users/409010855/Documents/GitHub/CHARM/Embedded_Voltmeter/Basic WiFi Source/S
     703 00000a 421D          MOV.W     &tSLInformation+6,r13 ; [] |1118| 
         00000c 0006!
     704                    .dwpsn  file "C:/Users/409010855/Documents/GitHub/CHARM/Embedded_Voltmeter/Basic WiFi Source/S
     705 00000e 403C          MOV.W     #11,r12               ; [] |1120| 
         000010 000B 
     706 000012 434E          MOV.B     #0,r14                ; [] |1120| 
     707            $C$DW$84        .dwtag  DW_TAG_TI_branch
     708                    .dwattr $C$DW$84, DW_AT_low_pc(0x00)
     709                    .dwattr $C$DW$84, DW_AT_name("hci_command_send")
     710                    .dwattr $C$DW$84, DW_AT_TI_call
     711 000014 13B0!         CALLA     #hci_command_send     ; [] |1120| 
         000016 0000 
     712                                                      ; [] |1120| 
     713                    .dwpsn  file "C:/Users/409010855/Documents/GitHub/CHARM/Embedded_Voltmeter/Basic WiFi Source/S
     714 000018 403C          MOV.W     #11,r12               ; [] |1123| 
         00001a 000B 
     715 00001c 01CD          MOVA      SP,r13                ; [] |1123| 
     716            $C$DW$85        .dwtag  DW_TAG_TI_branch
     717                    .dwattr $C$DW$85, DW_AT_low_pc(0x00)
     718                    .dwattr $C$DW$85, DW_AT_name("SimpleLinkWaitEvent")
     719                    .dwattr $C$DW$85, DW_AT_TI_call
     720 00001e 13B0!         CALLA     #SimpleLinkWaitEvent  ; [] |1123| 
         000020 0000 
     721                                                      ; [] |1123| 
MSP430 Assembler PC v4.2.1 Fri Mar 21 13:42:39 2014

Tools Copyright (c) 2003-2013 Texas Instruments Incorporated
C:\Users\409010~1\AppData\Local\Temp\0188810                         PAGE   15

     722                    .dwpsn  file "C:/Users/409010855/Documents/GitHub/CHARM/Embedded_Voltmeter/Basic WiFi Source/S
     723 000022 412C          MOV.W     0(SP),r12             ; [] |1125| 
     724 000024 411D          MOV.W     2(SP),r13             ; [] |1125| 
         000026 0002 
     725 000028 5221          ADD.W     #4,SP                 ; [] 
     726                    .dwcfi  cfa_offset, 4
     727            $C$DW$86        .dwtag  DW_TAG_TI_branch
     728                    .dwattr $C$DW$86, DW_AT_low_pc(0x00)
     729                    .dwattr $C$DW$86, DW_AT_TI_return
     730 00002a 0110          RETA      ; [] 
     731                    ; [] 
     732                    .dwattr $C$DW$81, DW_AT_TI_end_file("C:/Users/409010855/Documents/GitHub/CHARM/Embedded_Voltme
     733                    .dwattr $C$DW$81, DW_AT_TI_end_line(0x466)
     734                    .dwattr $C$DW$81, DW_AT_TI_end_column(0x01)
     735                    .dwendentry
     736                    .dwendtag $C$DW$81
     737            
     738 000000               .sect   ".text:wlan_smart_config_start"
     739                    .align  2
     740                    .clink
     741                    .global wlan_smart_config_start
     742            
     743            $C$DW$87        .dwtag  DW_TAG_subprogram, DW_AT_name("wlan_smart_config_start")
     744                    .dwattr $C$DW$87, DW_AT_low_pc(wlan_smart_config_start)
     745                    .dwattr $C$DW$87, DW_AT_high_pc(0x00)
     746                    .dwattr $C$DW$87, DW_AT_TI_symbol_name("wlan_smart_config_start")
     747                    .dwattr $C$DW$87, DW_AT_external
     748                    .dwattr $C$DW$87, DW_AT_type(*$C$DW$T$32)
     749                    .dwattr $C$DW$87, DW_AT_TI_begin_file("C:/Users/409010855/Documents/GitHub/CHARM/Embedded_Volt
     750                    .dwattr $C$DW$87, DW_AT_TI_begin_line(0x433)
     751                    .dwattr $C$DW$87, DW_AT_TI_begin_column(0x07)
     752                    .dwattr $C$DW$87, DW_AT_TI_max_frame_size(0x0c)
     753                    .dwpsn  file "C:/Users/409010855/Documents/GitHub/CHARM/Embedded_Voltmeter/Basic WiFi Source/S
     754            
     755                    .dwfde $C$DW$CIE, wlan_smart_config_start
     756            $C$DW$88        .dwtag  DW_TAG_formal_parameter, DW_AT_name("algoEncryptedFlag")
     757                    .dwattr $C$DW$88, DW_AT_TI_symbol_name("algoEncryptedFlag")
     758                    .dwattr $C$DW$88, DW_AT_type(*$C$DW$T$25)
     759                    .dwattr $C$DW$88, DW_AT_location[DW_OP_reg12 DW_OP_piece 2 DW_OP_reg13 DW_OP_piece 2]
     760            
     761            ;*****************************************************************************
     762            ;* FUNCTION NAME: wlan_smart_config_start                                    *
     763            ;*                                                                           *
     764            ;*   Regs Modified     : SP,SR,r10,r11,r12,r13,r14,r15                       *
     765            ;*   Regs Used         : SP,SR,r10,r11,r12,r13,r14,r15                       *
     766            ;*   Local Frame Size  : 0 Args + 4 Auto + 4 Save = 8 byte                   *
     767            ;*****************************************************************************
     768            wlan_smart_config_start:
     769            ;* --------------------------------------------------------------------------*
     770            ;* r15   assigned to algoEncryptedFlag
     771            $C$DW$89        .dwtag  DW_TAG_variable, DW_AT_name("algoEncryptedFlag")
     772                    .dwattr $C$DW$89, DW_AT_TI_symbol_name("algoEncryptedFlag")
     773                    .dwattr $C$DW$89, DW_AT_type(*$C$DW$T$164)
     774                    .dwattr $C$DW$89, DW_AT_location[DW_OP_reg15 DW_OP_piece 2 DW_OP_reg16 DW_OP_piece 2]
     775            $C$DW$90        .dwtag  DW_TAG_variable, DW_AT_name("ret")
MSP430 Assembler PC v4.2.1 Fri Mar 21 13:42:39 2014

Tools Copyright (c) 2003-2013 Texas Instruments Incorporated
C:\Users\409010~1\AppData\Local\Temp\0188810                         PAGE   16

     776                    .dwattr $C$DW$90, DW_AT_TI_symbol_name("ret")
     777                    .dwattr $C$DW$90, DW_AT_type(*$C$DW$T$32)
     778                    .dwattr $C$DW$90, DW_AT_location[DW_OP_breg1 0]
     779            ;* r10   assigned to ptr
     780            $C$DW$91        .dwtag  DW_TAG_variable, DW_AT_name("ptr")
     781                    .dwattr $C$DW$91, DW_AT_TI_symbol_name("ptr")
     782                    .dwattr $C$DW$91, DW_AT_type(*$C$DW$T$21)
     783                    .dwattr $C$DW$91, DW_AT_location[DW_OP_reg10]
     784                    .dwcfi  cfa_offset, 4
     785                    .dwcfi  save_reg_to_mem, 16, -4
     786 000000 140A          PUSHM.A   #1,r10                ; [] 
     787                    .dwcfi  save_reg_to_mem, 10, -8
     788                    .dwcfi  cfa_offset, 8
     789 000002 8221          SUB.W     #4,SP                 ; [] 
     790                    .dwcfi  cfa_offset, 12
     791 000004 0DCE          MOVA      r13,r14               ; [] |1076| 
     792 000006 0CCD          MOVA      r12,r13               ; [] |1076| 
     793                    .dwpsn  file "C:/Users/409010855/Documents/GitHub/CHARM/Embedded_Voltmeter/Basic WiFi Source/S
     794 000008 43B1          MOV.W     #-1,0(SP)             ; [] |1081| 
         00000a 0000 
     795 00000c 43B1          MOV.W     #-1,2(SP)             ; [] |1081| 
         00000e 0002 
     796                    .dwpsn  file "C:/Users/409010855/Documents/GitHub/CHARM/Embedded_Voltmeter/Basic WiFi Source/S
     797 000010 421A          MOV.W     &tSLInformation+6,r10 ; [] |1082| 
         000012 0006!
     798                    .dwpsn  file "C:/Users/409010855/Documents/GitHub/CHARM/Embedded_Voltmeter/Basic WiFi Source/S
     799 000014 403C          MOV.W     #9,r12                ; [] |1086| 
         000016 0009 
     800 000018 5A0C          ADD.W     r10,r12               ; [] |1086| 
     801            $C$DW$92        .dwtag  DW_TAG_TI_branch
     802                    .dwattr $C$DW$92, DW_AT_low_pc(0x00)
     803                    .dwattr $C$DW$92, DW_AT_name("UINT32_TO_STREAM_f")
     804                    .dwattr $C$DW$92, DW_AT_TI_call
     805 00001a 13B0!         CALLA     #UINT32_TO_STREAM_f   ; [] |1086| 
         00001c 0000 
     806                                                      ; [] |1086| 
     807                    .dwpsn  file "C:/Users/409010855/Documents/GitHub/CHARM/Embedded_Voltmeter/Basic WiFi Source/S
     808 00001e 403C          MOV.W     #10,r12               ; [] |1089| 
         000020 000A 
     809 000022 0ACD          MOVA      r10,r13               ; [] |1089| 
     810 000024 426E          MOV.B     #4,r14                ; [] |1089| 
     811            $C$DW$93        .dwtag  DW_TAG_TI_branch
     812                    .dwattr $C$DW$93, DW_AT_low_pc(0x00)
     813                    .dwattr $C$DW$93, DW_AT_name("hci_command_send")
     814                    .dwattr $C$DW$93, DW_AT_TI_call
     815 000026 13B0!         CALLA     #hci_command_send     ; [] |1089| 
         000028 0000 
     816                                                      ; [] |1089| 
     817                    .dwpsn  file "C:/Users/409010855/Documents/GitHub/CHARM/Embedded_Voltmeter/Basic WiFi Source/S
     818 00002a 403C          MOV.W     #10,r12               ; [] |1093| 
         00002c 000A 
     819 00002e 01CD          MOVA      SP,r13                ; [] |1093| 
     820            $C$DW$94        .dwtag  DW_TAG_TI_branch
     821                    .dwattr $C$DW$94, DW_AT_low_pc(0x00)
     822                    .dwattr $C$DW$94, DW_AT_name("SimpleLinkWaitEvent")
MSP430 Assembler PC v4.2.1 Fri Mar 21 13:42:39 2014

Tools Copyright (c) 2003-2013 Texas Instruments Incorporated
C:\Users\409010~1\AppData\Local\Temp\0188810                         PAGE   17

     823                    .dwattr $C$DW$94, DW_AT_TI_call
     824 000030 13B0!         CALLA     #SimpleLinkWaitEvent  ; [] |1093| 
         000032 0000 
     825                                                      ; [] |1093| 
     826                    .dwpsn  file "C:/Users/409010855/Documents/GitHub/CHARM/Embedded_Voltmeter/Basic WiFi Source/S
     827 000034 412C          MOV.W     0(SP),r12             ; [] |1095| 
     828 000036 411D          MOV.W     2(SP),r13             ; [] |1095| 
         000038 0002 
     829 00003a 5221          ADD.W     #4,SP                 ; [] 
     830                    .dwcfi  cfa_offset, 8
     831 00003c 160A          POPM.A    #1,r10                ; [] 
     832                    .dwcfi  restore_reg, 10
     833                    .dwcfi  cfa_offset, 4
     834            $C$DW$95        .dwtag  DW_TAG_TI_branch
     835                    .dwattr $C$DW$95, DW_AT_low_pc(0x00)
     836                    .dwattr $C$DW$95, DW_AT_TI_return
     837 00003e 0110          RETA      ; [] 
     838                    ; [] 
     839                    .dwattr $C$DW$87, DW_AT_TI_end_file("C:/Users/409010855/Documents/GitHub/CHARM/Embedded_Voltme
     840                    .dwattr $C$DW$87, DW_AT_TI_end_line(0x448)
     841                    .dwattr $C$DW$87, DW_AT_TI_end_column(0x01)
     842                    .dwendentry
     843                    .dwendtag $C$DW$87
     844            
     845 000000               .sect   ".text:wlan_smart_config_set_prefix"
     846                    .align  2
     847                    .clink
     848                    .global wlan_smart_config_set_prefix
     849            
     850            $C$DW$96        .dwtag  DW_TAG_subprogram, DW_AT_name("wlan_smart_config_set_prefix")
     851                    .dwattr $C$DW$96, DW_AT_low_pc(wlan_smart_config_set_prefix)
     852                    .dwattr $C$DW$96, DW_AT_high_pc(0x00)
     853                    .dwattr $C$DW$96, DW_AT_TI_symbol_name("wlan_smart_config_set_prefix")
     854                    .dwattr $C$DW$96, DW_AT_external
     855                    .dwattr $C$DW$96, DW_AT_type(*$C$DW$T$32)
     856                    .dwattr $C$DW$96, DW_AT_TI_begin_file("C:/Users/409010855/Documents/GitHub/CHARM/Embedded_Volt
     857                    .dwattr $C$DW$96, DW_AT_TI_begin_line(0x479)
     858                    .dwattr $C$DW$96, DW_AT_TI_begin_column(0x07)
     859                    .dwattr $C$DW$96, DW_AT_TI_max_frame_size(0x08)
     860                    .dwpsn  file "C:/Users/409010855/Documents/GitHub/CHARM/Embedded_Voltmeter/Basic WiFi Source/S
     861            
     862                    .dwfde $C$DW$CIE, wlan_smart_config_set_prefix
     863            $C$DW$97        .dwtag  DW_TAG_formal_parameter, DW_AT_name("cNewPrefix")
     864                    .dwattr $C$DW$97, DW_AT_TI_symbol_name("cNewPrefix")
     865                    .dwattr $C$DW$97, DW_AT_type(*$C$DW$T$24)
     866                    .dwattr $C$DW$97, DW_AT_location[DW_OP_reg12]
     867            
     868            ;*****************************************************************************
     869            ;* FUNCTION NAME: wlan_smart_config_set_prefix                               *
     870            ;*                                                                           *
     871            ;*   Regs Modified     : SP,SR,r11,r12,r13,r14,r15                           *
     872            ;*   Regs Used         : SP,SR,r11,r12,r13,r14,r15                           *
     873            ;*   Local Frame Size  : 0 Args + 4 Auto + 0 Save = 4 byte                   *
     874            ;*****************************************************************************
     875            wlan_smart_config_set_prefix:
MSP430 Assembler PC v4.2.1 Fri Mar 21 13:42:39 2014

Tools Copyright (c) 2003-2013 Texas Instruments Incorporated
C:\Users\409010~1\AppData\Local\Temp\0188810                         PAGE   18

     876            ;* --------------------------------------------------------------------------*
     877            ;* r14   assigned to $O$C11
     878            ;* r14   assigned to $O$C12
     879            ;* r12   assigned to cNewPrefix
     880            $C$DW$98        .dwtag  DW_TAG_variable, DW_AT_name("cNewPrefix")
     881                    .dwattr $C$DW$98, DW_AT_TI_symbol_name("cNewPrefix")
     882                    .dwattr $C$DW$98, DW_AT_type(*$C$DW$T$176)
     883                    .dwattr $C$DW$98, DW_AT_location[DW_OP_reg12]
     884            $C$DW$99        .dwtag  DW_TAG_variable, DW_AT_name("ret")
     885                    .dwattr $C$DW$99, DW_AT_TI_symbol_name("ret")
     886                    .dwattr $C$DW$99, DW_AT_type(*$C$DW$T$32)
     887                    .dwattr $C$DW$99, DW_AT_location[DW_OP_breg1 0]
     888            ;* r13   assigned to ptr
     889            $C$DW$100       .dwtag  DW_TAG_variable, DW_AT_name("ptr")
     890                    .dwattr $C$DW$100, DW_AT_TI_symbol_name("ptr")
     891                    .dwattr $C$DW$100, DW_AT_type(*$C$DW$T$21)
     892                    .dwattr $C$DW$100, DW_AT_location[DW_OP_reg13]
     893            ;* r15   assigned to args
     894            $C$DW$101       .dwtag  DW_TAG_variable, DW_AT_name("args")
     895                    .dwattr $C$DW$101, DW_AT_TI_symbol_name("args")
     896                    .dwattr $C$DW$101, DW_AT_type(*$C$DW$T$21)
     897                    .dwattr $C$DW$101, DW_AT_location[DW_OP_reg15]
     898            ;* r12   assigned to $O$U21
     899                    .dwcfi  cfa_offset, 4
     900                    .dwcfi  save_reg_to_mem, 16, -4
     901 000000 8221          SUB.W     #4,SP                 ; [] 
     902                    .dwcfi  cfa_offset, 8
     903                    .dwpsn  file "C:/Users/409010855/Documents/GitHub/CHARM/Embedded_Voltmeter/Basic WiFi Source/S
     904 000002 43B1          MOV.W     #-1,0(SP)             ; [] |1151| 
         000004 0000 
     905 000006 43B1          MOV.W     #-1,2(SP)             ; [] |1151| 
         000008 0002 
     906                    .dwpsn  file "C:/Users/409010855/Documents/GitHub/CHARM/Embedded_Voltmeter/Basic WiFi Source/S
     907 00000a 421D          MOV.W     &tSLInformation+6,r13 ; [] |1152| 
         00000c 0006!
     908                    .dwpsn  file "C:/Users/409010855/Documents/GitHub/CHARM/Embedded_Voltmeter/Basic WiFi Source/S
     909 00000e 403F          MOV.W     #9,r15                ; [] |1153| 
         000010 0009 
     910 000012 5D0F          ADD.W     r13,r15               ; [] |1153| 
     911                    .dwpsn  file "C:/Users/409010855/Documents/GitHub/CHARM/Embedded_Voltmeter/Basic WiFi Source/S
     912 000014 930C          TST.W     r12                   ; [] |1155| 
     913 000016 2420          JEQ       $C$L10                ; [] |1155| 
     914                                                      ; [] |1155| 
     915            ;* --------------------------------------------------------------------------*
     916                    .dwpsn  file "C:/Users/409010855/Documents/GitHub/CHARM/Embedded_Voltmeter/Basic WiFi Source/S
     917 000018 407E          MOV.B     #84,r14               ; [] |1159| 
         00001a 0054 
     918 00001c 4ECC          MOV.B     r14,0(r12)            ; [] |1159| 
         00001e 0000 
     919                    .dwpsn  file "C:/Users/409010855/Documents/GitHub/CHARM/Embedded_Voltmeter/Basic WiFi Source/S
     920 000020 4ECC          MOV.B     r14,1(r12)            ; [] |1160| 
         000022 0001 
     921                    .dwpsn  file "C:/Users/409010855/Documents/GitHub/CHARM/Embedded_Voltmeter/Basic WiFi Source/S
     922 000024 4ECC          MOV.B     r14,2(r12)            ; [] |1161| 
         000026 0002 
MSP430 Assembler PC v4.2.1 Fri Mar 21 13:42:39 2014

Tools Copyright (c) 2003-2013 Texas Instruments Incorporated
C:\Users\409010~1\AppData\Local\Temp\0188810                         PAGE   19

     923                    .dwpsn  file "C:/Users/409010855/Documents/GitHub/CHARM/Embedded_Voltmeter/Basic WiFi Source/S
     924 000028 531F          ADD.W     #1,r15                ; [] |1164| 
     925 00002a 4ECF          MOV.B     r14,-1(r15)           ; [] |1164| 
         00002c FFFF 
     926 00002e 531C          ADD.W     #1,r12                ; [] 
     927 000030 531F          ADD.W     #1,r15                ; [] |1164| 
     928 000032 4CFF          MOV.B     @r12+,-1(r15)         ; [] |1164| 
         000034 FFFF 
     929 000036 4CEF          MOV.B     @r12,0(r15)           ; [] |1164| 
         000038 0000 
     930                    .dwpsn  file "C:/Users/409010855/Documents/GitHub/CHARM/Embedded_Voltmeter/Basic WiFi Source/S
     931 00003a 403C          MOV.W     #12,r12               ; [] |1166| 
         00003c 000C 
     932 00003e 407E          MOV.B     #3,r14                ; [] |1166| 
         000040 0003 
     933            $C$DW$102       .dwtag  DW_TAG_TI_branch
     934                    .dwattr $C$DW$102, DW_AT_low_pc(0x00)
     935                    .dwattr $C$DW$102, DW_AT_name("hci_command_send")
     936                    .dwattr $C$DW$102, DW_AT_TI_call
     937 000042 13B0!         CALLA     #hci_command_send     ; [] |1166| 
         000044 0000 
     938                                                      ; [] |1166| 
     939                    .dwpsn  file "C:/Users/409010855/Documents/GitHub/CHARM/Embedded_Voltmeter/Basic WiFi Source/S
     940 000046 403C          MOV.W     #12,r12               ; [] |1170| 
         000048 000C 
     941 00004a 01CD          MOVA      SP,r13                ; [] |1170| 
     942            $C$DW$103       .dwtag  DW_TAG_TI_branch
     943                    .dwattr $C$DW$103, DW_AT_low_pc(0x00)
     944                    .dwattr $C$DW$103, DW_AT_name("SimpleLinkWaitEvent")
     945                    .dwattr $C$DW$103, DW_AT_TI_call
     946 00004c 13B0!         CALLA     #SimpleLinkWaitEvent  ; [] |1170| 
         00004e 0000 
     947                                                      ; [] |1170| 
     948                    .dwpsn  file "C:/Users/409010855/Documents/GitHub/CHARM/Embedded_Voltmeter/Basic WiFi Source/S
     949 000050 412C          MOV.W     0(SP),r12             ; [] |1172| 
     950 000052 411D          MOV.W     2(SP),r13             ; [] |1172| 
         000054 0002 
     951 000056 3C02          JMP       $C$L11                ; [] |1172| 
     952                                                      ; [] |1172| 
     953            ;* --------------------------------------------------------------------------*
     954 000058       $C$L10:    
     955                    .dwpsn  file "C:/Users/409010855/Documents/GitHub/CHARM/Embedded_Voltmeter/Basic WiFi Source/S
     956 000058 433C          MOV.W     #-1,r12               ; [] |1156| 
     957 00005a 433D          MOV.W     #-1,r13               ; [] |1156| 
     958            ;* --------------------------------------------------------------------------*
     959 00005c       $C$L11:    
     960 00005c 5221          ADD.W     #4,SP                 ; [] 
     961                    .dwcfi  cfa_offset, 4
     962            $C$DW$104       .dwtag  DW_TAG_TI_branch
     963                    .dwattr $C$DW$104, DW_AT_low_pc(0x00)
     964                    .dwattr $C$DW$104, DW_AT_TI_return
     965 00005e 0110          RETA      ; [] 
     966                    ; [] 
     967                    .dwattr $C$DW$96, DW_AT_TI_end_file("C:/Users/409010855/Documents/GitHub/CHARM/Embedded_Voltme
     968                    .dwattr $C$DW$96, DW_AT_TI_end_line(0x495)
MSP430 Assembler PC v4.2.1 Fri Mar 21 13:42:39 2014

Tools Copyright (c) 2003-2013 Texas Instruments Incorporated
C:\Users\409010~1\AppData\Local\Temp\0188810                         PAGE   20

     969                    .dwattr $C$DW$96, DW_AT_TI_end_column(0x01)
     970                    .dwendentry
     971                    .dwendtag $C$DW$96
     972            
     973 000000               .sect   ".text:wlan_add_profile"
     974                    .align  2
     975                    .clink
     976                    .global wlan_add_profile
     977            
     978            $C$DW$105       .dwtag  DW_TAG_subprogram, DW_AT_name("wlan_add_profile")
     979                    .dwattr $C$DW$105, DW_AT_low_pc(wlan_add_profile)
     980                    .dwattr $C$DW$105, DW_AT_high_pc(0x00)
     981                    .dwattr $C$DW$105, DW_AT_TI_symbol_name("wlan_add_profile")
     982                    .dwattr $C$DW$105, DW_AT_external
     983                    .dwattr $C$DW$105, DW_AT_type(*$C$DW$T$32)
     984                    .dwattr $C$DW$105, DW_AT_TI_begin_file("C:/Users/409010855/Documents/GitHub/CHARM/Embedded_Vol
     985                    .dwattr $C$DW$105, DW_AT_TI_begin_line(0x287)
     986                    .dwattr $C$DW$105, DW_AT_TI_begin_column(0x07)
     987                    .dwattr $C$DW$105, DW_AT_TI_max_frame_size(0x40)
     988                    .dwpsn  file "C:/Users/409010855/Documents/GitHub/CHARM/Embedded_Voltmeter/Basic WiFi Source/S
     989            
     990                    .dwfde $C$DW$CIE, wlan_add_profile
     991            $C$DW$106       .dwtag  DW_TAG_formal_parameter, DW_AT_name("ulSecType")
     992                    .dwattr $C$DW$106, DW_AT_TI_symbol_name("ulSecType")
     993                    .dwattr $C$DW$106, DW_AT_type(*$C$DW$T$25)
     994                    .dwattr $C$DW$106, DW_AT_location[DW_OP_reg12 DW_OP_piece 2 DW_OP_reg13 DW_OP_piece 2]
     995            $C$DW$107       .dwtag  DW_TAG_formal_parameter, DW_AT_name("ucSsid")
     996                    .dwattr $C$DW$107, DW_AT_TI_symbol_name("ucSsid")
     997                    .dwattr $C$DW$107, DW_AT_type(*$C$DW$T$21)
     998                    .dwattr $C$DW$107, DW_AT_location[DW_OP_reg14]
     999            $C$DW$108       .dwtag  DW_TAG_formal_parameter, DW_AT_name("ulSsidLen")
    1000                    .dwattr $C$DW$108, DW_AT_TI_symbol_name("ulSsidLen")
    1001                    .dwattr $C$DW$108, DW_AT_type(*$C$DW$T$25)
    1002                    .dwattr $C$DW$108, DW_AT_location[DW_OP_reg15 DW_OP_piece 2 DW_OP_reg16 DW_OP_piece 2]
    1003            $C$DW$109       .dwtag  DW_TAG_formal_parameter, DW_AT_name("ucBssid")
    1004                    .dwattr $C$DW$109, DW_AT_TI_symbol_name("ucBssid")
    1005                    .dwattr $C$DW$109, DW_AT_type(*$C$DW$T$21)
    1006                    .dwattr $C$DW$109, DW_AT_location[DW_OP_breg1 66]
    1007            $C$DW$110       .dwtag  DW_TAG_formal_parameter, DW_AT_name("ulPriority")
    1008                    .dwattr $C$DW$110, DW_AT_TI_symbol_name("ulPriority")
    1009                    .dwattr $C$DW$110, DW_AT_type(*$C$DW$T$25)
    1010                    .dwattr $C$DW$110, DW_AT_location[DW_OP_breg1 68]
    1011            $C$DW$111       .dwtag  DW_TAG_formal_parameter, DW_AT_name("ulPairwiseCipher_Or_TxKeyLen")
    1012                    .dwattr $C$DW$111, DW_AT_TI_symbol_name("ulPairwiseCipher_Or_TxKeyLen")
    1013                    .dwattr $C$DW$111, DW_AT_type(*$C$DW$T$25)
    1014                    .dwattr $C$DW$111, DW_AT_location[DW_OP_breg1 72]
    1015            $C$DW$112       .dwtag  DW_TAG_formal_parameter, DW_AT_name("ulGroupCipher_TxKeyIndex")
    1016                    .dwattr $C$DW$112, DW_AT_TI_symbol_name("ulGroupCipher_TxKeyIndex")
    1017                    .dwattr $C$DW$112, DW_AT_type(*$C$DW$T$25)
    1018                    .dwattr $C$DW$112, DW_AT_location[DW_OP_breg1 76]
    1019            $C$DW$113       .dwtag  DW_TAG_formal_parameter, DW_AT_name("ulKeyMgmt")
    1020                    .dwattr $C$DW$113, DW_AT_TI_symbol_name("ulKeyMgmt")
    1021                    .dwattr $C$DW$113, DW_AT_type(*$C$DW$T$25)
    1022                    .dwattr $C$DW$113, DW_AT_location[DW_OP_breg1 80]
    1023            $C$DW$114       .dwtag  DW_TAG_formal_parameter, DW_AT_name("ucPf_OrKey")
MSP430 Assembler PC v4.2.1 Fri Mar 21 13:42:39 2014

Tools Copyright (c) 2003-2013 Texas Instruments Incorporated
C:\Users\409010~1\AppData\Local\Temp\0188810                         PAGE   21

    1024                    .dwattr $C$DW$114, DW_AT_TI_symbol_name("ucPf_OrKey")
    1025                    .dwattr $C$DW$114, DW_AT_type(*$C$DW$T$21)
    1026                    .dwattr $C$DW$114, DW_AT_location[DW_OP_breg1 84]
    1027            $C$DW$115       .dwtag  DW_TAG_formal_parameter, DW_AT_name("ulPassPhraseLen")
    1028                    .dwattr $C$DW$115, DW_AT_TI_symbol_name("ulPassPhraseLen")
    1029                    .dwattr $C$DW$115, DW_AT_type(*$C$DW$T$25)
    1030                    .dwattr $C$DW$115, DW_AT_location[DW_OP_breg1 86]
    1031            
    1032            ;*****************************************************************************
    1033            ;* FUNCTION NAME: wlan_add_profile                                           *
    1034            ;*                                                                           *
    1035            ;*   Regs Modified     : SP,SR,r4,r5,r6,r7,r8,r9,r10,r11,r12,r13,r14,r15     *
    1036            ;*   Regs Used         : SP,SR,r4,r5,r6,r7,r8,r9,r10,r11,r12,r13,r14,r15     *
    1037            ;*   Local Frame Size  : 0 Args + 32 Auto + 28 Save = 60 byte                *
    1038            ;*****************************************************************************
    1039            wlan_add_profile:
    1040            ;* --------------------------------------------------------------------------*
    1041            ;* r11   assigned to i
    1042            $C$DW$116       .dwtag  DW_TAG_variable, DW_AT_name("i")
    1043                    .dwattr $C$DW$116, DW_AT_TI_symbol_name("i")
    1044                    .dwattr $C$DW$116, DW_AT_type(*$C$DW$T$10)
    1045                    .dwattr $C$DW$116, DW_AT_location[DW_OP_reg11]
    1046            $C$DW$117       .dwtag  DW_TAG_variable, DW_AT_name("ulSecType")
    1047                    .dwattr $C$DW$117, DW_AT_TI_symbol_name("ulSecType")
    1048                    .dwattr $C$DW$117, DW_AT_type(*$C$DW$T$164)
    1049                    .dwattr $C$DW$117, DW_AT_location[DW_OP_breg1 10]
    1050            ;* r9    assigned to ucSsid
    1051            $C$DW$118       .dwtag  DW_TAG_variable, DW_AT_name("ucSsid")
    1052                    .dwattr $C$DW$118, DW_AT_TI_symbol_name("ucSsid")
    1053                    .dwattr $C$DW$118, DW_AT_type(*$C$DW$T$84)
    1054                    .dwattr $C$DW$118, DW_AT_location[DW_OP_reg9]
    1055            ;* r8    assigned to ulSsidLen
    1056            $C$DW$119       .dwtag  DW_TAG_variable, DW_AT_name("ulSsidLen")
    1057                    .dwattr $C$DW$119, DW_AT_TI_symbol_name("ulSsidLen")
    1058                    .dwattr $C$DW$119, DW_AT_type(*$C$DW$T$164)
    1059                    .dwattr $C$DW$119, DW_AT_location[DW_OP_reg8 DW_OP_piece 2 DW_OP_reg9 DW_OP_piece 2]
    1060            ;* r10   assigned to ucBssid
    1061            $C$DW$120       .dwtag  DW_TAG_variable, DW_AT_name("ucBssid")
    1062                    .dwattr $C$DW$120, DW_AT_TI_symbol_name("ucBssid")
    1063                    .dwattr $C$DW$120, DW_AT_type(*$C$DW$T$84)
    1064                    .dwattr $C$DW$120, DW_AT_location[DW_OP_reg10]
    1065            $C$DW$121       .dwtag  DW_TAG_variable, DW_AT_name("ulPriority")
    1066                    .dwattr $C$DW$121, DW_AT_TI_symbol_name("ulPriority")
    1067                    .dwattr $C$DW$121, DW_AT_type(*$C$DW$T$164)
    1068                    .dwattr $C$DW$121, DW_AT_location[DW_OP_breg1 14]
    1069            ;* r6    assigned to ulPairwiseCipher_Or_TxKeyLen
    1070            $C$DW$122       .dwtag  DW_TAG_variable, DW_AT_name("ulPairwiseCipher_Or_TxKeyLen")
    1071                    .dwattr $C$DW$122, DW_AT_TI_symbol_name("ulPairwiseCipher_Or_TxKeyLen")
    1072                    .dwattr $C$DW$122, DW_AT_type(*$C$DW$T$164)
    1073                    .dwattr $C$DW$122, DW_AT_location[DW_OP_reg6 DW_OP_piece 2 DW_OP_reg7 DW_OP_piece 2]
    1074            $C$DW$123       .dwtag  DW_TAG_variable, DW_AT_name("ulGroupCipher_TxKeyIndex")
    1075                    .dwattr $C$DW$123, DW_AT_TI_symbol_name("ulGroupCipher_TxKeyIndex")
    1076                    .dwattr $C$DW$123, DW_AT_type(*$C$DW$T$164)
    1077                    .dwattr $C$DW$123, DW_AT_location[DW_OP_breg1 18]
    1078            $C$DW$124       .dwtag  DW_TAG_variable, DW_AT_name("ulKeyMgmt")
MSP430 Assembler PC v4.2.1 Fri Mar 21 13:42:39 2014

Tools Copyright (c) 2003-2013 Texas Instruments Incorporated
C:\Users\409010~1\AppData\Local\Temp\0188810                         PAGE   22

    1079                    .dwattr $C$DW$124, DW_AT_TI_symbol_name("ulKeyMgmt")
    1080                    .dwattr $C$DW$124, DW_AT_type(*$C$DW$T$164)
    1081                    .dwattr $C$DW$124, DW_AT_location[DW_OP_breg1 22]
    1082            $C$DW$125       .dwtag  DW_TAG_variable, DW_AT_name("ucPf_OrKey")
    1083                    .dwattr $C$DW$125, DW_AT_TI_symbol_name("ucPf_OrKey")
    1084                    .dwattr $C$DW$125, DW_AT_type(*$C$DW$T$84)
    1085                    .dwattr $C$DW$125, DW_AT_location[DW_OP_breg1 26]
    1086            ;* r4    assigned to ulPassPhraseLen
    1087            $C$DW$126       .dwtag  DW_TAG_variable, DW_AT_name("ulPassPhraseLen")
    1088                    .dwattr $C$DW$126, DW_AT_TI_symbol_name("ulPassPhraseLen")
    1089                    .dwattr $C$DW$126, DW_AT_type(*$C$DW$T$164)
    1090                    .dwattr $C$DW$126, DW_AT_location[DW_OP_reg4 DW_OP_piece 2 DW_OP_reg5 DW_OP_piece 2]
    1091            ;* r14   assigned to arg_len
    1092            $C$DW$127       .dwtag  DW_TAG_variable, DW_AT_name("arg_len")
    1093                    .dwattr $C$DW$127, DW_AT_TI_symbol_name("arg_len")
    1094                    .dwattr $C$DW$127, DW_AT_type(*$C$DW$T$19)
    1095                    .dwattr $C$DW$127, DW_AT_location[DW_OP_reg14]
    1096            $C$DW$128       .dwtag  DW_TAG_variable, DW_AT_name("ret")
    1097                    .dwattr $C$DW$128, DW_AT_TI_symbol_name("ret")
    1098                    .dwattr $C$DW$128, DW_AT_type(*$C$DW$T$32)
    1099                    .dwattr $C$DW$128, DW_AT_location[DW_OP_breg1 0]
    1100            $C$DW$129       .dwtag  DW_TAG_variable, DW_AT_name("ptr")
    1101                    .dwattr $C$DW$129, DW_AT_TI_symbol_name("ptr")
    1102                    .dwattr $C$DW$129, DW_AT_type(*$C$DW$T$21)
    1103                    .dwattr $C$DW$129, DW_AT_location[DW_OP_breg1 30]
    1104            ;* r15   assigned to args
    1105            $C$DW$130       .dwtag  DW_TAG_variable, DW_AT_name("args")
    1106                    .dwattr $C$DW$130, DW_AT_TI_symbol_name("args")
    1107                    .dwattr $C$DW$130, DW_AT_type(*$C$DW$T$21)
    1108                    .dwattr $C$DW$130, DW_AT_location[DW_OP_reg15]
    1109            ;* r14   assigned to _i
    1110            $C$DW$131       .dwtag  DW_TAG_variable, DW_AT_name("_i")
    1111                    .dwattr $C$DW$131, DW_AT_TI_symbol_name("_i")
    1112                    .dwattr $C$DW$131, DW_AT_type(*$C$DW$T$48)
    1113                    .dwattr $C$DW$131, DW_AT_location[DW_OP_reg14]
    1114            ;* r14   assigned to _i
    1115            $C$DW$132       .dwtag  DW_TAG_variable, DW_AT_name("_i")
    1116                    .dwattr $C$DW$132, DW_AT_TI_symbol_name("_i")
    1117                    .dwattr $C$DW$132, DW_AT_type(*$C$DW$T$48)
    1118                    .dwattr $C$DW$132, DW_AT_location[DW_OP_reg14]
    1119            ;* r14   assigned to _i
    1120            $C$DW$133       .dwtag  DW_TAG_variable, DW_AT_name("_i")
    1121                    .dwattr $C$DW$133, DW_AT_TI_symbol_name("_i")
    1122                    .dwattr $C$DW$133, DW_AT_type(*$C$DW$T$48)
    1123                    .dwattr $C$DW$133, DW_AT_location[DW_OP_reg14]
    1124            ;* r14   assigned to _i
    1125            $C$DW$134       .dwtag  DW_TAG_variable, DW_AT_name("_i")
    1126                    .dwattr $C$DW$134, DW_AT_TI_symbol_name("_i")
    1127                    .dwattr $C$DW$134, DW_AT_type(*$C$DW$T$48)
    1128                    .dwattr $C$DW$134, DW_AT_location[DW_OP_reg14]
    1129            ;* r14   assigned to _i
    1130            $C$DW$135       .dwtag  DW_TAG_variable, DW_AT_name("_i")
    1131                    .dwattr $C$DW$135, DW_AT_TI_symbol_name("_i")
    1132                    .dwattr $C$DW$135, DW_AT_type(*$C$DW$T$48)
    1133                    .dwattr $C$DW$135, DW_AT_location[DW_OP_reg14]
MSP430 Assembler PC v4.2.1 Fri Mar 21 13:42:39 2014

Tools Copyright (c) 2003-2013 Texas Instruments Incorporated
C:\Users\409010~1\AppData\Local\Temp\0188810                         PAGE   23

    1134            ;* r14   assigned to $O$L7
    1135            ;* r13   assigned to $O$L6
    1136            ;* r14   assigned to $O$L4
    1137            ;* r13   assigned to $O$L3
    1138            ;* r14   assigned to $O$L2
    1139            ;* r13   assigned to $O$L1
    1140            ;* r9    assigned to $O$U120
    1141            ;* r10   assigned to $O$U114
    1142            ;* r14   assigned to $O$U108
    1143            ;* r12   assigned to $O$U91
    1144            ;* r9    assigned to $O$U77
    1145            ;* r10   assigned to $O$U69
    1146            ;* r14   assigned to $O$U63
    1147            ;* r13   assigned to $O$U51
    1148            ;* r9    assigned to $O$U42
    1149            ;* r10   assigned to $O$U32
    1150            ;* r14   assigned to $O$U23
    1151            $C$DW$136       .dwtag  DW_TAG_variable, DW_AT_name("bssid_zero")
    1152                    .dwattr $C$DW$136, DW_AT_TI_symbol_name("bssid_zero")
    1153                    .dwattr $C$DW$136, DW_AT_type(*$C$DW$T$87)
    1154                    .dwattr $C$DW$136, DW_AT_location[DW_OP_breg1 4]
    1155                    .dwcfi  cfa_offset, 4
    1156                    .dwcfi  save_reg_to_mem, 16, -4
    1157 000000 146A          PUSHM.A   #7,r10                ; [] 
    1158                    .dwcfi  save_reg_to_mem, 10, -8
    1159                    .dwcfi  save_reg_to_mem, 9, -12
    1160                    .dwcfi  save_reg_to_mem, 8, -16
    1161                    .dwcfi  save_reg_to_mem, 7, -20
    1162                    .dwcfi  save_reg_to_mem, 6, -24
    1163                    .dwcfi  save_reg_to_mem, 5, -28
    1164                    .dwcfi  save_reg_to_mem, 4, -32
    1165                    .dwcfi  cfa_offset, 32
    1166 000002 8031          SUB.W     #32,SP                ; [] 
         000004 0020 
    1167                    .dwcfi  cfa_offset, 64
    1168 000006 0FC8          MOVA      r15,r8                ; [] |657| 
    1169 000008 0EC9          MOVA      r14,r9                ; [] |657| 
    1170 00000a 4C81          MOV.W     r12,10(SP)            ; [] 
         00000c 000A 
    1171 00000e 4D81          MOV.W     r13,12(SP)            ; [] 
         000010 000C 
    1172 000012 4114          MOV.W     86(SP),r4             ; [] |657| 
         000014 0056 
    1173 000016 4191          MOV.W     88(SP),28(SP)         ; [] |657| 
         000018 0058 
         00001a 001C 
    1174 00001c 4191          MOV.W     84(SP),26(SP)         ; [] |657| 
         00001e 0054 
         000020 001A 
    1175 000022 4191          MOV.W     80(SP),22(SP)         ; [] |657| 
         000024 0050 
         000026 0016 
    1176 000028 4191          MOV.W     82(SP),24(SP)         ; [] |657| 
         00002a 0052 
         00002c 0018 
MSP430 Assembler PC v4.2.1 Fri Mar 21 13:42:39 2014

Tools Copyright (c) 2003-2013 Texas Instruments Incorporated
C:\Users\409010~1\AppData\Local\Temp\0188810                         PAGE   24

    1177 00002e 4191          MOV.W     76(SP),18(SP)         ; [] |657| 
         000030 004C 
         000032 0012 
    1178 000034 4191          MOV.W     78(SP),20(SP)         ; [] |657| 
         000036 004E 
         000038 0014 
    1179 00003a 4116          MOV.W     72(SP),r6             ; [] |657| 
         00003c 0048 
    1180 00003e 4115          MOV.W     74(SP),r5             ; [] |657| 
         000040 004A 
    1181 000042 4191          MOV.W     68(SP),14(SP)         ; [] |657| 
         000044 0044 
         000046 000E 
    1182 000048 4191          MOV.W     70(SP),16(SP)         ; [] |657| 
         00004a 0046 
         00004c 0010 
    1183 00004e 411A          MOV.W     66(SP),r10            ; [] |657| 
         000050 0042 
    1184 000052 4117          MOV.W     64(SP),r7             ; [] |657| 
         000054 0040 
    1185                    .dwpsn  file "C:/Users/409010855/Documents/GitHub/CHARM/Embedded_Voltmeter/Basic WiFi Source/S
    1186 000056 01CC          MOVA      SP,r12                ; [] |663| 
    1187 000058 522C          ADD.W     #4,r12                ; [] |663| 
    1188 00005a 430D          MOV.W     #0,r13                ; [] |663| 
    1189 00005c 403E          MOV.W     #6,r14                ; [] |663| 
         00005e 0006 
    1190            $C$DW$137       .dwtag  DW_TAG_TI_branch
    1191                    .dwattr $C$DW$137, DW_AT_low_pc(0x00)
    1192                    .dwattr $C$DW$137, DW_AT_name("memset")
    1193                    .dwattr $C$DW$137, DW_AT_TI_call
    1194 000060 13B0!         CALLA     #memset               ; [] |663| 
         000062 0000 
    1195                                                      ; [] |663| 
    1196                    .dwpsn  file "C:/Users/409010855/Documents/GitHub/CHARM/Embedded_Voltmeter/Basic WiFi Source/S
    1197 000064 4291          MOV.W     &tSLInformation+6,30(SP) ; [] |665| 
         000066 0006!
         000068 001E 
    1198 00006a 411C          MOV.W     30(SP),r12            ; [] 
         00006c 001E 
    1199                    .dwpsn  file "C:/Users/409010855/Documents/GitHub/CHARM/Embedded_Voltmeter/Basic WiFi Source/S
    1200 00006e 503C          ADD.W     #9,r12                ; [] |668| 
         000070 0009 
    1201 000072 411D          MOV.W     10(SP),r13            ; [] 
         000074 000A 
    1202 000076 411E          MOV.W     12(SP),r14            ; [] 
         000078 000C 
    1203            $C$DW$138       .dwtag  DW_TAG_TI_branch
    1204                    .dwattr $C$DW$138, DW_AT_low_pc(0x00)
    1205                    .dwattr $C$DW$138, DW_AT_name("UINT32_TO_STREAM_f")
    1206                    .dwattr $C$DW$138, DW_AT_TI_call
    1207 00007a 13B0!         CALLA     #UINT32_TO_STREAM_f   ; [] |668| 
         00007c 0000 
    1208                                                      ; [] |668| 
    1209 00007e 411E          MOV.W     10(SP),r14            ; [] 
         000080 000A 
MSP430 Assembler PC v4.2.1 Fri Mar 21 13:42:39 2014

Tools Copyright (c) 2003-2013 Texas Instruments Incorporated
C:\Users\409010~1\AppData\Local\Temp\0188810                         PAGE   25

    1210 000082 411D          MOV.W     12(SP),r13            ; [] 
         000084 000C 
    1211                    .dwpsn  file "C:/Users/409010855/Documents/GitHub/CHARM/Embedded_Voltmeter/Basic WiFi Source/S
    1212 000086 930D          TST.W     r13                   ; [] |671| 
    1213 000088 2002          JNE       $C$L12                ; [] |671| 
    1214                                                      ; [] |671| 
    1215            ;* --------------------------------------------------------------------------*
    1216 00008a 930E          TST.W     r14                   ; [] |671| 
    1217 00008c 24A4          JEQ       $C$L36                ; [] |671| 
    1218                                                      ; [] |671| 
    1219            ;* --------------------------------------------------------------------------*
    1220 00008e       $C$L12:    
    1221 00008e 831E          SUB.W     #1,r14                ; [] |671| 
    1222 000090 730D          SUBC.W    #0,r13                ; [] |671| 
    1223 000092 2002          JNE       $C$L13                ; [] |671| 
    1224                                                      ; [] |671| 
    1225            ;* --------------------------------------------------------------------------*
    1226 000094 930E          TST.W     r14                   ; [] |671| 
    1227 000096 2456          JEQ       $C$L24                ; [] |671| 
    1228                                                      ; [] |671| 
    1229            ;* --------------------------------------------------------------------------*
    1230 000098       $C$L13:    
    1231 000098 831E          SUB.W     #1,r14                ; [] |671| 
    1232 00009a 730D          SUBC.W    #0,r13                ; [] |671| 
    1233 00009c 20BF          JNE       $C$L44                ; [] |671| 
    1234                                                      ; [] |671| 
    1235            ;* --------------------------------------------------------------------------*
    1236 00009e 932E          CMP.W     #2,r14                ; [] |671| 
    1237 0000a0 2CBD          JHS       $C$L44                ; [] |671| 
    1238                                                      ; [] |671| 
    1239            ;* --------------------------------------------------------------------------*
    1240                    .dwpsn  file "C:/Users/409010855/Documents/GitHub/CHARM/Embedded_Voltmeter/Basic WiFi Source/S
    1241 0000a2 403D          MOV.W     #40,r13               ; [] |732| 
         0000a4 0028 
    1242            $C$DW$139       .dwtag  DW_TAG_TI_branch
    1243                    .dwattr $C$DW$139, DW_AT_low_pc(0x00)
    1244                    .dwattr $C$DW$139, DW_AT_name("$abproc1")
    1245                    .dwattr $C$DW$139, DW_AT_TI_call
    1246 0000a6 13B0!         CALLA     #$abproc1             ; [] 
         0000a8 025C 
    1247                                                      ; [] 
    1248                    .dwpsn  file "C:/Users/409010855/Documents/GitHub/CHARM/Embedded_Voltmeter/Basic WiFi Source/S
    1249 0000aa 2008          JNE       $C$L15                ; [] |735| 
    1250                                                      ; [] |735| 
    1251            ;* --------------------------------------------------------------------------*
    1252                    .dwpsn  file "C:/Users/409010855/Documents/GitHub/CHARM/Embedded_Voltmeter/Basic WiFi Source/S
    1253 0000ac 403D          MOV.W     #6,r13                ; [] |741| 
         0000ae 0006 
    1254 0000b0 01CE          MOVA      SP,r14                ; [] 
    1255 0000b2 522E          ADD.W     #4,r14                ; [] 
    1256            ;* --------------------------------------------------------------------------*
    1257            ;*   BEGIN LOOP $C$L14
    1258            ;*
    1259            ;*   Loop source line                : 741
    1260            ;*   Loop closing brace source line  : 741
MSP430 Assembler PC v4.2.1 Fri Mar 21 13:42:39 2014

Tools Copyright (c) 2003-2013 Texas Instruments Incorporated
C:\Users\409010~1\AppData\Local\Temp\0188810                         PAGE   26

    1261            ;*   Known Minimum Trip Count        : 6
    1262            ;*   Known Maximum Trip Count        : 6
    1263            ;*   Known Max Trip Count Factor     : 6
    1264            ;* --------------------------------------------------------------------------*
    1265            $C$L14:    
    1266            $C$DW$140       .dwtag  DW_TAG_TI_branch
    1267                    .dwattr $C$DW$140, DW_AT_low_pc(0x00)
    1268                    .dwattr $C$DW$140, DW_AT_name("$abproc4")
    1269                    .dwattr $C$DW$140, DW_AT_TI_call
    1270 0000b4 13B0!         CALLA     #$abproc4             ; [] 
         0000b6 029A 
    1271                                                      ; [] 
    1272 0000b8 23FD          JNE       $C$L14                ; [] |741| 
    1273                                                      ; [] |741| 
    1274            ;* --------------------------------------------------------------------------*
    1275 0000ba 3C05          JMP       $C$L17                ; [] |741| 
    1276                                                      ; [] |741| 
    1277            ;* --------------------------------------------------------------------------*
    1278 0000bc       $C$L15:    
    1279                    .dwpsn  file "C:/Users/409010855/Documents/GitHub/CHARM/Embedded_Voltmeter/Basic WiFi Source/S
    1280 0000bc 403E          MOV.W     #6,r14                ; [] |737| 
         0000be 0006 
    1281            ;* --------------------------------------------------------------------------*
    1282            ;*   BEGIN LOOP $C$L16
    1283            ;*
    1284            ;*   Loop source line                : 737
    1285            ;*   Loop closing brace source line  : 737
    1286            ;*   Known Minimum Trip Count        : 6
    1287            ;*   Known Maximum Trip Count        : 6
    1288            ;*   Known Max Trip Count Factor     : 6
    1289            ;* --------------------------------------------------------------------------*
    1290            $C$L16:    
    1291            $C$DW$141       .dwtag  DW_TAG_TI_branch
    1292                    .dwattr $C$DW$141, DW_AT_low_pc(0x00)
    1293                    .dwattr $C$DW$141, DW_AT_name("$abproc5")
    1294                    .dwattr $C$DW$141, DW_AT_TI_call
    1295 0000c0 13B0!         CALLA     #$abproc5             ; [] 
         0000c2 02A4 
    1296                                                      ; [] 
    1297 0000c4 23FD          JNE       $C$L16                ; [] |737| 
    1298                                                      ; [] |737| 
    1299            ;* --------------------------------------------------------------------------*
    1300 0000c6       $C$L17:    
    1301                    .dwpsn  file "C:/Users/409010855/Documents/GitHub/CHARM/Embedded_Voltmeter/Basic WiFi Source/S
    1302 0000c6 0FCC          MOVA      r15,r12               ; [] |743| 
    1303 0000c8 411D          MOV.W     14(SP),r13            ; [] 
         0000ca 000E 
    1304 0000cc 411E          MOV.W     16(SP),r14            ; [] 
         0000ce 0010 
    1305            $C$DW$142       .dwtag  DW_TAG_TI_branch
    1306                    .dwattr $C$DW$142, DW_AT_low_pc(0x00)
    1307                    .dwattr $C$DW$142, DW_AT_name("$abproc0")
    1308                    .dwattr $C$DW$142, DW_AT_TI_call
    1309 0000d0 13B0!         CALLA     #$abproc0             ; [] 
         0000d2 0242 
MSP430 Assembler PC v4.2.1 Fri Mar 21 13:42:39 2014

Tools Copyright (c) 2003-2013 Texas Instruments Incorporated
C:\Users\409010~1\AppData\Local\Temp\0188810                         PAGE   27

    1310                                                      ; [] 
    1311 0000d4 411D          MOV.W     22(SP),r13            ; [] 
         0000d6 0016 
    1312 0000d8 411E          MOV.W     24(SP),r14            ; [] 
         0000da 0018 
    1313                    .dwpsn  file "C:/Users/409010855/Documents/GitHub/CHARM/Embedded_Voltmeter/Basic WiFi Source/S
    1314            $C$DW$143       .dwtag  DW_TAG_TI_branch
    1315                    .dwattr $C$DW$143, DW_AT_low_pc(0x00)
    1316                    .dwattr $C$DW$143, DW_AT_name("UINT32_TO_STREAM_f")
    1317                    .dwattr $C$DW$143, DW_AT_TI_call
    1318 0000dc 13B0!         CALLA     #UINT32_TO_STREAM_f   ; [] |746| 
         0000de 0000 
    1319                                                      ; [] |746| 
    1320                    .dwpsn  file "C:/Users/409010855/Documents/GitHub/CHARM/Embedded_Voltmeter/Basic WiFi Source/S
    1321 0000e0 08CD          MOVA      r8,r13                ; [] |747| 
    1322 0000e2 07CE          MOVA      r7,r14                ; [] |747| 
    1323 0000e4 523D          ADD.W     #8,r13                ; [] |747| 
    1324 0000e6 630E          ADDC.W    #0,r14                ; [] |747| 
    1325            $C$DW$144       .dwtag  DW_TAG_TI_branch
    1326                    .dwattr $C$DW$144, DW_AT_low_pc(0x00)
    1327                    .dwattr $C$DW$144, DW_AT_name("UINT32_TO_STREAM_f")
    1328                    .dwattr $C$DW$144, DW_AT_TI_call
    1329 0000e8 13B0!         CALLA     #UINT32_TO_STREAM_f   ; [] |747| 
         0000ea 0000 
    1330                                                      ; [] |747| 
    1331                    .dwpsn  file "C:/Users/409010855/Documents/GitHub/CHARM/Embedded_Voltmeter/Basic WiFi Source/S
    1332 0000ec 04CD          MOVA      r4,r13                ; [] |748| 
    1333 0000ee 411E          MOV.W     28(SP),r14            ; [] 
         0000f0 001C 
    1334            $C$DW$145       .dwtag  DW_TAG_TI_branch
    1335                    .dwattr $C$DW$145, DW_AT_low_pc(0x00)
    1336                    .dwattr $C$DW$145, DW_AT_name("UINT32_TO_STREAM_f")
    1337                    .dwattr $C$DW$145, DW_AT_TI_call
    1338 0000f2 13B0!         CALLA     #UINT32_TO_STREAM_f   ; [] |748| 
         0000f4 0000 
    1339                                                      ; [] |748| 
    1340 0000f6 0CCF          MOVA      r12,r15               ; [] |748| 
    1341                    .dwpsn  file "C:/Users/409010855/Documents/GitHub/CHARM/Embedded_Voltmeter/Basic WiFi Source/S
    1342 0000f8 9307          TST.W     r7                    ; [] |749| 
    1343 0000fa 2002          JNE       $C$L18                ; [] |749| 
    1344                                                      ; [] |749| 
    1345            ;* --------------------------------------------------------------------------*
    1346 0000fc 9308          TST.W     r8                    ; [] |749| 
    1347 0000fe 2407          JEQ       $C$L20                ; [] |749| 
    1348                                                      ; [] |749| 
    1349            ;* --------------------------------------------------------------------------*
    1350 000100       $C$L18:    
    1351 000100 430E          MOV.W     #0,r14                ; [] |749| 
    1352            ;* --------------------------------------------------------------------------*
    1353            ;*   BEGIN LOOP $C$L19
    1354            ;*
    1355            ;*   Loop source line                : 749
    1356            ;*   Loop closing brace source line  : 749
    1357            ;*   Known Minimum Trip Count        : 1
    1358            ;*   Known Maximum Trip Count        : 4294967295
MSP430 Assembler PC v4.2.1 Fri Mar 21 13:42:39 2014

Tools Copyright (c) 2003-2013 Texas Instruments Incorporated
C:\Users\409010~1\AppData\Local\Temp\0188810                         PAGE   28

    1359            ;*   Known Max Trip Count Factor     : 1
    1360            ;* --------------------------------------------------------------------------*
    1361            $C$L19:    
    1362            $C$DW$146       .dwtag  DW_TAG_TI_branch
    1363                    .dwattr $C$DW$146, DW_AT_low_pc(0x00)
    1364                    .dwattr $C$DW$146, DW_AT_name("$abproc2")
    1365                    .dwattr $C$DW$146, DW_AT_TI_call
    1366 000102 13B0!         CALLA     #$abproc2             ; [] 
         000104 0276 
    1367                                                      ; [] 
    1368 000106 2BFD          JLO       $C$L19                ; [] |749| 
    1369                                                      ; [] |749| 
    1370            ;* --------------------------------------------------------------------------*
    1371 000108 2002          JNE       $C$L20                ; [] |749| 
    1372                                                      ; [] |749| 
    1373            ;* --------------------------------------------------------------------------*
    1374 00010a 980E          CMP.W     r8,r14                ; [] |749| 
    1375 00010c 2BFA          JLO       $C$L19                ; [] |749| 
    1376                                                      ; [] |749| 
    1377            ;* --------------------------------------------------------------------------*
    1378 00010e       $C$L20:    
    1379                    .dwpsn  file "C:/Users/409010855/Documents/GitHub/CHARM/Embedded_Voltmeter/Basic WiFi Source/S
    1380 00010e 9381          TST.W     28(SP)                ; [] |750| 
         000110 001C 
    1381 000112 2002          JNE       $C$L21                ; [] |750| 
    1382                                                      ; [] |750| 
    1383            ;* --------------------------------------------------------------------------*
    1384 000114 9304          TST.W     r4                    ; [] |750| 
    1385 000116 2411          JEQ       $C$L23                ; [] |750| 
    1386                                                      ; [] |750| 
    1387            ;* --------------------------------------------------------------------------*
    1388 000118       $C$L21:    
    1389 000118 411D          MOV.W     26(SP),r13            ; [] 
         00011a 001A 
    1390 00011c 430E          MOV.W     #0,r14                ; [] |750| 
    1391            ;* --------------------------------------------------------------------------*
    1392            ;*   BEGIN LOOP $C$L22
    1393            ;*
    1394            ;*   Loop source line                : 750
    1395            ;*   Loop closing brace source line  : 750
    1396            ;*   Known Minimum Trip Count        : 1
    1397            ;*   Known Maximum Trip Count        : 4294967295
    1398            ;*   Known Max Trip Count Factor     : 1
    1399            ;* --------------------------------------------------------------------------*
    1400 00011e       $C$L22:    
    1401 00011e 531F          ADD.W     #1,r15                ; [] |750| 
    1402 000120 4DFF          MOV.B     @r13+,-1(r15)         ; [] |750| 
         000122 FFFF 
    1403 000124 531E          ADD.W     #1,r14                ; [] |750| 
    1404 000126 B03E          BIT.W     #32768,r14            ; [] |750| 
         000128 8000 
    1405 00012a 7B0B          SUBC.W    r11,r11               ; [] |750| 
    1406 00012c E33B          INV.W     r11                   ; [] |750| 
    1407 00012e 911B          CMP.W     28(SP),r11            ; [] |750| 
         000130 001C 
MSP430 Assembler PC v4.2.1 Fri Mar 21 13:42:39 2014

Tools Copyright (c) 2003-2013 Texas Instruments Incorporated
C:\Users\409010~1\AppData\Local\Temp\0188810                         PAGE   29

    1408 000132 2BF5          JLO       $C$L22                ; [] |750| 
    1409                                                      ; [] |750| 
    1410            ;* --------------------------------------------------------------------------*
    1411 000134 2002          JNE       $C$L23                ; [] |750| 
    1412                                                      ; [] |750| 
    1413            ;* --------------------------------------------------------------------------*
    1414 000136 940E          CMP.W     r4,r14                ; [] |750| 
    1415 000138 2BF2          JLO       $C$L22                ; [] |750| 
    1416                                                      ; [] |750| 
    1417            ;* --------------------------------------------------------------------------*
    1418 00013a       $C$L23:    
    1419                    .dwpsn  file "C:/Users/409010855/Documents/GitHub/CHARM/Embedded_Voltmeter/Basic WiFi Source/S
    1420 00013a 08CE          MOVA      r8,r14                ; [] |752| 
    1421 00013c 540E          ADD.W     r4,r14                ; [] |752| 
    1422 00013e 503E          ADD.W     #44,r14               ; [] |752| 
         000140 002C 
    1423                    .dwpsn  file "C:/Users/409010855/Documents/GitHub/CHARM/Embedded_Voltmeter/Basic WiFi Source/S
    1424 000142 3C6C          JMP       $C$L44                ; [] |755| 
    1425                                                      ; [] |755| 
    1426            ;* --------------------------------------------------------------------------*
    1427 000144       $C$L24:    
    1428                    .dwpsn  file "C:/Users/409010855/Documents/GitHub/CHARM/Embedded_Voltmeter/Basic WiFi Source/S
    1429 000144 403D          MOV.W     #32,r13               ; [] |697| 
         000146 0020 
    1430            $C$DW$147       .dwtag  DW_TAG_TI_branch
    1431                    .dwattr $C$DW$147, DW_AT_low_pc(0x00)
    1432                    .dwattr $C$DW$147, DW_AT_name("$abproc1")
    1433                    .dwattr $C$DW$147, DW_AT_TI_call
    1434 000148 13B0!         CALLA     #$abproc1             ; [] 
         00014a 025C 
    1435                                                      ; [] 
    1436                    .dwpsn  file "C:/Users/409010855/Documents/GitHub/CHARM/Embedded_Voltmeter/Basic WiFi Source/S
    1437 00014c 2008          JNE       $C$L26                ; [] |700| 
    1438                                                      ; [] |700| 
    1439            ;* --------------------------------------------------------------------------*
    1440                    .dwpsn  file "C:/Users/409010855/Documents/GitHub/CHARM/Embedded_Voltmeter/Basic WiFi Source/S
    1441 00014e 403D          MOV.W     #6,r13                ; [] |706| 
         000150 0006 
    1442 000152 01CE          MOVA      SP,r14                ; [] 
    1443 000154 522E          ADD.W     #4,r14                ; [] 
    1444            ;* --------------------------------------------------------------------------*
    1445            ;*   BEGIN LOOP $C$L25
    1446            ;*
    1447            ;*   Loop source line                : 706
    1448            ;*   Loop closing brace source line  : 706
    1449            ;*   Known Minimum Trip Count        : 6
    1450            ;*   Known Maximum Trip Count        : 6
    1451            ;*   Known Max Trip Count Factor     : 6
    1452            ;* --------------------------------------------------------------------------*
    1453            $C$L25:    
    1454            $C$DW$148       .dwtag  DW_TAG_TI_branch
    1455                    .dwattr $C$DW$148, DW_AT_low_pc(0x00)
    1456                    .dwattr $C$DW$148, DW_AT_name("$abproc4")
    1457                    .dwattr $C$DW$148, DW_AT_TI_call
    1458 000156 13B0!         CALLA     #$abproc4             ; [] 
MSP430 Assembler PC v4.2.1 Fri Mar 21 13:42:39 2014

Tools Copyright (c) 2003-2013 Texas Instruments Incorporated
C:\Users\409010~1\AppData\Local\Temp\0188810                         PAGE   30

         000158 029A 
    1459                                                      ; [] 
    1460 00015a 23FD          JNE       $C$L25                ; [] |706| 
    1461                                                      ; [] |706| 
    1462            ;* --------------------------------------------------------------------------*
    1463 00015c 3C05          JMP       $C$L28                ; [] |706| 
    1464                                                      ; [] |706| 
    1465            ;* --------------------------------------------------------------------------*
    1466 00015e       $C$L26:    
    1467                    .dwpsn  file "C:/Users/409010855/Documents/GitHub/CHARM/Embedded_Voltmeter/Basic WiFi Source/S
    1468 00015e 403E          MOV.W     #6,r14                ; [] |702| 
         000160 0006 
    1469            ;* --------------------------------------------------------------------------*
    1470            ;*   BEGIN LOOP $C$L27
    1471            ;*
    1472            ;*   Loop source line                : 702
    1473            ;*   Loop closing brace source line  : 702
    1474            ;*   Known Minimum Trip Count        : 6
    1475            ;*   Known Maximum Trip Count        : 6
    1476            ;*   Known Max Trip Count Factor     : 6
    1477            ;* --------------------------------------------------------------------------*
    1478            $C$L27:    
    1479            $C$DW$149       .dwtag  DW_TAG_TI_branch
    1480                    .dwattr $C$DW$149, DW_AT_low_pc(0x00)
    1481                    .dwattr $C$DW$149, DW_AT_name("$abproc5")
    1482                    .dwattr $C$DW$149, DW_AT_TI_call
    1483 000162 13B0!         CALLA     #$abproc5             ; [] 
         000164 02A4 
    1484                                                      ; [] 
    1485 000166 23FD          JNE       $C$L27                ; [] |702| 
    1486                                                      ; [] |702| 
    1487            ;* --------------------------------------------------------------------------*
    1488            $C$L28:    
    1489            $C$DW$150       .dwtag  DW_TAG_TI_branch
    1490                    .dwattr $C$DW$150, DW_AT_low_pc(0x00)
    1491                    .dwattr $C$DW$150, DW_AT_name("$abproc3")
    1492                    .dwattr $C$DW$150, DW_AT_TI_call
    1493 000168 13B0!         CALLA     #$abproc3             ; [] 
         00016a 028A 
    1494                                                      ; [] 
    1495                    .dwpsn  file "C:/Users/409010855/Documents/GitHub/CHARM/Embedded_Voltmeter/Basic WiFi Source/S
    1496 00016c 08CD          MOVA      r8,r13                ; [] |709| 
    1497 00016e 07CE          MOVA      r7,r14                ; [] |709| 
    1498 000170 503D          ADD.W     #12,r13               ; [] |709| 
         000172 000C 
    1499 000174 630E          ADDC.W    #0,r14                ; [] |709| 
    1500            $C$DW$151       .dwtag  DW_TAG_TI_branch
    1501                    .dwattr $C$DW$151, DW_AT_low_pc(0x00)
    1502                    .dwattr $C$DW$151, DW_AT_name("$abproc0")
    1503                    .dwattr $C$DW$151, DW_AT_TI_call
    1504 000176 13B0!         CALLA     #$abproc0             ; [] 
         000178 0242 
    1505                                                      ; [] 
    1506                    .dwpsn  file "C:/Users/409010855/Documents/GitHub/CHARM/Embedded_Voltmeter/Basic WiFi Source/S
    1507 00017a 0CCF          MOVA      r12,r15               ; [] |711| 
MSP430 Assembler PC v4.2.1 Fri Mar 21 13:42:39 2014

Tools Copyright (c) 2003-2013 Texas Instruments Incorporated
C:\Users\409010~1\AppData\Local\Temp\0188810                         PAGE   31

    1508                    .dwpsn  file "C:/Users/409010855/Documents/GitHub/CHARM/Embedded_Voltmeter/Basic WiFi Source/S
    1509 00017c 9307          TST.W     r7                    ; [] |712| 
    1510 00017e 2002          JNE       $C$L29                ; [] |712| 
    1511                                                      ; [] |712| 
    1512            ;* --------------------------------------------------------------------------*
    1513 000180 9308          TST.W     r8                    ; [] |712| 
    1514 000182 2407          JEQ       $C$L31                ; [] |712| 
    1515                                                      ; [] |712| 
    1516            ;* --------------------------------------------------------------------------*
    1517 000184       $C$L29:    
    1518 000184 430E          MOV.W     #0,r14                ; [] |712| 
    1519            ;* --------------------------------------------------------------------------*
    1520            ;*   BEGIN LOOP $C$L30
    1521            ;*
    1522            ;*   Loop source line                : 712
    1523            ;*   Loop closing brace source line  : 712
    1524            ;*   Known Minimum Trip Count        : 1
    1525            ;*   Known Maximum Trip Count        : 4294967295
    1526            ;*   Known Max Trip Count Factor     : 1
    1527            ;* --------------------------------------------------------------------------*
    1528            $C$L30:    
    1529            $C$DW$152       .dwtag  DW_TAG_TI_branch
    1530                    .dwattr $C$DW$152, DW_AT_low_pc(0x00)
    1531                    .dwattr $C$DW$152, DW_AT_name("$abproc2")
    1532                    .dwattr $C$DW$152, DW_AT_TI_call
    1533 000186 13B0!         CALLA     #$abproc2             ; [] 
         000188 0276 
    1534                                                      ; [] 
    1535 00018a 2BFD          JLO       $C$L30                ; [] |712| 
    1536                                                      ; [] |712| 
    1537            ;* --------------------------------------------------------------------------*
    1538 00018c 2002          JNE       $C$L31                ; [] |712| 
    1539                                                      ; [] |712| 
    1540            ;* --------------------------------------------------------------------------*
    1541 00018e 980E          CMP.W     r8,r14                ; [] |712| 
    1542 000190 2BFA          JLO       $C$L30                ; [] |712| 
    1543                                                      ; [] |712| 
    1544            ;* --------------------------------------------------------------------------*
    1545 000192       $C$L31:    
    1546 000192 430B          MOV.W     #0,r11                ; [] 
    1547            ;* --------------------------------------------------------------------------*
    1548            ;*   BEGIN LOOP $C$L32
    1549            ;*
    1550            ;*   Loop source line                : 714
    1551            ;*   Loop closing brace source line  : 719
    1552            ;*   Known Minimum Trip Count        : 4
    1553            ;*   Known Maximum Trip Count        : 4
    1554            ;*   Known Max Trip Count Factor     : 4
    1555            ;* --------------------------------------------------------------------------*
    1556 000194       $C$L32:    
    1557                    .dwpsn  file "C:/Users/409010855/Documents/GitHub/CHARM/Embedded_Voltmeter/Basic WiFi Source/S
    1558 000194 9305          TST.W     r5                    ; [] |718| 
    1559 000196 2002          JNE       $C$L33                ; [] |718| 
    1560                                                      ; [] |718| 
    1561            ;* --------------------------------------------------------------------------*
MSP430 Assembler PC v4.2.1 Fri Mar 21 13:42:39 2014

Tools Copyright (c) 2003-2013 Texas Instruments Incorporated
C:\Users\409010~1\AppData\Local\Temp\0188810                         PAGE   32

    1562 000198 9306          TST.W     r6                    ; [] |718| 
    1563 00019a 2414          JEQ       $C$L35                ; [] |718| 
    1564                                                      ; [] |718| 
    1565            ;* --------------------------------------------------------------------------*
    1566 00019c       $C$L33:    
    1567 00019c 06CC          MOVA      r6,r12                ; [] 
    1568 00019e 0BCD          MOVA      r11,r13               ; [] 
    1569            $C$DW$153       .dwtag  DW_TAG_TI_branch
    1570                    .dwattr $C$DW$153, DW_AT_low_pc(0x00)
    1571                    .dwattr $C$DW$153, DW_AT_name("__mpyi")
    1572                    .dwattr $C$DW$153, DW_AT_TI_call
    1573 0001a0 13B0!         CALLA     #__mpyi               ; [] 
         0001a2 0000 
    1574                                                      ; [] 
    1575 0001a4 511C          ADD.W     26(SP),r12            ; [] 
         0001a6 001A 
    1576 0001a8 430E          MOV.W     #0,r14                ; [] |718| 
    1577            ;* --------------------------------------------------------------------------*
    1578            ;*   BEGIN LOOP $C$L34
    1579            ;*
    1580            ;*   Loop source line                : 718
    1581            ;*   Loop closing brace source line  : 718
    1582            ;*   Known Minimum Trip Count        : 1
    1583            ;*   Known Maximum Trip Count        : 4294967295
    1584            ;*   Known Max Trip Count Factor     : 1
    1585            ;* --------------------------------------------------------------------------*
    1586 0001aa       $C$L34:    
    1587 0001aa 531F          ADD.W     #1,r15                ; [] |718| 
    1588 0001ac 4CFF          MOV.B     @r12+,-1(r15)         ; [] |718| 
         0001ae FFFF 
    1589 0001b0 531E          ADD.W     #1,r14                ; [] |718| 
    1590 0001b2 B03E          BIT.W     #32768,r14            ; [] |718| 
         0001b4 8000 
    1591 0001b6 7D0D          SUBC.W    r13,r13               ; [] |718| 
    1592 0001b8 E33D          INV.W     r13                   ; [] |718| 
    1593 0001ba 950D          CMP.W     r5,r13                ; [] |718| 
    1594 0001bc 2BF6          JLO       $C$L34                ; [] |718| 
    1595                                                      ; [] |718| 
    1596            ;* --------------------------------------------------------------------------*
    1597 0001be 2002          JNE       $C$L35                ; [] |718| 
    1598                                                      ; [] |718| 
    1599            ;* --------------------------------------------------------------------------*
    1600 0001c0 960E          CMP.W     r6,r14                ; [] |718| 
    1601 0001c2 2BF3          JLO       $C$L34                ; [] |718| 
    1602                                                      ; [] |718| 
    1603            ;* --------------------------------------------------------------------------*
    1604 0001c4       $C$L35:    
    1605                    .dwpsn  file "C:/Users/409010855/Documents/GitHub/CHARM/Embedded_Voltmeter/Basic WiFi Source/S
    1606 0001c4 531B          ADD.W     #1,r11                ; [] |714| 
    1607 0001c6 922B          CMP.W     #4,r11                ; [] |714| 
    1608 0001c8 3BE5          JL        $C$L32                ; [] |714| 
    1609                                                      ; [] |714| 
    1610            ;* --------------------------------------------------------------------------*
    1611                    .dwpsn  file "C:/Users/409010855/Documents/GitHub/CHARM/Embedded_Voltmeter/Basic WiFi Source/S
    1612 0001ca 06CE          MOVA      r6,r14                ; [] |721| 
MSP430 Assembler PC v4.2.1 Fri Mar 21 13:42:39 2014

Tools Copyright (c) 2003-2013 Texas Instruments Incorporated
C:\Users\409010~1\AppData\Local\Temp\0188810                         PAGE   33

    1613 0001cc 065E          RLAM.W    #2,r14                ; [] |721| 
    1614 0001ce 580E          ADD.W     r8,r14                ; [] |721| 
    1615 0001d0 503E          ADD.W     #36,r14               ; [] |721| 
         0001d2 0024 
    1616                    .dwpsn  file "C:/Users/409010855/Documents/GitHub/CHARM/Embedded_Voltmeter/Basic WiFi Source/S
    1617 0001d4 3C23          JMP       $C$L44                ; [] |725| 
    1618                                                      ; [] |725| 
    1619            ;* --------------------------------------------------------------------------*
    1620 0001d6       $C$L36:    
    1621                    .dwpsn  file "C:/Users/409010855/Documents/GitHub/CHARM/Embedded_Voltmeter/Basic WiFi Source/S
    1622 0001d6 403D          MOV.W     #20,r13               ; [] |676| 
         0001d8 0014 
    1623            $C$DW$154       .dwtag  DW_TAG_TI_branch
    1624                    .dwattr $C$DW$154, DW_AT_low_pc(0x00)
    1625                    .dwattr $C$DW$154, DW_AT_name("$abproc1")
    1626                    .dwattr $C$DW$154, DW_AT_TI_call
    1627 0001da 13B0!         CALLA     #$abproc1             ; [] 
         0001dc 025C 
    1628                                                      ; [] 
    1629                    .dwpsn  file "C:/Users/409010855/Documents/GitHub/CHARM/Embedded_Voltmeter/Basic WiFi Source/S
    1630 0001de 2008          JNE       $C$L38                ; [] |679| 
    1631                                                      ; [] |679| 
    1632            ;* --------------------------------------------------------------------------*
    1633                    .dwpsn  file "C:/Users/409010855/Documents/GitHub/CHARM/Embedded_Voltmeter/Basic WiFi Source/S
    1634 0001e0 403D          MOV.W     #6,r13                ; [] |685| 
         0001e2 0006 
    1635 0001e4 01CE          MOVA      SP,r14                ; [] 
    1636 0001e6 522E          ADD.W     #4,r14                ; [] 
    1637            ;* --------------------------------------------------------------------------*
    1638            ;*   BEGIN LOOP $C$L37
    1639            ;*
    1640            ;*   Loop source line                : 685
    1641            ;*   Loop closing brace source line  : 685
    1642            ;*   Known Minimum Trip Count        : 6
    1643            ;*   Known Maximum Trip Count        : 6
    1644            ;*   Known Max Trip Count Factor     : 6
    1645            ;* --------------------------------------------------------------------------*
    1646            $C$L37:    
    1647            $C$DW$155       .dwtag  DW_TAG_TI_branch
    1648                    .dwattr $C$DW$155, DW_AT_low_pc(0x00)
    1649                    .dwattr $C$DW$155, DW_AT_name("$abproc4")
    1650                    .dwattr $C$DW$155, DW_AT_TI_call
    1651 0001e8 13B0!         CALLA     #$abproc4             ; [] 
         0001ea 029A 
    1652                                                      ; [] 
    1653 0001ec 23FD          JNE       $C$L37                ; [] |685| 
    1654                                                      ; [] |685| 
    1655            ;* --------------------------------------------------------------------------*
    1656 0001ee 3C05          JMP       $C$L40                ; [] |685| 
    1657                                                      ; [] |685| 
    1658            ;* --------------------------------------------------------------------------*
    1659 0001f0       $C$L38:    
    1660                    .dwpsn  file "C:/Users/409010855/Documents/GitHub/CHARM/Embedded_Voltmeter/Basic WiFi Source/S
    1661 0001f0 403E          MOV.W     #6,r14                ; [] |681| 
         0001f2 0006 
MSP430 Assembler PC v4.2.1 Fri Mar 21 13:42:39 2014

Tools Copyright (c) 2003-2013 Texas Instruments Incorporated
C:\Users\409010~1\AppData\Local\Temp\0188810                         PAGE   34

    1662            ;* --------------------------------------------------------------------------*
    1663            ;*   BEGIN LOOP $C$L39
    1664            ;*
    1665            ;*   Loop source line                : 681
    1666            ;*   Loop closing brace source line  : 681
    1667            ;*   Known Minimum Trip Count        : 6
    1668            ;*   Known Maximum Trip Count        : 6
    1669            ;*   Known Max Trip Count Factor     : 6
    1670            ;* --------------------------------------------------------------------------*
    1671            $C$L39:    
    1672            $C$DW$156       .dwtag  DW_TAG_TI_branch
    1673                    .dwattr $C$DW$156, DW_AT_low_pc(0x00)
    1674                    .dwattr $C$DW$156, DW_AT_name("$abproc5")
    1675                    .dwattr $C$DW$156, DW_AT_TI_call
    1676 0001f4 13B0!         CALLA     #$abproc5             ; [] 
         0001f6 02A4 
    1677                                                      ; [] 
    1678 0001f8 23FD          JNE       $C$L39                ; [] |681| 
    1679                                                      ; [] |681| 
    1680            ;* --------------------------------------------------------------------------*
    1681            $C$L40:    
    1682            $C$DW$157       .dwtag  DW_TAG_TI_branch
    1683                    .dwattr $C$DW$157, DW_AT_low_pc(0x00)
    1684                    .dwattr $C$DW$157, DW_AT_name("$abproc3")
    1685                    .dwattr $C$DW$157, DW_AT_TI_call
    1686 0001fa 13B0!         CALLA     #$abproc3             ; [] 
         0001fc 028A 
    1687                                                      ; [] 
    1688                    .dwpsn  file "C:/Users/409010855/Documents/GitHub/CHARM/Embedded_Voltmeter/Basic WiFi Source/S
    1689 0001fe 0CCF          MOVA      r12,r15               ; [] |687| 
    1690                    .dwpsn  file "C:/Users/409010855/Documents/GitHub/CHARM/Embedded_Voltmeter/Basic WiFi Source/S
    1691 000200 9307          TST.W     r7                    ; [] |688| 
    1692 000202 2002          JNE       $C$L41                ; [] |688| 
    1693                                                      ; [] |688| 
    1694            ;* --------------------------------------------------------------------------*
    1695 000204 9308          TST.W     r8                    ; [] |688| 
    1696 000206 2407          JEQ       $C$L43                ; [] |688| 
    1697                                                      ; [] |688| 
    1698            ;* --------------------------------------------------------------------------*
    1699 000208       $C$L41:    
    1700 000208 430E          MOV.W     #0,r14                ; [] |688| 
    1701            ;* --------------------------------------------------------------------------*
    1702            ;*   BEGIN LOOP $C$L42
    1703            ;*
    1704            ;*   Loop source line                : 688
    1705            ;*   Loop closing brace source line  : 688
    1706            ;*   Known Minimum Trip Count        : 1
    1707            ;*   Known Maximum Trip Count        : 4294967295
    1708            ;*   Known Max Trip Count Factor     : 1
    1709            ;* --------------------------------------------------------------------------*
    1710            $C$L42:    
    1711            $C$DW$158       .dwtag  DW_TAG_TI_branch
    1712                    .dwattr $C$DW$158, DW_AT_low_pc(0x00)
    1713                    .dwattr $C$DW$158, DW_AT_name("$abproc2")
    1714                    .dwattr $C$DW$158, DW_AT_TI_call
MSP430 Assembler PC v4.2.1 Fri Mar 21 13:42:39 2014

Tools Copyright (c) 2003-2013 Texas Instruments Incorporated
C:\Users\409010~1\AppData\Local\Temp\0188810                         PAGE   35

    1715 00020a 13B0!         CALLA     #$abproc2             ; [] 
         00020c 0276 
    1716                                                      ; [] 
    1717 00020e 2BFD          JLO       $C$L42                ; [] |688| 
    1718                                                      ; [] |688| 
    1719            ;* --------------------------------------------------------------------------*
    1720 000210 2002          JNE       $C$L43                ; [] |688| 
    1721                                                      ; [] |688| 
    1722            ;* --------------------------------------------------------------------------*
    1723 000212 980E          CMP.W     r8,r14                ; [] |688| 
    1724 000214 2BFA          JLO       $C$L42                ; [] |688| 
    1725                                                      ; [] |688| 
    1726            ;* --------------------------------------------------------------------------*
    1727 000216       $C$L43:    
    1728                    .dwpsn  file "C:/Users/409010855/Documents/GitHub/CHARM/Embedded_Voltmeter/Basic WiFi Source/S
    1729 000216 403E          MOV.W     #24,r14               ; [] |690| 
         000218 0018 
    1730 00021a 580E          ADD.W     r8,r14                ; [] |690| 
    1731            ;* --------------------------------------------------------------------------*
    1732 00021c       $C$L44:    
    1733                    .dwpsn  file "C:/Users/409010855/Documents/GitHub/CHARM/Embedded_Voltmeter/Basic WiFi Source/S
    1734 00021c 4E4E          MOV.B     r14,r14               ; [] |759| 
    1735 00021e 403C          MOV.W     #5,r12                ; [] |759| 
         000220 0005 
    1736 000222 411D          MOV.W     30(SP),r13            ; [] 
         000224 001E 
    1737            $C$DW$159       .dwtag  DW_TAG_TI_branch
    1738                    .dwattr $C$DW$159, DW_AT_low_pc(0x00)
    1739                    .dwattr $C$DW$159, DW_AT_name("hci_command_send")
    1740                    .dwattr $C$DW$159, DW_AT_TI_call
    1741 000226 13B0!         CALLA     #hci_command_send     ; [] |759| 
         000228 0000 
    1742                                                      ; [] |759| 
    1743                    .dwpsn  file "C:/Users/409010855/Documents/GitHub/CHARM/Embedded_Voltmeter/Basic WiFi Source/S
    1744 00022a 403C          MOV.W     #5,r12                ; [] |763| 
         00022c 0005 
    1745 00022e 01CD          MOVA      SP,r13                ; [] |763| 
    1746            $C$DW$160       .dwtag  DW_TAG_TI_branch
    1747                    .dwattr $C$DW$160, DW_AT_low_pc(0x00)
    1748                    .dwattr $C$DW$160, DW_AT_name("SimpleLinkWaitEvent")
    1749                    .dwattr $C$DW$160, DW_AT_TI_call
    1750 000230 13B0!         CALLA     #SimpleLinkWaitEvent  ; [] |763| 
         000232 0000 
    1751                                                      ; [] |763| 
    1752                    .dwpsn  file "C:/Users/409010855/Documents/GitHub/CHARM/Embedded_Voltmeter/Basic WiFi Source/S
    1753 000234 412C          MOV.W     0(SP),r12             ; [] |765| 
    1754 000236 411D          MOV.W     2(SP),r13             ; [] |765| 
         000238 0002 
    1755 00023a 5031          ADD.W     #32,SP                ; [] 
         00023c 0020 
    1756                    .dwcfi  cfa_offset, 32
    1757 00023e 1664          POPM.A    #7,r10                ; [] 
    1758                    .dwcfi  restore_reg, 4
    1759                    .dwcfi  restore_reg, 5
    1760                    .dwcfi  restore_reg, 6
MSP430 Assembler PC v4.2.1 Fri Mar 21 13:42:39 2014

Tools Copyright (c) 2003-2013 Texas Instruments Incorporated
C:\Users\409010~1\AppData\Local\Temp\0188810                         PAGE   36

    1761                    .dwcfi  restore_reg, 7
    1762                    .dwcfi  restore_reg, 8
    1763                    .dwcfi  restore_reg, 9
    1764                    .dwcfi  restore_reg, 10
    1765                    .dwcfi  cfa_offset, 4
    1766            $C$DW$161       .dwtag  DW_TAG_TI_branch
    1767                    .dwattr $C$DW$161, DW_AT_low_pc(0x00)
    1768                    .dwattr $C$DW$161, DW_AT_TI_return
    1769 000240 0110          RETA      ; [] 
    1770                    ; [] 
    1771                    .dwattr $C$DW$105, DW_AT_TI_end_file("C:/Users/409010855/Documents/GitHub/CHARM/Embedded_Voltm
    1772                    .dwattr $C$DW$105, DW_AT_TI_end_line(0x2fe)
    1773                    .dwattr $C$DW$105, DW_AT_TI_end_column(0x01)
    1774                    .dwendentry
    1775                    .dwendtag $C$DW$105
    1776            
    1777 000242               .sect   ".text:wlan_add_profile"
    1778            
    1779            $C$DW$162       .dwtag  DW_TAG_subprogram, DW_AT_name("")
    1780                    .dwattr $C$DW$162, DW_AT_low_pc($abproc0)
    1781                    .dwattr $C$DW$162, DW_AT_high_pc(0x00)
    1782                    .dwattr $C$DW$162, DW_AT_TI_symbol_name("$abproc0")
    1783            
    1784                    .dwfde $C$DW$CIE, $abproc0
    1785            
    1786            ;*****************************************************************************
    1787            ;* ABSTRACTED PROCEDURE: $abproc0                                            *
    1788            ;*****************************************************************************
    1789 000242       $abproc0:
    1790                    .dwcfi  cfa_offset, 4
    1791 000242 13B0!         CALLA     #UINT32_TO_STREAM_f   ; [] |743| 
         000244 0000 
    1792                                                      ; [] |743| 
    1793 000246 06CD          MOVA      r6,r13                ; [] |744| 
    1794 000248 05CE          MOVA      r5,r14                ; [] |744| 
    1795 00024a 13B0!         CALLA     #UINT32_TO_STREAM_f   ; [] |744| 
         00024c 0000 
    1796                                                      ; [] |744| 
    1797 00024e 411D          MOV.W     22(SP),r13            ; [] 
         000250 0016 
    1798 000252 411E          MOV.W     24(SP),r14            ; [] 
         000254 0018 
    1799 000256 13B0!         CALLA     #UINT32_TO_STREAM_f   ; [] |745| 
         000258 0000 
    1800                                                      ; [] |745| 
    1801 00025a 0110          RETA      ; [] 
    1802                    ; [] 
    1803                    .dwendentry
    1804                    .dwendtag $C$DW$162
    1805            
    1806 00025c               .sect   ".text:wlan_add_profile"
    1807            
    1808            $C$DW$163       .dwtag  DW_TAG_subprogram, DW_AT_name("")
    1809                    .dwattr $C$DW$163, DW_AT_low_pc($abproc1)
    1810                    .dwattr $C$DW$163, DW_AT_high_pc(0x00)
MSP430 Assembler PC v4.2.1 Fri Mar 21 13:42:39 2014

Tools Copyright (c) 2003-2013 Texas Instruments Incorporated
C:\Users\409010~1\AppData\Local\Temp\0188810                         PAGE   37

    1811                    .dwattr $C$DW$163, DW_AT_TI_symbol_name("$abproc1")
    1812            
    1813                    .dwfde $C$DW$CIE, $abproc1
    1814            
    1815            ;*****************************************************************************
    1816            ;* ABSTRACTED PROCEDURE: $abproc1                                            *
    1817            ;*****************************************************************************
    1818 00025c       $abproc1:
    1819                    .dwcfi  cfa_offset, 4
    1820 00025c 430E          MOV.W     #0,r14                ; [] |732| 
    1821 00025e 13B0!         CALLA     #UINT32_TO_STREAM_f   ; [] |732| 
         000260 0000 
    1822                                                      ; [] |732| 
    1823 000262 08CD          MOVA      r8,r13                ; [] |733| 
    1824 000264 07CE          MOVA      r7,r14                ; [] |733| 
    1825 000266 13B0!         CALLA     #UINT32_TO_STREAM_f   ; [] |733| 
         000268 0000 
    1826                                                      ; [] |733| 
    1827 00026a 430D          MOV.W     #0,r13                ; [] |734| 
    1828 00026c 13B0!         CALLA     #UINT16_TO_STREAM_f   ; [] |734| 
         00026e 0000 
    1829                                                      ; [] |734| 
    1830 000270 0CCF          MOVA      r12,r15               ; [] |734| 
    1831 000272 930A          TST.W     r10                   ; [] |735| 
    1832 000274 0110          RETA      ; [] 
    1833                    ; [] 
    1834                    .dwendentry
    1835                    .dwendtag $C$DW$163
    1836            
    1837 000276               .sect   ".text:wlan_add_profile"
    1838            
    1839            $C$DW$164       .dwtag  DW_TAG_subprogram, DW_AT_name("")
    1840                    .dwattr $C$DW$164, DW_AT_low_pc($abproc2)
    1841                    .dwattr $C$DW$164, DW_AT_high_pc(0x00)
    1842                    .dwattr $C$DW$164, DW_AT_TI_symbol_name("$abproc2")
    1843            
    1844                    .dwfde $C$DW$CIE, $abproc2
    1845            
    1846            ;*****************************************************************************
    1847            ;* ABSTRACTED PROCEDURE: $abproc2                                            *
    1848            ;*****************************************************************************
    1849 000276       $abproc2:
    1850                    .dwcfi  cfa_offset, 4
    1851 000276 531F          ADD.W     #1,r15                ; [] |749| 
    1852 000278 49FF          MOV.B     @r9+,-1(r15)          ; [] |749| 
         00027a FFFF 
    1853 00027c 531E          ADD.W     #1,r14                ; [] |749| 
    1854 00027e B03E          BIT.W     #32768,r14            ; [] |749| 
         000280 8000 
    1855 000282 7D0D          SUBC.W    r13,r13               ; [] |749| 
    1856 000284 E33D          INV.W     r13                   ; [] |749| 
    1857 000286 970D          CMP.W     r7,r13                ; [] |749| 
    1858 000288 0110          RETA      ; [] 
    1859                    ; [] 
    1860                    .dwendentry
MSP430 Assembler PC v4.2.1 Fri Mar 21 13:42:39 2014

Tools Copyright (c) 2003-2013 Texas Instruments Incorporated
C:\Users\409010~1\AppData\Local\Temp\0188810                         PAGE   38

    1861                    .dwendtag $C$DW$164
    1862            
    1863 00028a               .sect   ".text:wlan_add_profile"
    1864            
    1865            $C$DW$165       .dwtag  DW_TAG_subprogram, DW_AT_name("")
    1866                    .dwattr $C$DW$165, DW_AT_low_pc($abproc3)
    1867                    .dwattr $C$DW$165, DW_AT_high_pc(0x00)
    1868                    .dwattr $C$DW$165, DW_AT_TI_symbol_name("$abproc3")
    1869            
    1870                    .dwfde $C$DW$CIE, $abproc3
    1871            
    1872            ;*****************************************************************************
    1873            ;* ABSTRACTED PROCEDURE: $abproc3                                            *
    1874            ;*****************************************************************************
    1875 00028a       $abproc3:
    1876                    .dwcfi  cfa_offset, 4
    1877 00028a 0FCC          MOVA      r15,r12               ; [] |708| 
    1878 00028c 411D          MOV.W     18(SP),r13            ; [] 
         00028e 0012 
    1879 000290 411E          MOV.W     20(SP),r14            ; [] 
         000292 0014 
    1880 000294 13B0!         CALLA     #UINT32_TO_STREAM_f   ; [] |708| 
         000296 0000 
    1881                                                      ; [] |708| 
    1882 000298 0110          RETA      ; [] 
    1883                    ; [] 
    1884                    .dwendentry
    1885                    .dwendtag $C$DW$165
    1886            
    1887 00029a               .sect   ".text:wlan_add_profile"
    1888            
    1889            $C$DW$166       .dwtag  DW_TAG_subprogram, DW_AT_name("")
    1890                    .dwattr $C$DW$166, DW_AT_low_pc($abproc4)
    1891                    .dwattr $C$DW$166, DW_AT_high_pc(0x00)
    1892                    .dwattr $C$DW$166, DW_AT_TI_symbol_name("$abproc4")
    1893            
    1894                    .dwfde $C$DW$CIE, $abproc4
    1895            
    1896            ;*****************************************************************************
    1897            ;* ABSTRACTED PROCEDURE: $abproc4                                            *
    1898            ;*****************************************************************************
    1899 00029a       $abproc4:
    1900                    .dwcfi  cfa_offset, 4
    1901 00029a 531F          ADD.W     #1,r15                ; [] |741| 
    1902 00029c 4EFF          MOV.B     @r14+,-1(r15)         ; [] |741| 
         00029e FFFF 
    1903 0002a0 831D          SUB.W     #1,r13                ; [] |741| 
    1904 0002a2 0110          RETA      ; [] 
    1905                    ; [] 
    1906                    .dwendentry
    1907                    .dwendtag $C$DW$166
    1908            
    1909 0002a4               .sect   ".text:wlan_add_profile"
    1910            
    1911            $C$DW$167       .dwtag  DW_TAG_subprogram, DW_AT_name("")
MSP430 Assembler PC v4.2.1 Fri Mar 21 13:42:39 2014

Tools Copyright (c) 2003-2013 Texas Instruments Incorporated
C:\Users\409010~1\AppData\Local\Temp\0188810                         PAGE   39

    1912                    .dwattr $C$DW$167, DW_AT_low_pc($abproc5)
    1913                    .dwattr $C$DW$167, DW_AT_high_pc(0x00)
    1914                    .dwattr $C$DW$167, DW_AT_TI_symbol_name("$abproc5")
    1915            
    1916                    .dwfde $C$DW$CIE, $abproc5
    1917            
    1918            ;*****************************************************************************
    1919            ;* ABSTRACTED PROCEDURE: $abproc5                                            *
    1920            ;*****************************************************************************
    1921 0002a4       $abproc5:
    1922                    .dwcfi  cfa_offset, 4
    1923 0002a4 531F          ADD.W     #1,r15                ; [] |737| 
    1924 0002a6 4AFF          MOV.B     @r10+,-1(r15)         ; [] |737| 
         0002a8 FFFF 
    1925 0002aa 831E          SUB.W     #1,r14                ; [] |737| 
    1926 0002ac 0110          RETA      ; [] 
    1927                    ; [] 
    1928                    .dwendentry
    1929                    .dwendtag $C$DW$167
    1930            
    1931 000000               .sect   ".text:wlan_smart_config_process"
    1932                    .align  2
    1933                    .clink
    1934                    .global wlan_smart_config_process
    1935            
    1936            $C$DW$168       .dwtag  DW_TAG_subprogram, DW_AT_name("wlan_smart_config_process")
    1937                    .dwattr $C$DW$168, DW_AT_low_pc(wlan_smart_config_process)
    1938                    .dwattr $C$DW$168, DW_AT_high_pc(0x00)
    1939                    .dwattr $C$DW$168, DW_AT_TI_symbol_name("wlan_smart_config_process")
    1940                    .dwattr $C$DW$168, DW_AT_external
    1941                    .dwattr $C$DW$168, DW_AT_type(*$C$DW$T$32)
    1942                    .dwattr $C$DW$168, DW_AT_TI_begin_file("C:/Users/409010855/Documents/GitHub/CHARM/Embedded_Vol
    1943                    .dwattr $C$DW$168, DW_AT_TI_begin_line(0x4a8)
    1944                    .dwattr $C$DW$168, DW_AT_TI_begin_column(0x07)
    1945                    .dwattr $C$DW$168, DW_AT_TI_max_frame_size(0x32)
    1946                    .dwpsn  file "C:/Users/409010855/Documents/GitHub/CHARM/Embedded_Voltmeter/Basic WiFi Source/S
    1947            
    1948                    .dwfde $C$DW$CIE, wlan_smart_config_process
    1949            
    1950            ;*****************************************************************************
    1951            ;* FUNCTION NAME: wlan_smart_config_process                                  *
    1952            ;*                                                                           *
    1953            ;*   Regs Modified     : SP,SR,r6,r7,r8,r9,r10,r11,r12,r13,r14,r15           *
    1954            ;*   Regs Used         : SP,SR,r6,r7,r8,r9,r10,r11,r12,r13,r14,r15           *
    1955            ;*   Local Frame Size  : 26 Args + 0 Auto + 20 Save = 46 byte                *
    1956            ;*****************************************************************************
    1957            wlan_smart_config_process:
    1958            ;* --------------------------------------------------------------------------*
    1959            ;* r9    assigned to $O$Q1
    1960            ;* r14   assigned to $O$U37
    1961            ;* r6    assigned to ssidLen
    1962            $C$DW$169       .dwtag  DW_TAG_variable, DW_AT_name("ssidLen")
    1963                    .dwattr $C$DW$169, DW_AT_TI_symbol_name("ssidLen")
    1964                    .dwattr $C$DW$169, DW_AT_type(*$C$DW$T$6)
    1965                    .dwattr $C$DW$169, DW_AT_location[DW_OP_reg6]
MSP430 Assembler PC v4.2.1 Fri Mar 21 13:42:39 2014

Tools Copyright (c) 2003-2013 Texas Instruments Incorporated
C:\Users\409010~1\AppData\Local\Temp\0188810                         PAGE   40

    1966            ;* r15   assigned to keyLen
    1967            $C$DW$170       .dwtag  DW_TAG_variable, DW_AT_name("keyLen")
    1968                    .dwattr $C$DW$170, DW_AT_TI_symbol_name("keyLen")
    1969                    .dwattr $C$DW$170, DW_AT_type(*$C$DW$T$25)
    1970                    .dwattr $C$DW$170, DW_AT_location[DW_OP_reg15 DW_OP_piece 2 DW_OP_reg16 DW_OP_piece 2]
    1971            ;* r10   assigned to decKeyPtr
    1972            $C$DW$171       .dwtag  DW_TAG_variable, DW_AT_name("decKeyPtr")
    1973                    .dwattr $C$DW$171, DW_AT_TI_symbol_name("decKeyPtr")
    1974                    .dwattr $C$DW$171, DW_AT_type(*$C$DW$T$21)
    1975                    .dwattr $C$DW$171, DW_AT_location[DW_OP_reg10]
    1976            ;* r12   assigned to returnValue
    1977            $C$DW$172       .dwtag  DW_TAG_variable, DW_AT_name("returnValue")
    1978                    .dwattr $C$DW$172, DW_AT_TI_symbol_name("returnValue")
    1979                    .dwattr $C$DW$172, DW_AT_type(*$C$DW$T$32)
    1980                    .dwattr $C$DW$172, DW_AT_location[DW_OP_reg12 DW_OP_piece 2 DW_OP_reg13 DW_OP_piece 2]
    1981            ;* r7    assigned to returnValue
    1982            $C$DW$173       .dwtag  DW_TAG_variable, DW_AT_name("returnValue")
    1983                    .dwattr $C$DW$173, DW_AT_TI_symbol_name("returnValue")
    1984                    .dwattr $C$DW$173, DW_AT_type(*$C$DW$T$32)
    1985                    .dwattr $C$DW$173, DW_AT_location[DW_OP_reg7 DW_OP_piece 2 DW_OP_reg8 DW_OP_piece 2]
    1986                    .dwcfi  cfa_offset, 4
    1987                    .dwcfi  save_reg_to_mem, 16, -4
    1988 000000 144A          PUSHM.A   #5,r10                ; [] 
    1989                    .dwcfi  save_reg_to_mem, 10, -8
    1990                    .dwcfi  save_reg_to_mem, 9, -12
    1991                    .dwcfi  save_reg_to_mem, 8, -16
    1992                    .dwcfi  save_reg_to_mem, 7, -20
    1993                    .dwcfi  save_reg_to_mem, 6, -24
    1994                    .dwcfi  cfa_offset, 24
    1995 000002 8031          SUB.W     #26,SP                ; [] 
         000004 001A 
    1996                    .dwcfi  cfa_offset, 50
    1997                    .dwpsn  file "C:/Users/409010855/Documents/GitHub/CHARM/Embedded_Voltmeter/Basic WiFi Source/S
    1998 000006 403C          MOV.W     #key+0,r12            ; [] |1200| 
         000008 003E!
    1999            $C$DW$174       .dwtag  DW_TAG_TI_branch
    2000                    .dwattr $C$DW$174, DW_AT_low_pc(0x00)
    2001                    .dwattr $C$DW$174, DW_AT_name("aes_read_key")
    2002                    .dwattr $C$DW$174, DW_AT_TI_call
    2003 00000a 13B0!         CALLA     #aes_read_key         ; [] |1200| 
         00000c 0000 
    2004                                                      ; [] |1200| 
    2005 00000e 930D          TST.W     r13                   ; [] |1200| 
    2006 000010 2085          JNE       $C$L53                ; [] |1200| 
    2007                                                      ; [] |1200| 
    2008            ;* --------------------------------------------------------------------------*
    2009 000012 930C          TST.W     r12                   ; [] |1200| 
    2010 000014 2083          JNE       $C$L53                ; [] |1200| 
    2011                                                      ; [] |1200| 
    2012            ;* --------------------------------------------------------------------------*
    2013                    .dwpsn  file "C:/Users/409010855/Documents/GitHub/CHARM/Embedded_Voltmeter/Basic WiFi Source/S
    2014 000016 1800          MOVX.A    #0,0(SP)              ; [] |1214| 
         000018 43C1 
         00001a 0000 
    2015 00001c 40B1          MOV.W     #profileArray+0,4(SP) ; [] |1214| 
MSP430 Assembler PC v4.2.1 Fri Mar 21 13:42:39 2014

Tools Copyright (c) 2003-2013 Texas Instruments Incorporated
C:\Users\409010~1\AppData\Local\Temp\0188810                         PAGE   41

         00001e 004E!
         000020 0004 
    2016 000022 403C          MOV.W     #13,r12               ; [] |1214| 
         000024 000D 
    2017 000026 430D          MOV.W     #0,r13                ; [] |1214| 
    2018 000028 403E          MOV.W     #67,r14               ; [] |1214| 
         00002a 0043 
    2019 00002c 430F          MOV.W     #0,r15                ; [] |1214| 
    2020            $C$DW$175       .dwtag  DW_TAG_TI_branch
    2021                    .dwattr $C$DW$175, DW_AT_low_pc(0x00)
    2022                    .dwattr $C$DW$175, DW_AT_name("nvmem_read")
    2023                    .dwattr $C$DW$175, DW_AT_TI_call
    2024 00002e 13B0!         CALLA     #nvmem_read           ; [] |1214| 
         000030 0000 
    2025                                                      ; [] |1214| 
    2026 000032 0CC7          MOVA      r12,r7                ; [] |1214| 
    2027 000034 0DC8          MOVA      r13,r8                ; [] |1214| 
    2028 000036 9308          TST.W     r8                    ; [] |1214| 
    2029 000038 2073          JNE       $C$L54                ; [] |1214| 
    2030                                                      ; [] |1214| 
    2031            ;* --------------------------------------------------------------------------*
    2032 00003a 9307          TST.W     r7                    ; [] |1214| 
    2033 00003c 2071          JNE       $C$L54                ; [] |1214| 
    2034                                                      ; [] |1214| 
    2035            ;* --------------------------------------------------------------------------*
    2036                    .dwpsn  file "C:/Users/409010855/Documents/GitHub/CHARM/Embedded_Voltmeter/Basic WiFi Source/S
    2037 00003e 4256          MOV.B     &profileArray+0,r6    ; [] |1221| 
         000040 004E!
    2038                    .dwpsn  file "C:/Users/409010855/Documents/GitHub/CHARM/Embedded_Voltmeter/Basic WiFi Source/S
    2039 000042 464A          MOV.B     r6,r10                ; [] |1223| 
    2040 000044 503A          ADD.W     #profileArray+3,r10   ; [] |1223| 
         000046 0051!
    2041 000048 4039          MOV.W     #31,r9                ; [] |1223| 
         00004a 001F 
    2042                    .dwpsn  file "C:/Users/409010855/Documents/GitHub/CHARM/Embedded_Voltmeter/Basic WiFi Source/S
    2043 00004c 0ACC          MOVA      r10,r12               ; [] |1225| 
    2044 00004e 403D          MOV.W     #key+0,r13            ; [] |1225| 
         000050 003E!
    2045            $C$DW$176       .dwtag  DW_TAG_TI_branch
    2046                    .dwattr $C$DW$176, DW_AT_low_pc(0x00)
    2047                    .dwattr $C$DW$176, DW_AT_name("aes_decrypt")
    2048                    .dwattr $C$DW$176, DW_AT_TI_call
    2049 000052 13B0!         CALLA     #aes_decrypt          ; [] |1225| 
         000054 0000 
    2050                                                      ; [] |1225| 
    2051                    .dwpsn  file "C:/Users/409010855/Documents/GitHub/CHARM/Embedded_Voltmeter/Basic WiFi Source/S
    2052 000056 425F          MOV.B     &profileArray+0,r15   ; [] |1226| 
         000058 004E!
    2053 00005a 90FF          CMP.B     #17,profileArray+1(r15) ; [] |1226| 
         00005c 0011 
         00005e 004F!
    2054 000060 2807          JLO       $C$L45                ; [] |1226| 
    2055                                                      ; [] |1226| 
    2056            ;* --------------------------------------------------------------------------*
    2057                    .dwpsn  file "C:/Users/409010855/Documents/GitHub/CHARM/Embedded_Voltmeter/Basic WiFi Source/S
MSP430 Assembler PC v4.2.1 Fri Mar 21 13:42:39 2014

Tools Copyright (c) 2003-2013 Texas Instruments Incorporated
C:\Users\409010~1\AppData\Local\Temp\0188810                         PAGE   42

    2058 000062 403C          MOV.W     #16,r12               ; [] |1227| 
         000064 0010 
    2059 000066 5A0C          ADD.W     r10,r12               ; [] |1227| 
    2060 000068 403D          MOV.W     #key+0,r13            ; [] |1227| 
         00006a 003E!
    2061            $C$DW$177       .dwtag  DW_TAG_TI_branch
    2062                    .dwattr $C$DW$177, DW_AT_low_pc(0x00)
    2063                    .dwattr $C$DW$177, DW_AT_name("aes_decrypt")
    2064                    .dwattr $C$DW$177, DW_AT_TI_call
    2065 00006c 13B0!         CALLA     #aes_decrypt          ; [] |1227| 
         00006e 0000 
    2066                                                      ; [] |1227| 
    2067            ;* --------------------------------------------------------------------------*
    2068 000070       $C$L45:    
    2069                    .dwpsn  file "C:/Users/409010855/Documents/GitHub/CHARM/Embedded_Voltmeter/Basic WiFi Source/S
    2070 000070 5A09          ADD.W     r10,r9                ; [] |1229| 
    2071 000072 93C9          TST.B     0(r9)                 ; [] |1229| 
         000074 0000 
    2072 000076 2409          JEQ       $C$L47                ; [] |1229| 
    2073                                                      ; [] |1229| 
    2074            ;* --------------------------------------------------------------------------*
    2075                    .dwpsn  file "C:/Users/409010855/Documents/GitHub/CHARM/Embedded_Voltmeter/Basic WiFi Source/S
    2076 000078 403F          MOV.W     #31,r15               ; [] |1231| 
         00007a 001F 
    2077 00007c 9A6F          CMP.B     @r10,r15              ; [] |1231| 
    2078 00007e 2403          JEQ       $C$L46                ; [] |1231| 
    2079                                                      ; [] |1231| 
    2080            ;* --------------------------------------------------------------------------*
    2081                    .dwpsn  file "C:/Users/409010855/Documents/GitHub/CHARM/Embedded_Voltmeter/Basic WiFi Source/S
    2082 000080 403F          MOV.W     #32,r15               ; [] |1238| 
         000082 0020 
    2083 000084 3C03          JMP       $C$L48                ; [] |1238| 
    2084                                                      ; [] |1238| 
    2085            ;* --------------------------------------------------------------------------*
    2086 000086       $C$L46:    
    2087                    .dwpsn  file "C:/Users/409010855/Documents/GitHub/CHARM/Embedded_Voltmeter/Basic WiFi Source/S
    2088 000086 531A          ADD.W     #1,r10                ; [] |1234| 
    2089                    .dwpsn  file "C:/Users/409010855/Documents/GitHub/CHARM/Embedded_Voltmeter/Basic WiFi Source/S
    2090 000088 3C01          JMP       $C$L48                ; [] |1235| 
    2091                                                      ; [] |1235| 
    2092            ;* --------------------------------------------------------------------------*
    2093 00008a       $C$L47:    
    2094                    .dwpsn  file "C:/Users/409010855/Documents/GitHub/CHARM/Embedded_Voltmeter/Basic WiFi Source/S
    2095 00008a 4A7F          MOV.B     @r10+,r15             ; [] |1243| 
    2096            ;* --------------------------------------------------------------------------*
    2097 00008c       $C$L48:    
    2098 00008c 430D          MOV.W     #0,r13                ; [] |1243| 
    2099                    .dwpsn  file "C:/Users/409010855/Documents/GitHub/CHARM/Embedded_Voltmeter/Basic WiFi Source/S
    2100 00008e 425E          MOV.B     &profileArray+0,r14   ; [] |1248| 
         000090 004E!
    2101 000092 503E          ADD.W     #profileArray+2,r14   ; [] |1248| 
         000094 0050!
    2102 000096 4E6C          MOV.B     @r14,r12              ; [] |1248| 
    2103 000098 930C          TST.W     r12                   ; [] |1248| 
    2104 00009a 242A          JEQ       $C$L50                ; [] |1248| 
MSP430 Assembler PC v4.2.1 Fri Mar 21 13:42:39 2014

Tools Copyright (c) 2003-2013 Texas Instruments Incorporated
C:\Users\409010~1\AppData\Local\Temp\0188810                         PAGE   43

    2105                                                      ; [] |1248| 
    2106            ;* --------------------------------------------------------------------------*
    2107 00009c 831C          SUB.W     #1,r12                ; [] |1248| 
    2108 00009e 2419          JEQ       $C$L49                ; [] |1248| 
    2109                                                      ; [] |1248| 
    2110            ;* --------------------------------------------------------------------------*
    2111 0000a0 831C          SUB.W     #1,r12                ; [] |1248| 
    2112 0000a2 932C          CMP.W     #2,r12                ; [] |1248| 
    2113 0000a4 2C3D          JHS       $C$L54                ; [] |1248| 
    2114                                                      ; [] |1248| 
    2115            ;* --------------------------------------------------------------------------*
    2116            $C$DW$178       .dwtag  DW_TAG_TI_branch
    2117                    .dwattr $C$DW$178, DW_AT_low_pc(0x00)
    2118                    .dwattr $C$DW$178, DW_AT_name("$abproc6")
    2119                    .dwattr $C$DW$178, DW_AT_TI_call
    2120 0000a6 13B0!         CALLA     #$abproc6             ; [] 
         0000a8 012C 
    2121                                                      ; [] 
    2122                    .dwpsn  file "C:/Users/409010855/Documents/GitHub/CHARM/Embedded_Voltmeter/Basic WiFi Source/S
    2123 0000aa 1800          MOVX.A    #24,8(SP)             ; [] |1281| 
         0000ac 40F1 
         0000ae 0018 
         0000b0 0008 
    2124 0000b2 1800          MOVX.A    #30,12(SP)            ; [] |1281| 
         0000b4 40F1 
         0000b6 001E 
         0000b8 000C 
    2125 0000ba 1800          MOVX.A    #2,16(SP)             ; [] |1281| 
         0000bc 43E1 
         0000be 0010 
    2126 0000c0 4A81          MOV.W     r10,20(SP)            ; [] |1281| 
         0000c2 0014 
    2127 0000c4 4F81          MOV.W     r15,22(SP)            ; [] |1281| 
         0000c6 0016 
    2128 0000c8 4D81          MOV.W     r13,24(SP)            ; [] |1281| 
         0000ca 0018 
    2129 0000cc 403C          MOV.W     #3,r12                ; [] |1281| 
         0000ce 0003 
    2130                    .dwpsn  file "C:/Users/409010855/Documents/GitHub/CHARM/Embedded_Voltmeter/Basic WiFi Source/S
    2131 0000d0 3C20          JMP       $C$L52                ; [] |1292| 
    2132                                                      ; [] |1292| 
    2133            ;* --------------------------------------------------------------------------*
    2134            $C$L49:    
    2135            $C$DW$179       .dwtag  DW_TAG_TI_branch
    2136                    .dwattr $C$DW$179, DW_AT_low_pc(0x00)
    2137                    .dwattr $C$DW$179, DW_AT_name("$abproc6")
    2138                    .dwattr $C$DW$179, DW_AT_TI_call
    2139 0000d2 13B0!         CALLA     #$abproc6             ; [] 
         0000d4 012C 
    2140                                                      ; [] 
    2141                    .dwpsn  file "C:/Users/409010855/Documents/GitHub/CHARM/Embedded_Voltmeter/Basic WiFi Source/S
    2142 0000d6 4F81          MOV.W     r15,8(SP)             ; [] |1264| 
         0000d8 0008 
    2143 0000da 4D81          MOV.W     r13,10(SP)            ; [] |1264| 
         0000dc 000A 
MSP430 Assembler PC v4.2.1 Fri Mar 21 13:42:39 2014

Tools Copyright (c) 2003-2013 Texas Instruments Incorporated
C:\Users\409010~1\AppData\Local\Temp\0188810                         PAGE   44

    2144 0000de 1800          MOVX.A    #0,12(SP)             ; [] |1264| 
         0000e0 43C1 
         0000e2 000C 
    2145 0000e4 1800          MOVX.A    #0,16(SP)             ; [] |1264| 
         0000e6 43C1 
         0000e8 0010 
    2146 0000ea 4A81          MOV.W     r10,20(SP)            ; [] |1264| 
         0000ec 0014 
    2147                    .dwpsn  file "C:/Users/409010855/Documents/GitHub/CHARM/Embedded_Voltmeter/Basic WiFi Source/S
    2148 0000ee 3C0D          JMP       $C$L51                ; [] |1275| 
    2149                                                      ; [] |1275| 
    2150            ;* --------------------------------------------------------------------------*
    2151            $C$L50:    
    2152            $C$DW$180       .dwtag  DW_TAG_TI_branch
    2153                    .dwattr $C$DW$180, DW_AT_low_pc(0x00)
    2154                    .dwattr $C$DW$180, DW_AT_name("$abproc6")
    2155                    .dwattr $C$DW$180, DW_AT_TI_call
    2156 0000f0 13B0!         CALLA     #$abproc6             ; [] 
         0000f2 012C 
    2157                                                      ; [] 
    2158                    .dwpsn  file "C:/Users/409010855/Documents/GitHub/CHARM/Embedded_Voltmeter/Basic WiFi Source/S
    2159 0000f4 1800          MOVX.A    #0,8(SP)              ; [] |1252| 
         0000f6 43C1 
         0000f8 0008 
    2160 0000fa 1800          MOVX.A    #0,12(SP)             ; [] |1252| 
         0000fc 43C1 
         0000fe 000C 
    2161 000100 1800          MOVX.A    #0,16(SP)             ; [] |1252| 
         000102 43C1 
         000104 0010 
    2162 000106 4381          MOV.W     #0,20(SP)             ; [] |1252| 
         000108 0014 
    2163            ;* --------------------------------------------------------------------------*
    2164 00010a       $C$L51:    
    2165 00010a 1800          MOVX.A    #0,22(SP)             ; [] |1252| 
         00010c 43C1 
         00010e 0016 
    2166 000110 4E6C          MOV.B     @r14,r12              ; [] |1252| 
    2167            ;* --------------------------------------------------------------------------*
    2168 000112       $C$L52:    
    2169 000112 464F          MOV.B     r6,r15                ; [] |1252| 
    2170 000114 403E          MOV.W     #profileArray+1,r14   ; [] |1252| 
         000116 004F!
    2171            $C$DW$181       .dwtag  DW_TAG_TI_branch
    2172                    .dwattr $C$DW$181, DW_AT_low_pc(0x00)
    2173                    .dwattr $C$DW$181, DW_AT_name("wlan_add_profile")
    2174                    .dwattr $C$DW$181, DW_AT_TI_call
    2175 000118 13B0!         CALLA     #wlan_add_profile     ; [] |1252| 
         00011a 0000 
    2176                                                      ; [] |1252| 
    2177            ;* --------------------------------------------------------------------------*
    2178 00011c       $C$L53:    
    2179 00011c 0CC7          MOVA      r12,r7                ; [] |1252| 
    2180 00011e 0DC8          MOVA      r13,r8                ; [] |1252| 
    2181            ;* --------------------------------------------------------------------------*
MSP430 Assembler PC v4.2.1 Fri Mar 21 13:42:39 2014

Tools Copyright (c) 2003-2013 Texas Instruments Incorporated
C:\Users\409010~1\AppData\Local\Temp\0188810                         PAGE   45

    2182 000120       $C$L54:    
    2183                    .dwpsn  file "C:/Users/409010855/Documents/GitHub/CHARM/Embedded_Voltmeter/Basic WiFi Source/S
    2184 000120 07CC          MOVA      r7,r12                ; [] |1296| 
    2185 000122 08CD          MOVA      r8,r13                ; [] |1296| 
    2186 000124 5031          ADD.W     #26,SP                ; [] 
         000126 001A 
    2187                    .dwcfi  cfa_offset, 24
    2188 000128 1646          POPM.A    #5,r10                ; [] 
    2189                    .dwcfi  restore_reg, 6
    2190                    .dwcfi  restore_reg, 7
    2191                    .dwcfi  restore_reg, 8
    2192                    .dwcfi  restore_reg, 9
    2193                    .dwcfi  restore_reg, 10
    2194                    .dwcfi  cfa_offset, 4
    2195            $C$DW$182       .dwtag  DW_TAG_TI_branch
    2196                    .dwattr $C$DW$182, DW_AT_low_pc(0x00)
    2197                    .dwattr $C$DW$182, DW_AT_TI_return
    2198 00012a 0110          RETA      ; [] 
    2199                    ; [] 
    2200                    .dwattr $C$DW$168, DW_AT_TI_end_file("C:/Users/409010855/Documents/GitHub/CHARM/Embedded_Voltm
    2201                    .dwattr $C$DW$168, DW_AT_TI_end_line(0x511)
    2202                    .dwattr $C$DW$168, DW_AT_TI_end_column(0x01)
    2203                    .dwendentry
    2204                    .dwendtag $C$DW$168
    2205            
    2206 00012c               .sect   ".text:wlan_smart_config_process"
    2207            
    2208            $C$DW$183       .dwtag  DW_TAG_subprogram, DW_AT_name("")
    2209                    .dwattr $C$DW$183, DW_AT_low_pc($abproc6)
    2210                    .dwattr $C$DW$183, DW_AT_high_pc(0x00)
    2211                    .dwattr $C$DW$183, DW_AT_TI_symbol_name("$abproc6")
    2212            
    2213                    .dwfde $C$DW$CIE, $abproc6
    2214            
    2215            ;*****************************************************************************
    2216            ;* ABSTRACTED PROCEDURE: $abproc6                                            *
    2217            ;*****************************************************************************
    2218 00012c       $abproc6:
    2219                    .dwcfi  cfa_offset, 4
    2220 00012c 4381          MOV.W     #0,4(SP)              ; [] |1281| 
         00012e 0004 
    2221 000130 4381          MOV.W     #0,6(SP)              ; [] |1281| 
         000132 0006 
    2222 000134 1800          MOVX.A    #1,8(SP)              ; [] |1281| 
         000136 43D1 
         000138 0008 
    2223 00013a 0110          RETA      ; [] 
    2224                    ; [] 
    2225                    .dwendentry
    2226                    .dwendtag $C$DW$183
    2227            
    2228 000000               .sect   ".text:wlan_set_event_mask"
    2229                    .align  2
    2230                    .clink
    2231                    .global wlan_set_event_mask
MSP430 Assembler PC v4.2.1 Fri Mar 21 13:42:39 2014

Tools Copyright (c) 2003-2013 Texas Instruments Incorporated
C:\Users\409010~1\AppData\Local\Temp\0188810                         PAGE   46

    2232            
    2233            $C$DW$184       .dwtag  DW_TAG_subprogram, DW_AT_name("wlan_set_event_mask")
    2234                    .dwattr $C$DW$184, DW_AT_low_pc(wlan_set_event_mask)
    2235                    .dwattr $C$DW$184, DW_AT_high_pc(0x00)
    2236                    .dwattr $C$DW$184, DW_AT_TI_symbol_name("wlan_set_event_mask")
    2237                    .dwattr $C$DW$184, DW_AT_external
    2238                    .dwattr $C$DW$184, DW_AT_type(*$C$DW$T$32)
    2239                    .dwattr $C$DW$184, DW_AT_TI_begin_file("C:/Users/409010855/Documents/GitHub/CHARM/Embedded_Vol
    2240                    .dwattr $C$DW$184, DW_AT_TI_begin_line(0x3d3)
    2241                    .dwattr $C$DW$184, DW_AT_TI_begin_column(0x07)
    2242                    .dwattr $C$DW$184, DW_AT_TI_max_frame_size(0x0c)
    2243                    .dwpsn  file "C:/Users/409010855/Documents/GitHub/CHARM/Embedded_Voltmeter/Basic WiFi Source/S
    2244            
    2245                    .dwfde $C$DW$CIE, wlan_set_event_mask
    2246            $C$DW$185       .dwtag  DW_TAG_formal_parameter, DW_AT_name("ulMask")
    2247                    .dwattr $C$DW$185, DW_AT_TI_symbol_name("ulMask")
    2248                    .dwattr $C$DW$185, DW_AT_type(*$C$DW$T$25)
    2249                    .dwattr $C$DW$185, DW_AT_location[DW_OP_reg12 DW_OP_piece 2 DW_OP_reg13 DW_OP_piece 2]
    2250            
    2251            ;*****************************************************************************
    2252            ;* FUNCTION NAME: wlan_set_event_mask                                        *
    2253            ;*                                                                           *
    2254            ;*   Regs Modified     : SP,SR,r10,r11,r12,r13,r14,r15                       *
    2255            ;*   Regs Used         : SP,SR,r10,r11,r12,r13,r14,r15                       *
    2256            ;*   Local Frame Size  : 0 Args + 4 Auto + 4 Save = 8 byte                   *
    2257            ;*****************************************************************************
    2258            wlan_set_event_mask:
    2259            ;* --------------------------------------------------------------------------*
    2260            ;* r10   assigned to ptr
    2261            $C$DW$186       .dwtag  DW_TAG_variable, DW_AT_name("ptr")
    2262                    .dwattr $C$DW$186, DW_AT_TI_symbol_name("ptr")
    2263                    .dwattr $C$DW$186, DW_AT_type(*$C$DW$T$21)
    2264                    .dwattr $C$DW$186, DW_AT_location[DW_OP_reg10]
    2265            $C$DW$187       .dwtag  DW_TAG_variable, DW_AT_name("ret")
    2266                    .dwattr $C$DW$187, DW_AT_TI_symbol_name("ret")
    2267                    .dwattr $C$DW$187, DW_AT_type(*$C$DW$T$32)
    2268                    .dwattr $C$DW$187, DW_AT_location[DW_OP_breg1 0]
    2269            ;* r15   assigned to ulMask
    2270            $C$DW$188       .dwtag  DW_TAG_variable, DW_AT_name("ulMask")
    2271                    .dwattr $C$DW$188, DW_AT_TI_symbol_name("ulMask")
    2272                    .dwattr $C$DW$188, DW_AT_type(*$C$DW$T$25)
    2273                    .dwattr $C$DW$188, DW_AT_location[DW_OP_reg15 DW_OP_piece 2 DW_OP_reg16 DW_OP_piece 2]
    2274                    .dwcfi  cfa_offset, 4
    2275                    .dwcfi  save_reg_to_mem, 16, -4
    2276 000000 140A          PUSHM.A   #1,r10                ; [] 
    2277                    .dwcfi  save_reg_to_mem, 10, -8
    2278                    .dwcfi  cfa_offset, 8
    2279 000002 8221          SUB.W     #4,SP                 ; [] 
    2280                    .dwcfi  cfa_offset, 12
    2281 000004 0CCF          MOVA      r12,r15               ; [] |980| 
    2282 000006 0DCE          MOVA      r13,r14               ; [] |980| 
    2283                    .dwpsn  file "C:/Users/409010855/Documents/GitHub/CHARM/Embedded_Voltmeter/Basic WiFi Source/S
    2284 000008 F03C          AND.W     #32776,r12            ; [] |986| 
         00000a 8008 
    2285 00000c F30D          AND.W     #0,r13                ; [] |986| 
MSP430 Assembler PC v4.2.1 Fri Mar 21 13:42:39 2014

Tools Copyright (c) 2003-2013 Texas Instruments Incorporated
C:\Users\409010~1\AppData\Local\Temp\0188810                         PAGE   47

    2286 00000e 930D          TST.W     r13                   ; [] |986| 
    2287 000010 2013          JNE       $C$L56                ; [] |986| 
    2288                                                      ; [] |986| 
    2289            ;* --------------------------------------------------------------------------*
    2290 000012 903C          CMP.W     #32776,r12            ; [] |986| 
         000014 8008 
    2291 000016 2010          JNE       $C$L56                ; [] |986| 
    2292                                                      ; [] |986| 
    2293            ;* --------------------------------------------------------------------------*
    2294                    .dwpsn  file "C:/Users/409010855/Documents/GitHub/CHARM/Embedded_Voltmeter/Basic WiFi Source/S
    2295 000018 43C2          MOV.B     #0,&tSLInformation+60 ; [] |988| 
         00001a 003C!
    2296                    .dwpsn  file "C:/Users/409010855/Documents/GitHub/CHARM/Embedded_Voltmeter/Basic WiFi Source/S
    2297 00001c 930E          TST.W     r14                   ; [] |992| 
    2298 00001e 2006          JNE       $C$L55                ; [] |992| 
    2299                                                      ; [] |992| 
    2300            ;* --------------------------------------------------------------------------*
    2301 000020 903F          CMP.W     #32776,r15            ; [] |992| 
         000022 8008 
    2302 000024 2003          JNE       $C$L55                ; [] |992| 
    2303                                                      ; [] |992| 
    2304            ;* --------------------------------------------------------------------------*
    2305                    .dwpsn  file "C:/Users/409010855/Documents/GitHub/CHARM/Embedded_Voltmeter/Basic WiFi Source/S
    2306 000026 430C          MOV.W     #0,r12                ; [] |994| 
    2307 000028 430D          MOV.W     #0,r13                ; [] |994| 
    2308 00002a 3C20          JMP       $C$L58                ; [] |994| 
    2309                                                      ; [] |994| 
    2310            ;* --------------------------------------------------------------------------*
    2311 00002c       $C$L55:    
    2312                    .dwpsn  file "C:/Users/409010855/Documents/GitHub/CHARM/Embedded_Voltmeter/Basic WiFi Source/S
    2313 00002c F03F          AND.W     #32759,r15            ; [] |997| 
         00002e 7FF7 
    2314 000030 F30E          AND.W     #0,r14                ; [] |997| 
    2315 000032 D03F          OR.W      #32768,r15            ; [] |997| 
         000034 8000 
    2316                    .dwpsn  file "C:/Users/409010855/Documents/GitHub/CHARM/Embedded_Voltmeter/Basic WiFi Source/S
    2317 000036 3C02          JMP       $C$L57                ; [] |999| 
    2318                                                      ; [] |999| 
    2319            ;* --------------------------------------------------------------------------*
    2320 000038       $C$L56:    
    2321                    .dwpsn  file "C:/Users/409010855/Documents/GitHub/CHARM/Embedded_Voltmeter/Basic WiFi Source/S
    2322 000038 43D2          MOV.B     #1,&tSLInformation+60 ; [] |1002| 
         00003a 003C!
    2323            ;* --------------------------------------------------------------------------*
    2324 00003c       $C$L57:    
    2325                    .dwpsn  file "C:/Users/409010855/Documents/GitHub/CHARM/Embedded_Voltmeter/Basic WiFi Source/S
    2326 00003c 43B1          MOV.W     #-1,0(SP)             ; [] |1005| 
         00003e 0000 
    2327 000040 43B1          MOV.W     #-1,2(SP)             ; [] |1005| 
         000042 0002 
    2328                    .dwpsn  file "C:/Users/409010855/Documents/GitHub/CHARM/Embedded_Voltmeter/Basic WiFi Source/S
    2329 000044 421A          MOV.W     &tSLInformation+6,r10 ; [] |1006| 
         000046 0006!
    2330                    .dwpsn  file "C:/Users/409010855/Documents/GitHub/CHARM/Embedded_Voltmeter/Basic WiFi Source/S
    2331 000048 403C          MOV.W     #9,r12                ; [] |1010| 
MSP430 Assembler PC v4.2.1 Fri Mar 21 13:42:39 2014

Tools Copyright (c) 2003-2013 Texas Instruments Incorporated
C:\Users\409010~1\AppData\Local\Temp\0188810                         PAGE   48

         00004a 0009 
    2332 00004c 5A0C          ADD.W     r10,r12               ; [] |1010| 
    2333 00004e 0FCD          MOVA      r15,r13               ; [] |1010| 
    2334            $C$DW$189       .dwtag  DW_TAG_TI_branch
    2335                    .dwattr $C$DW$189, DW_AT_low_pc(0x00)
    2336                    .dwattr $C$DW$189, DW_AT_name("UINT32_TO_STREAM_f")
    2337                    .dwattr $C$DW$189, DW_AT_TI_call
    2338 000050 13B0!         CALLA     #UINT32_TO_STREAM_f   ; [] |1010| 
         000052 0000 
    2339                                                      ; [] |1010| 
    2340                    .dwpsn  file "C:/Users/409010855/Documents/GitHub/CHARM/Embedded_Voltmeter/Basic WiFi Source/S
    2341 000054 423C          MOV.W     #8,r12                ; [] |1013| 
    2342 000056 0ACD          MOVA      r10,r13               ; [] |1013| 
    2343 000058 426E          MOV.B     #4,r14                ; [] |1013| 
    2344            $C$DW$190       .dwtag  DW_TAG_TI_branch
    2345                    .dwattr $C$DW$190, DW_AT_low_pc(0x00)
    2346                    .dwattr $C$DW$190, DW_AT_name("hci_command_send")
    2347                    .dwattr $C$DW$190, DW_AT_TI_call
    2348 00005a 13B0!         CALLA     #hci_command_send     ; [] |1013| 
         00005c 0000 
    2349                                                      ; [] |1013| 
    2350                    .dwpsn  file "C:/Users/409010855/Documents/GitHub/CHARM/Embedded_Voltmeter/Basic WiFi Source/S
    2351 00005e 423C          MOV.W     #8,r12                ; [] |1017| 
    2352 000060 01CD          MOVA      SP,r13                ; [] |1017| 
    2353            $C$DW$191       .dwtag  DW_TAG_TI_branch
    2354                    .dwattr $C$DW$191, DW_AT_low_pc(0x00)
    2355                    .dwattr $C$DW$191, DW_AT_name("SimpleLinkWaitEvent")
    2356                    .dwattr $C$DW$191, DW_AT_TI_call
    2357 000062 13B0!         CALLA     #SimpleLinkWaitEvent  ; [] |1017| 
         000064 0000 
    2358                                                      ; [] |1017| 
    2359                    .dwpsn  file "C:/Users/409010855/Documents/GitHub/CHARM/Embedded_Voltmeter/Basic WiFi Source/S
    2360 000066 412C          MOV.W     0(SP),r12             ; [] |1019| 
    2361 000068 411D          MOV.W     2(SP),r13             ; [] |1019| 
         00006a 0002 
    2362            ;* --------------------------------------------------------------------------*
    2363 00006c       $C$L58:    
    2364 00006c 5221          ADD.W     #4,SP                 ; [] 
    2365                    .dwcfi  cfa_offset, 8
    2366 00006e 160A          POPM.A    #1,r10                ; [] 
    2367                    .dwcfi  restore_reg, 10
    2368                    .dwcfi  cfa_offset, 4
    2369            $C$DW$192       .dwtag  DW_TAG_TI_branch
    2370                    .dwattr $C$DW$192, DW_AT_low_pc(0x00)
    2371                    .dwattr $C$DW$192, DW_AT_TI_return
    2372 000070 0110          RETA      ; [] 
    2373                    ; [] 
    2374                    .dwattr $C$DW$184, DW_AT_TI_end_file("C:/Users/409010855/Documents/GitHub/CHARM/Embedded_Voltm
    2375                    .dwattr $C$DW$184, DW_AT_TI_end_line(0x3fc)
    2376                    .dwattr $C$DW$184, DW_AT_TI_end_column(0x01)
    2377                    .dwendentry
    2378                    .dwendtag $C$DW$184
    2379            
    2380 000000               .sect   ".text:wlan_ioctl_statusget"
    2381                    .align  2
MSP430 Assembler PC v4.2.1 Fri Mar 21 13:42:39 2014

Tools Copyright (c) 2003-2013 Texas Instruments Incorporated
C:\Users\409010~1\AppData\Local\Temp\0188810                         PAGE   49

    2382                    .clink
    2383                    .global wlan_ioctl_statusget
    2384            
    2385            $C$DW$193       .dwtag  DW_TAG_subprogram, DW_AT_name("wlan_ioctl_statusget")
    2386                    .dwattr $C$DW$193, DW_AT_low_pc(wlan_ioctl_statusget)
    2387                    .dwattr $C$DW$193, DW_AT_high_pc(0x00)
    2388                    .dwattr $C$DW$193, DW_AT_TI_symbol_name("wlan_ioctl_statusget")
    2389                    .dwattr $C$DW$193, DW_AT_external
    2390                    .dwattr $C$DW$193, DW_AT_type(*$C$DW$T$32)
    2391                    .dwattr $C$DW$193, DW_AT_TI_begin_file("C:/Users/409010855/Documents/GitHub/CHARM/Embedded_Vol
    2392                    .dwattr $C$DW$193, DW_AT_TI_begin_line(0x40c)
    2393                    .dwattr $C$DW$193, DW_AT_TI_begin_column(0x07)
    2394                    .dwattr $C$DW$193, DW_AT_TI_max_frame_size(0x08)
    2395                    .dwpsn  file "C:/Users/409010855/Documents/GitHub/CHARM/Embedded_Voltmeter/Basic WiFi Source/S
    2396            
    2397                    .dwfde $C$DW$CIE, wlan_ioctl_statusget
    2398            
    2399            ;*****************************************************************************
    2400            ;* FUNCTION NAME: wlan_ioctl_statusget                                       *
    2401            ;*                                                                           *
    2402            ;*   Regs Modified     : SP,SR,r11,r12,r13,r14,r15                           *
    2403            ;*   Regs Used         : SP,SR,r11,r12,r13,r14,r15                           *
    2404            ;*   Local Frame Size  : 0 Args + 4 Auto + 0 Save = 4 byte                   *
    2405            ;*****************************************************************************
    2406            wlan_ioctl_statusget:
    2407            ;* --------------------------------------------------------------------------*
    2408            $C$DW$194       .dwtag  DW_TAG_variable, DW_AT_name("ret")
    2409                    .dwattr $C$DW$194, DW_AT_TI_symbol_name("ret")
    2410                    .dwattr $C$DW$194, DW_AT_type(*$C$DW$T$32)
    2411                    .dwattr $C$DW$194, DW_AT_location[DW_OP_breg1 0]
    2412            ;* r13   assigned to ptr
    2413            $C$DW$195       .dwtag  DW_TAG_variable, DW_AT_name("ptr")
    2414                    .dwattr $C$DW$195, DW_AT_TI_symbol_name("ptr")
    2415                    .dwattr $C$DW$195, DW_AT_type(*$C$DW$T$21)
    2416                    .dwattr $C$DW$195, DW_AT_location[DW_OP_reg13]
    2417                    .dwcfi  cfa_offset, 4
    2418                    .dwcfi  save_reg_to_mem, 16, -4
    2419 000000 8221          SUB.W     #4,SP                 ; [] 
    2420                    .dwcfi  cfa_offset, 8
    2421                    .dwpsn  file "C:/Users/409010855/Documents/GitHub/CHARM/Embedded_Voltmeter/Basic WiFi Source/S
    2422 000002 43B1          MOV.W     #-1,0(SP)             ; [] |1041| 
         000004 0000 
    2423 000006 43B1          MOV.W     #-1,2(SP)             ; [] |1041| 
         000008 0002 
    2424                    .dwpsn  file "C:/Users/409010855/Documents/GitHub/CHARM/Embedded_Voltmeter/Basic WiFi Source/S
    2425 00000a 421D          MOV.W     &tSLInformation+6,r13 ; [] |1042| 
         00000c 0006!
    2426                    .dwpsn  file "C:/Users/409010855/Documents/GitHub/CHARM/Embedded_Voltmeter/Basic WiFi Source/S
    2427 00000e 403C          MOV.W     #9,r12                ; [] |1044| 
         000010 0009 
    2428 000012 434E          MOV.B     #0,r14                ; [] |1044| 
    2429            $C$DW$196       .dwtag  DW_TAG_TI_branch
    2430                    .dwattr $C$DW$196, DW_AT_low_pc(0x00)
    2431                    .dwattr $C$DW$196, DW_AT_name("hci_command_send")
    2432                    .dwattr $C$DW$196, DW_AT_TI_call
MSP430 Assembler PC v4.2.1 Fri Mar 21 13:42:39 2014

Tools Copyright (c) 2003-2013 Texas Instruments Incorporated
C:\Users\409010~1\AppData\Local\Temp\0188810                         PAGE   50

    2433 000014 13B0!         CALLA     #hci_command_send     ; [] |1044| 
         000016 0000 
    2434                                                      ; [] |1044| 
    2435                    .dwpsn  file "C:/Users/409010855/Documents/GitHub/CHARM/Embedded_Voltmeter/Basic WiFi Source/S
    2436 000018 403C          MOV.W     #9,r12                ; [] |1048| 
         00001a 0009 
    2437 00001c 01CD          MOVA      SP,r13                ; [] |1048| 
    2438            $C$DW$197       .dwtag  DW_TAG_TI_branch
    2439                    .dwattr $C$DW$197, DW_AT_low_pc(0x00)
    2440                    .dwattr $C$DW$197, DW_AT_name("SimpleLinkWaitEvent")
    2441                    .dwattr $C$DW$197, DW_AT_TI_call
    2442 00001e 13B0!         CALLA     #SimpleLinkWaitEvent  ; [] |1048| 
         000020 0000 
    2443                                                      ; [] |1048| 
    2444                    .dwpsn  file "C:/Users/409010855/Documents/GitHub/CHARM/Embedded_Voltmeter/Basic WiFi Source/S
    2445 000022 412C          MOV.W     0(SP),r12             ; [] |1050| 
    2446 000024 411D          MOV.W     2(SP),r13             ; [] |1050| 
         000026 0002 
    2447 000028 5221          ADD.W     #4,SP                 ; [] 
    2448                    .dwcfi  cfa_offset, 4
    2449            $C$DW$198       .dwtag  DW_TAG_TI_branch
    2450                    .dwattr $C$DW$198, DW_AT_low_pc(0x00)
    2451                    .dwattr $C$DW$198, DW_AT_TI_return
    2452 00002a 0110          RETA      ; [] 
    2453                    ; [] 
    2454                    .dwattr $C$DW$193, DW_AT_TI_end_file("C:/Users/409010855/Documents/GitHub/CHARM/Embedded_Voltm
    2455                    .dwattr $C$DW$193, DW_AT_TI_end_line(0x41b)
    2456                    .dwattr $C$DW$193, DW_AT_TI_end_column(0x01)
    2457                    .dwendentry
    2458                    .dwendtag $C$DW$193
    2459            
    2460 000000               .sect   ".text:wlan_ioctl_set_scan_params"
    2461                    .align  2
    2462                    .clink
    2463                    .global wlan_ioctl_set_scan_params
    2464            
    2465            $C$DW$199       .dwtag  DW_TAG_subprogram, DW_AT_name("wlan_ioctl_set_scan_params")
    2466                    .dwattr $C$DW$199, DW_AT_low_pc(wlan_ioctl_set_scan_params)
    2467                    .dwattr $C$DW$199, DW_AT_high_pc(0x00)
    2468                    .dwattr $C$DW$199, DW_AT_TI_symbol_name("wlan_ioctl_set_scan_params")
    2469                    .dwattr $C$DW$199, DW_AT_external
    2470                    .dwattr $C$DW$199, DW_AT_type(*$C$DW$T$32)
    2471                    .dwattr $C$DW$199, DW_AT_TI_begin_file("C:/Users/409010855/Documents/GitHub/CHARM/Embedded_Vol
    2472                    .dwattr $C$DW$199, DW_AT_TI_begin_line(0x396)
    2473                    .dwattr $C$DW$199, DW_AT_TI_begin_column(0x07)
    2474                    .dwattr $C$DW$199, DW_AT_TI_max_frame_size(0x3a)
    2475                    .dwpsn  file "C:/Users/409010855/Documents/GitHub/CHARM/Embedded_Voltmeter/Basic WiFi Source/S
    2476            
    2477                    .dwfde $C$DW$CIE, wlan_ioctl_set_scan_params
    2478            $C$DW$200       .dwtag  DW_TAG_formal_parameter, DW_AT_name("uiEnable")
    2479                    .dwattr $C$DW$200, DW_AT_TI_symbol_name("uiEnable")
    2480                    .dwattr $C$DW$200, DW_AT_type(*$C$DW$T$25)
    2481                    .dwattr $C$DW$200, DW_AT_location[DW_OP_reg12 DW_OP_piece 2 DW_OP_reg13 DW_OP_piece 2]
    2482            $C$DW$201       .dwtag  DW_TAG_formal_parameter, DW_AT_name("uiMinDwellTime")
    2483                    .dwattr $C$DW$201, DW_AT_TI_symbol_name("uiMinDwellTime")
MSP430 Assembler PC v4.2.1 Fri Mar 21 13:42:39 2014

Tools Copyright (c) 2003-2013 Texas Instruments Incorporated
C:\Users\409010~1\AppData\Local\Temp\0188810                         PAGE   51

    2484                    .dwattr $C$DW$201, DW_AT_type(*$C$DW$T$25)
    2485                    .dwattr $C$DW$201, DW_AT_location[DW_OP_reg14 DW_OP_piece 2 DW_OP_reg15 DW_OP_piece 2]
    2486            $C$DW$202       .dwtag  DW_TAG_formal_parameter, DW_AT_name("uiMaxDwellTime")
    2487                    .dwattr $C$DW$202, DW_AT_TI_symbol_name("uiMaxDwellTime")
    2488                    .dwattr $C$DW$202, DW_AT_type(*$C$DW$T$25)
    2489                    .dwattr $C$DW$202, DW_AT_location[DW_OP_breg1 58]
    2490            $C$DW$203       .dwtag  DW_TAG_formal_parameter, DW_AT_name("uiNumOfProbeRequests")
    2491                    .dwattr $C$DW$203, DW_AT_TI_symbol_name("uiNumOfProbeRequests")
    2492                    .dwattr $C$DW$203, DW_AT_type(*$C$DW$T$25)
    2493                    .dwattr $C$DW$203, DW_AT_location[DW_OP_breg1 62]
    2494            $C$DW$204       .dwtag  DW_TAG_formal_parameter, DW_AT_name("uiChannelMask")
    2495                    .dwattr $C$DW$204, DW_AT_TI_symbol_name("uiChannelMask")
    2496                    .dwattr $C$DW$204, DW_AT_type(*$C$DW$T$25)
    2497                    .dwattr $C$DW$204, DW_AT_location[DW_OP_breg1 66]
    2498            $C$DW$205       .dwtag  DW_TAG_formal_parameter, DW_AT_name("iRSSIThreshold")
    2499                    .dwattr $C$DW$205, DW_AT_TI_symbol_name("iRSSIThreshold")
    2500                    .dwattr $C$DW$205, DW_AT_type(*$C$DW$T$32)
    2501                    .dwattr $C$DW$205, DW_AT_location[DW_OP_breg1 70]
    2502            $C$DW$206       .dwtag  DW_TAG_formal_parameter, DW_AT_name("uiSNRThreshold")
    2503                    .dwattr $C$DW$206, DW_AT_TI_symbol_name("uiSNRThreshold")
    2504                    .dwattr $C$DW$206, DW_AT_type(*$C$DW$T$25)
    2505                    .dwattr $C$DW$206, DW_AT_location[DW_OP_breg1 74]
    2506            $C$DW$207       .dwtag  DW_TAG_formal_parameter, DW_AT_name("uiDefaultTxPower")
    2507                    .dwattr $C$DW$207, DW_AT_TI_symbol_name("uiDefaultTxPower")
    2508                    .dwattr $C$DW$207, DW_AT_type(*$C$DW$T$25)
    2509                    .dwattr $C$DW$207, DW_AT_location[DW_OP_breg1 78]
    2510            $C$DW$208       .dwtag  DW_TAG_formal_parameter, DW_AT_name("aiIntervalList")
    2511                    .dwattr $C$DW$208, DW_AT_TI_symbol_name("aiIntervalList")
    2512                    .dwattr $C$DW$208, DW_AT_type(*$C$DW$T$26)
    2513                    .dwattr $C$DW$208, DW_AT_location[DW_OP_breg1 82]
    2514            
    2515            ;*****************************************************************************
    2516            ;* FUNCTION NAME: wlan_ioctl_set_scan_params                                 *
    2517            ;*                                                                           *
    2518            ;*   Regs Modified     : SP,SR,r4,r5,r6,r7,r8,r9,r10,r11,r12,r13,r14,r15     *
    2519            ;*   Regs Used         : SP,SR,r4,r5,r6,r7,r8,r9,r10,r11,r12,r13,r14,r15     *
    2520            ;*   Local Frame Size  : 0 Args + 26 Auto + 28 Save = 54 byte                *
    2521            ;*****************************************************************************
    2522            wlan_ioctl_set_scan_params:
    2523            ;* --------------------------------------------------------------------------*
    2524            $C$DW$209       .dwtag  DW_TAG_variable, DW_AT_name("uiEnable")
    2525                    .dwattr $C$DW$209, DW_AT_TI_symbol_name("uiEnable")
    2526                    .dwattr $C$DW$209, DW_AT_type(*$C$DW$T$164)
    2527                    .dwattr $C$DW$209, DW_AT_location[DW_OP_breg1 4]
    2528            $C$DW$210       .dwtag  DW_TAG_variable, DW_AT_name("uiMinDwellTime")
    2529                    .dwattr $C$DW$210, DW_AT_TI_symbol_name("uiMinDwellTime")
    2530                    .dwattr $C$DW$210, DW_AT_type(*$C$DW$T$164)
    2531                    .dwattr $C$DW$210, DW_AT_location[DW_OP_breg1 8]
    2532            $C$DW$211       .dwtag  DW_TAG_variable, DW_AT_name("uiMaxDwellTime")
    2533                    .dwattr $C$DW$211, DW_AT_TI_symbol_name("uiMaxDwellTime")
    2534                    .dwattr $C$DW$211, DW_AT_type(*$C$DW$T$164)
    2535                    .dwattr $C$DW$211, DW_AT_location[DW_OP_breg1 12]
    2536            $C$DW$212       .dwtag  DW_TAG_variable, DW_AT_name("uiNumOfProbeRequests")
    2537                    .dwattr $C$DW$212, DW_AT_TI_symbol_name("uiNumOfProbeRequests")
    2538                    .dwattr $C$DW$212, DW_AT_type(*$C$DW$T$164)
MSP430 Assembler PC v4.2.1 Fri Mar 21 13:42:39 2014

Tools Copyright (c) 2003-2013 Texas Instruments Incorporated
C:\Users\409010~1\AppData\Local\Temp\0188810                         PAGE   52

    2539                    .dwattr $C$DW$212, DW_AT_location[DW_OP_breg1 16]
    2540            $C$DW$213       .dwtag  DW_TAG_variable, DW_AT_name("uiChannelMask")
    2541                    .dwattr $C$DW$213, DW_AT_TI_symbol_name("uiChannelMask")
    2542                    .dwattr $C$DW$213, DW_AT_type(*$C$DW$T$164)
    2543                    .dwattr $C$DW$213, DW_AT_location[DW_OP_breg1 20]
    2544            ;* r8    assigned to iRSSIThreshold
    2545            $C$DW$214       .dwtag  DW_TAG_variable, DW_AT_name("iRSSIThreshold")
    2546                    .dwattr $C$DW$214, DW_AT_TI_symbol_name("iRSSIThreshold")
    2547                    .dwattr $C$DW$214, DW_AT_type(*$C$DW$T$127)
    2548                    .dwattr $C$DW$214, DW_AT_location[DW_OP_reg8 DW_OP_piece 2 DW_OP_reg9 DW_OP_piece 2]
    2549            $C$DW$215       .dwtag  DW_TAG_variable, DW_AT_name("uiSNRThreshold")
    2550                    .dwattr $C$DW$215, DW_AT_TI_symbol_name("uiSNRThreshold")
    2551                    .dwattr $C$DW$215, DW_AT_type(*$C$DW$T$164)
    2552                    .dwattr $C$DW$215, DW_AT_location[DW_OP_breg1 24]
    2553            ;* r5    assigned to uiDefaultTxPower
    2554            $C$DW$216       .dwtag  DW_TAG_variable, DW_AT_name("uiDefaultTxPower")
    2555                    .dwattr $C$DW$216, DW_AT_TI_symbol_name("uiDefaultTxPower")
    2556                    .dwattr $C$DW$216, DW_AT_type(*$C$DW$T$164)
    2557                    .dwattr $C$DW$216, DW_AT_location[DW_OP_reg5 DW_OP_piece 2 DW_OP_reg6 DW_OP_piece 2]
    2558            ;* r10   assigned to aiIntervalList
    2559            $C$DW$217       .dwtag  DW_TAG_variable, DW_AT_name("aiIntervalList")
    2560                    .dwattr $C$DW$217, DW_AT_TI_symbol_name("aiIntervalList")
    2561                    .dwattr $C$DW$217, DW_AT_type(*$C$DW$T$165)
    2562                    .dwattr $C$DW$217, DW_AT_location[DW_OP_reg10]
    2563            $C$DW$218       .dwtag  DW_TAG_variable, DW_AT_name("uiRes")
    2564                    .dwattr $C$DW$218, DW_AT_TI_symbol_name("uiRes")
    2565                    .dwattr $C$DW$218, DW_AT_type(*$C$DW$T$25)
    2566                    .dwattr $C$DW$218, DW_AT_location[DW_OP_breg1 0]
    2567            ;* r7    assigned to ptr
    2568            $C$DW$219       .dwtag  DW_TAG_variable, DW_AT_name("ptr")
    2569                    .dwattr $C$DW$219, DW_AT_TI_symbol_name("ptr")
    2570                    .dwattr $C$DW$219, DW_AT_type(*$C$DW$T$21)
    2571                    .dwattr $C$DW$219, DW_AT_location[DW_OP_reg7]
    2572            ;* r12   assigned to args
    2573            $C$DW$220       .dwtag  DW_TAG_variable, DW_AT_name("args")
    2574                    .dwattr $C$DW$220, DW_AT_TI_symbol_name("args")
    2575                    .dwattr $C$DW$220, DW_AT_type(*$C$DW$T$21)
    2576                    .dwattr $C$DW$220, DW_AT_location[DW_OP_reg12]
    2577            ;* r15   assigned to $O$L1
    2578            ;* r10   assigned to $O$U18
    2579                    .dwcfi  cfa_offset, 4
    2580                    .dwcfi  save_reg_to_mem, 16, -4
    2581 000000 146A          PUSHM.A   #7,r10                ; [] 
    2582                    .dwcfi  save_reg_to_mem, 10, -8
    2583                    .dwcfi  save_reg_to_mem, 9, -12
    2584                    .dwcfi  save_reg_to_mem, 8, -16
    2585                    .dwcfi  save_reg_to_mem, 7, -20
    2586                    .dwcfi  save_reg_to_mem, 6, -24
    2587                    .dwcfi  save_reg_to_mem, 5, -28
    2588                    .dwcfi  save_reg_to_mem, 4, -32
    2589                    .dwcfi  cfa_offset, 32
    2590 000002 8031          SUB.W     #26,SP                ; [] 
         000004 001A 
    2591                    .dwcfi  cfa_offset, 58
    2592 000006 4E81          MOV.W     r14,8(SP)             ; [] 
MSP430 Assembler PC v4.2.1 Fri Mar 21 13:42:39 2014

Tools Copyright (c) 2003-2013 Texas Instruments Incorporated
C:\Users\409010~1\AppData\Local\Temp\0188810                         PAGE   53

         000008 0008 
    2593 00000a 4F81          MOV.W     r15,10(SP)            ; [] 
         00000c 000A 
    2594 00000e 4C81          MOV.W     r12,4(SP)             ; [] 
         000010 0004 
    2595 000012 4D81          MOV.W     r13,6(SP)             ; [] 
         000014 0006 
    2596 000016 411A          MOV.W     82(SP),r10            ; [] |925| 
         000018 0052 
    2597 00001a 4115          MOV.W     78(SP),r5             ; [] |925| 
         00001c 004E 
    2598 00001e 4116          MOV.W     80(SP),r6             ; [] |925| 
         000020 0050 
    2599 000022 4191          MOV.W     74(SP),24(SP)         ; [] |925| 
         000024 004A 
         000026 0018 
    2600 000028 4114          MOV.W     76(SP),r4             ; [] |925| 
         00002a 004C 
    2601 00002c 4118          MOV.W     70(SP),r8             ; [] |925| 
         00002e 0046 
    2602 000030 4119          MOV.W     72(SP),r9             ; [] |925| 
         000032 0048 
    2603 000034 4191          MOV.W     66(SP),20(SP)         ; [] |925| 
         000036 0042 
         000038 0014 
    2604 00003a 4191          MOV.W     68(SP),22(SP)         ; [] |925| 
         00003c 0044 
         00003e 0016 
    2605 000040 4191          MOV.W     62(SP),16(SP)         ; [] |925| 
         000042 003E 
         000044 0010 
    2606 000046 4191          MOV.W     64(SP),18(SP)         ; [] |925| 
         000048 0040 
         00004a 0012 
    2607 00004c 4191          MOV.W     58(SP),12(SP)         ; [] |925| 
         00004e 003A 
         000050 000C 
    2608 000052 4191          MOV.W     60(SP),14(SP)         ; [] |925| 
         000054 003C 
         000056 000E 
    2609                    .dwpsn  file "C:/Users/409010855/Documents/GitHub/CHARM/Embedded_Voltmeter/Basic WiFi Source/S
    2610 000058 4217          MOV.W     &tSLInformation+6,r7  ; [] |930| 
         00005a 0006!
    2611                    .dwpsn  file "C:/Users/409010855/Documents/GitHub/CHARM/Embedded_Voltmeter/Basic WiFi Source/S
    2612 00005c 403C          MOV.W     #9,r12                ; [] |934| 
         00005e 0009 
    2613 000060 570C          ADD.W     r7,r12                ; [] |934| 
    2614 000062 403D          MOV.W     #36,r13               ; [] |934| 
         000064 0024 
    2615 000066 430E          MOV.W     #0,r14                ; [] |934| 
    2616            $C$DW$221       .dwtag  DW_TAG_TI_branch
    2617                    .dwattr $C$DW$221, DW_AT_low_pc(0x00)
    2618                    .dwattr $C$DW$221, DW_AT_name("UINT32_TO_STREAM_f")
    2619                    .dwattr $C$DW$221, DW_AT_TI_call
    2620 000068 13B0!         CALLA     #UINT32_TO_STREAM_f   ; [] |934| 
MSP430 Assembler PC v4.2.1 Fri Mar 21 13:42:39 2014

Tools Copyright (c) 2003-2013 Texas Instruments Incorporated
C:\Users\409010~1\AppData\Local\Temp\0188810                         PAGE   54

         00006a 0000 
    2621                                                      ; [] |934| 
    2622 00006c 411D          MOV.W     4(SP),r13             ; [] 
         00006e 0004 
    2623 000070 411E          MOV.W     6(SP),r14             ; [] 
         000072 0006 
    2624                    .dwpsn  file "C:/Users/409010855/Documents/GitHub/CHARM/Embedded_Voltmeter/Basic WiFi Source/S
    2625            $C$DW$222       .dwtag  DW_TAG_TI_branch
    2626                    .dwattr $C$DW$222, DW_AT_low_pc(0x00)
    2627                    .dwattr $C$DW$222, DW_AT_name("UINT32_TO_STREAM_f")
    2628                    .dwattr $C$DW$222, DW_AT_TI_call
    2629 000074 13B0!         CALLA     #UINT32_TO_STREAM_f   ; [] |935| 
         000076 0000 
    2630                                                      ; [] |935| 
    2631 000078 411D          MOV.W     8(SP),r13             ; [] 
         00007a 0008 
    2632 00007c 411E          MOV.W     10(SP),r14            ; [] 
         00007e 000A 
    2633                    .dwpsn  file "C:/Users/409010855/Documents/GitHub/CHARM/Embedded_Voltmeter/Basic WiFi Source/S
    2634            $C$DW$223       .dwtag  DW_TAG_TI_branch
    2635                    .dwattr $C$DW$223, DW_AT_low_pc(0x00)
    2636                    .dwattr $C$DW$223, DW_AT_name("UINT32_TO_STREAM_f")
    2637                    .dwattr $C$DW$223, DW_AT_TI_call
    2638 000080 13B0!         CALLA     #UINT32_TO_STREAM_f   ; [] |936| 
         000082 0000 
    2639                                                      ; [] |936| 
    2640 000084 411D          MOV.W     12(SP),r13            ; [] 
         000086 000C 
    2641 000088 411E          MOV.W     14(SP),r14            ; [] 
         00008a 000E 
    2642                    .dwpsn  file "C:/Users/409010855/Documents/GitHub/CHARM/Embedded_Voltmeter/Basic WiFi Source/S
    2643            $C$DW$224       .dwtag  DW_TAG_TI_branch
    2644                    .dwattr $C$DW$224, DW_AT_low_pc(0x00)
    2645                    .dwattr $C$DW$224, DW_AT_name("UINT32_TO_STREAM_f")
    2646                    .dwattr $C$DW$224, DW_AT_TI_call
    2647 00008c 13B0!         CALLA     #UINT32_TO_STREAM_f   ; [] |937| 
         00008e 0000 
    2648                                                      ; [] |937| 
    2649 000090 411D          MOV.W     16(SP),r13            ; [] 
         000092 0010 
    2650 000094 411E          MOV.W     18(SP),r14            ; [] 
         000096 0012 
    2651                    .dwpsn  file "C:/Users/409010855/Documents/GitHub/CHARM/Embedded_Voltmeter/Basic WiFi Source/S
    2652            $C$DW$225       .dwtag  DW_TAG_TI_branch
    2653                    .dwattr $C$DW$225, DW_AT_low_pc(0x00)
    2654                    .dwattr $C$DW$225, DW_AT_name("UINT32_TO_STREAM_f")
    2655                    .dwattr $C$DW$225, DW_AT_TI_call
    2656 000098 13B0!         CALLA     #UINT32_TO_STREAM_f   ; [] |938| 
         00009a 0000 
    2657                                                      ; [] |938| 
    2658 00009c 411D          MOV.W     20(SP),r13            ; [] 
         00009e 0014 
    2659 0000a0 411E          MOV.W     22(SP),r14            ; [] 
         0000a2 0016 
    2660                    .dwpsn  file "C:/Users/409010855/Documents/GitHub/CHARM/Embedded_Voltmeter/Basic WiFi Source/S
MSP430 Assembler PC v4.2.1 Fri Mar 21 13:42:39 2014

Tools Copyright (c) 2003-2013 Texas Instruments Incorporated
C:\Users\409010~1\AppData\Local\Temp\0188810                         PAGE   55

    2661            $C$DW$226       .dwtag  DW_TAG_TI_branch
    2662                    .dwattr $C$DW$226, DW_AT_low_pc(0x00)
    2663                    .dwattr $C$DW$226, DW_AT_name("UINT32_TO_STREAM_f")
    2664                    .dwattr $C$DW$226, DW_AT_TI_call
    2665 0000a4 13B0!         CALLA     #UINT32_TO_STREAM_f   ; [] |939| 
         0000a6 0000 
    2666                                                      ; [] |939| 
    2667                    .dwpsn  file "C:/Users/409010855/Documents/GitHub/CHARM/Embedded_Voltmeter/Basic WiFi Source/S
    2668 0000a8 08CD          MOVA      r8,r13                ; [] |940| 
    2669 0000aa 09CE          MOVA      r9,r14                ; [] |940| 
    2670            $C$DW$227       .dwtag  DW_TAG_TI_branch
    2671                    .dwattr $C$DW$227, DW_AT_low_pc(0x00)
    2672                    .dwattr $C$DW$227, DW_AT_name("UINT32_TO_STREAM_f")
    2673                    .dwattr $C$DW$227, DW_AT_TI_call
    2674 0000ac 13B0!         CALLA     #UINT32_TO_STREAM_f   ; [] |940| 
         0000ae 0000 
    2675                                                      ; [] |940| 
    2676 0000b0 411D          MOV.W     24(SP),r13            ; [] 
         0000b2 0018 
    2677                    .dwpsn  file "C:/Users/409010855/Documents/GitHub/CHARM/Embedded_Voltmeter/Basic WiFi Source/S
    2678 0000b4 04CE          MOVA      r4,r14                ; [] |941| 
    2679            $C$DW$228       .dwtag  DW_TAG_TI_branch
    2680                    .dwattr $C$DW$228, DW_AT_low_pc(0x00)
    2681                    .dwattr $C$DW$228, DW_AT_name("UINT32_TO_STREAM_f")
    2682                    .dwattr $C$DW$228, DW_AT_TI_call
    2683 0000b6 13B0!         CALLA     #UINT32_TO_STREAM_f   ; [] |941| 
         0000b8 0000 
    2684                                                      ; [] |941| 
    2685                    .dwpsn  file "C:/Users/409010855/Documents/GitHub/CHARM/Embedded_Voltmeter/Basic WiFi Source/S
    2686 0000ba 05CD          MOVA      r5,r13                ; [] |942| 
    2687 0000bc 06CE          MOVA      r6,r14                ; [] |942| 
    2688            $C$DW$229       .dwtag  DW_TAG_TI_branch
    2689                    .dwattr $C$DW$229, DW_AT_low_pc(0x00)
    2690                    .dwattr $C$DW$229, DW_AT_name("UINT32_TO_STREAM_f")
    2691                    .dwattr $C$DW$229, DW_AT_TI_call
    2692 0000be 13B0!         CALLA     #UINT32_TO_STREAM_f   ; [] |942| 
         0000c0 0000 
    2693                                                      ; [] |942| 
    2694                    .dwpsn  file "C:/Users/409010855/Documents/GitHub/CHARM/Embedded_Voltmeter/Basic WiFi Source/S
    2695 0000c2 403F          MOV.W     #64,r15               ; [] |943| 
         0000c4 0040 
    2696            ;* --------------------------------------------------------------------------*
    2697            ;*   BEGIN LOOP $C$L59
    2698            ;*
    2699            ;*   Loop source line                : 943
    2700            ;*   Loop closing brace source line  : 943
    2701            ;*   Known Minimum Trip Count        : 64
    2702            ;*   Known Maximum Trip Count        : 64
    2703            ;*   Known Max Trip Count Factor     : 64
    2704            ;* --------------------------------------------------------------------------*
    2705 0000c6       $C$L59:    
    2706 0000c6 531C          ADD.W     #1,r12                ; [] |943| 
    2707 0000c8 4AFC          MOV.B     @r10+,-1(r12)         ; [] |943| 
         0000ca FFFF 
    2708 0000cc 831F          SUB.W     #1,r15                ; [] |943| 
MSP430 Assembler PC v4.2.1 Fri Mar 21 13:42:39 2014

Tools Copyright (c) 2003-2013 Texas Instruments Incorporated
C:\Users\409010~1\AppData\Local\Temp\0188810                         PAGE   56

    2709 0000ce 23FB          JNE       $C$L59                ; [] |943| 
    2710                                                      ; [] |943| 
    2711            ;* --------------------------------------------------------------------------*
    2712                    .dwpsn  file "C:/Users/409010855/Documents/GitHub/CHARM/Embedded_Voltmeter/Basic WiFi Source/S
    2713 0000d0 403C          MOV.W     #3,r12                ; [] |947| 
         0000d2 0003 
    2714 0000d4 07CD          MOVA      r7,r13                ; [] |947| 
    2715 0000d6 407E          MOV.B     #100,r14              ; [] |947| 
         0000d8 0064 
    2716            $C$DW$230       .dwtag  DW_TAG_TI_branch
    2717                    .dwattr $C$DW$230, DW_AT_low_pc(0x00)
    2718                    .dwattr $C$DW$230, DW_AT_name("hci_command_send")
    2719                    .dwattr $C$DW$230, DW_AT_TI_call
    2720 0000da 13B0!         CALLA     #hci_command_send     ; [] |947| 
         0000dc 0000 
    2721                                                      ; [] |947| 
    2722                    .dwpsn  file "C:/Users/409010855/Documents/GitHub/CHARM/Embedded_Voltmeter/Basic WiFi Source/S
    2723 0000de 403C          MOV.W     #3,r12                ; [] |951| 
         0000e0 0003 
    2724 0000e2 01CD          MOVA      SP,r13                ; [] |951| 
    2725            $C$DW$231       .dwtag  DW_TAG_TI_branch
    2726                    .dwattr $C$DW$231, DW_AT_low_pc(0x00)
    2727                    .dwattr $C$DW$231, DW_AT_name("SimpleLinkWaitEvent")
    2728                    .dwattr $C$DW$231, DW_AT_TI_call
    2729 0000e4 13B0!         CALLA     #SimpleLinkWaitEvent  ; [] |951| 
         0000e6 0000 
    2730                                                      ; [] |951| 
    2731                    .dwpsn  file "C:/Users/409010855/Documents/GitHub/CHARM/Embedded_Voltmeter/Basic WiFi Source/S
    2732 0000e8 412C          MOV.W     0(SP),r12             ; [] |953| 
    2733 0000ea 411D          MOV.W     2(SP),r13             ; [] |953| 
         0000ec 0002 
    2734 0000ee 5031          ADD.W     #26,SP                ; [] 
         0000f0 001A 
    2735                    .dwcfi  cfa_offset, 32
    2736 0000f2 1664          POPM.A    #7,r10                ; [] 
    2737                    .dwcfi  restore_reg, 4
    2738                    .dwcfi  restore_reg, 5
    2739                    .dwcfi  restore_reg, 6
    2740                    .dwcfi  restore_reg, 7
    2741                    .dwcfi  restore_reg, 8
    2742                    .dwcfi  restore_reg, 9
    2743                    .dwcfi  restore_reg, 10
    2744                    .dwcfi  cfa_offset, 4
    2745            $C$DW$232       .dwtag  DW_TAG_TI_branch
    2746                    .dwattr $C$DW$232, DW_AT_low_pc(0x00)
    2747                    .dwattr $C$DW$232, DW_AT_TI_return
    2748 0000f4 0110          RETA      ; [] 
    2749                    ; [] 
    2750                    .dwattr $C$DW$199, DW_AT_TI_end_file("C:/Users/409010855/Documents/GitHub/CHARM/Embedded_Voltm
    2751                    .dwattr $C$DW$199, DW_AT_TI_end_line(0x3ba)
    2752                    .dwattr $C$DW$199, DW_AT_TI_end_column(0x01)
    2753                    .dwendentry
    2754                    .dwendtag $C$DW$199
    2755            
    2756 000000               .sect   ".text:wlan_ioctl_set_connection_policy"
MSP430 Assembler PC v4.2.1 Fri Mar 21 13:42:39 2014

Tools Copyright (c) 2003-2013 Texas Instruments Incorporated
C:\Users\409010~1\AppData\Local\Temp\0188810                         PAGE   57

    2757                    .align  2
    2758                    .clink
    2759                    .global wlan_ioctl_set_connection_policy
    2760            
    2761            $C$DW$233       .dwtag  DW_TAG_subprogram, DW_AT_name("wlan_ioctl_set_connection_policy")
    2762                    .dwattr $C$DW$233, DW_AT_low_pc(wlan_ioctl_set_connection_policy)
    2763                    .dwattr $C$DW$233, DW_AT_high_pc(0x00)
    2764                    .dwattr $C$DW$233, DW_AT_TI_symbol_name("wlan_ioctl_set_connection_policy")
    2765                    .dwattr $C$DW$233, DW_AT_external
    2766                    .dwattr $C$DW$233, DW_AT_type(*$C$DW$T$32)
    2767                    .dwattr $C$DW$233, DW_AT_TI_begin_file("C:/Users/409010855/Documents/GitHub/CHARM/Embedded_Vol
    2768                    .dwattr $C$DW$233, DW_AT_TI_begin_line(0x24b)
    2769                    .dwattr $C$DW$233, DW_AT_TI_begin_column(0x07)
    2770                    .dwattr $C$DW$233, DW_AT_TI_max_frame_size(0x1c)
    2771                    .dwpsn  file "C:/Users/409010855/Documents/GitHub/CHARM/Embedded_Voltmeter/Basic WiFi Source/S
    2772            
    2773                    .dwfde $C$DW$CIE, wlan_ioctl_set_connection_policy
    2774            $C$DW$234       .dwtag  DW_TAG_formal_parameter, DW_AT_name("should_connect_to_open_ap")
    2775                    .dwattr $C$DW$234, DW_AT_TI_symbol_name("should_connect_to_open_ap")
    2776                    .dwattr $C$DW$234, DW_AT_type(*$C$DW$T$25)
    2777                    .dwattr $C$DW$234, DW_AT_location[DW_OP_reg12 DW_OP_piece 2 DW_OP_reg13 DW_OP_piece 2]
    2778            $C$DW$235       .dwtag  DW_TAG_formal_parameter, DW_AT_name("ulShouldUseFastConnect")
    2779                    .dwattr $C$DW$235, DW_AT_TI_symbol_name("ulShouldUseFastConnect")
    2780                    .dwattr $C$DW$235, DW_AT_type(*$C$DW$T$25)
    2781                    .dwattr $C$DW$235, DW_AT_location[DW_OP_reg14 DW_OP_piece 2 DW_OP_reg15 DW_OP_piece 2]
    2782            $C$DW$236       .dwtag  DW_TAG_formal_parameter, DW_AT_name("ulUseProfiles")
    2783                    .dwattr $C$DW$236, DW_AT_TI_symbol_name("ulUseProfiles")
    2784                    .dwattr $C$DW$236, DW_AT_type(*$C$DW$T$25)
    2785                    .dwattr $C$DW$236, DW_AT_location[DW_OP_breg1 28]
    2786            
    2787            ;*****************************************************************************
    2788            ;* FUNCTION NAME: wlan_ioctl_set_connection_policy                           *
    2789            ;*                                                                           *
    2790            ;*   Regs Modified     : SP,SR,r6,r7,r8,r9,r10,r11,r12,r13,r14,r15           *
    2791            ;*   Regs Used         : SP,SR,r6,r7,r8,r9,r10,r11,r12,r13,r14,r15           *
    2792            ;*   Local Frame Size  : 0 Args + 4 Auto + 20 Save = 24 byte                 *
    2793            ;*****************************************************************************
    2794            wlan_ioctl_set_connection_policy:
    2795            ;* --------------------------------------------------------------------------*
    2796            ;* r13   assigned to should_connect_to_open_ap
    2797            $C$DW$237       .dwtag  DW_TAG_variable, DW_AT_name("should_connect_to_open_ap")
    2798                    .dwattr $C$DW$237, DW_AT_TI_symbol_name("should_connect_to_open_ap")
    2799                    .dwattr $C$DW$237, DW_AT_type(*$C$DW$T$164)
    2800                    .dwattr $C$DW$237, DW_AT_location[DW_OP_reg13 DW_OP_piece 2 DW_OP_reg14 DW_OP_piece 2]
    2801            ;* r9    assigned to ulShouldUseFastConnect
    2802            $C$DW$238       .dwtag  DW_TAG_variable, DW_AT_name("ulShouldUseFastConnect")
    2803                    .dwattr $C$DW$238, DW_AT_TI_symbol_name("ulShouldUseFastConnect")
    2804                    .dwattr $C$DW$238, DW_AT_type(*$C$DW$T$164)
    2805                    .dwattr $C$DW$238, DW_AT_location[DW_OP_reg9 DW_OP_piece 2 DW_OP_reg10 DW_OP_piece 2]
    2806            ;* r6    assigned to ulUseProfiles
    2807            $C$DW$239       .dwtag  DW_TAG_variable, DW_AT_name("ulUseProfiles")
    2808                    .dwattr $C$DW$239, DW_AT_TI_symbol_name("ulUseProfiles")
    2809                    .dwattr $C$DW$239, DW_AT_type(*$C$DW$T$164)
    2810                    .dwattr $C$DW$239, DW_AT_location[DW_OP_reg6 DW_OP_piece 2 DW_OP_reg7 DW_OP_piece 2]
    2811            $C$DW$240       .dwtag  DW_TAG_variable, DW_AT_name("ret")
MSP430 Assembler PC v4.2.1 Fri Mar 21 13:42:39 2014

Tools Copyright (c) 2003-2013 Texas Instruments Incorporated
C:\Users\409010~1\AppData\Local\Temp\0188810                         PAGE   58

    2812                    .dwattr $C$DW$240, DW_AT_TI_symbol_name("ret")
    2813                    .dwattr $C$DW$240, DW_AT_type(*$C$DW$T$32)
    2814                    .dwattr $C$DW$240, DW_AT_location[DW_OP_breg1 0]
    2815            ;* r8    assigned to ptr
    2816            $C$DW$241       .dwtag  DW_TAG_variable, DW_AT_name("ptr")
    2817                    .dwattr $C$DW$241, DW_AT_TI_symbol_name("ptr")
    2818                    .dwattr $C$DW$241, DW_AT_type(*$C$DW$T$21)
    2819                    .dwattr $C$DW$241, DW_AT_location[DW_OP_reg8]
    2820            ;* r15   assigned to args
    2821            $C$DW$242       .dwtag  DW_TAG_variable, DW_AT_name("args")
    2822                    .dwattr $C$DW$242, DW_AT_TI_symbol_name("args")
    2823                    .dwattr $C$DW$242, DW_AT_type(*$C$DW$T$21)
    2824                    .dwattr $C$DW$242, DW_AT_location[DW_OP_reg15]
    2825                    .dwcfi  cfa_offset, 4
    2826                    .dwcfi  save_reg_to_mem, 16, -4
    2827 000000 144A          PUSHM.A   #5,r10                ; [] 
    2828                    .dwcfi  save_reg_to_mem, 10, -8
    2829                    .dwcfi  save_reg_to_mem, 9, -12
    2830                    .dwcfi  save_reg_to_mem, 8, -16
    2831                    .dwcfi  save_reg_to_mem, 7, -20
    2832                    .dwcfi  save_reg_to_mem, 6, -24
    2833                    .dwcfi  cfa_offset, 24
    2834 000002 8221          SUB.W     #4,SP                 ; [] 
    2835                    .dwcfi  cfa_offset, 28
    2836 000004 0EC9          MOVA      r14,r9                ; [] |590| 
    2837 000006 0DCE          MOVA      r13,r14               ; [] |590| 
    2838 000008 0FCA          MOVA      r15,r10               ; [] |590| 
    2839 00000a 0CCD          MOVA      r12,r13               ; [] |590| 
    2840 00000c 4116          MOV.W     28(SP),r6             ; [] |590| 
         00000e 001C 
    2841 000010 4117          MOV.W     30(SP),r7             ; [] |590| 
         000012 001E 
    2842                    .dwpsn  file "C:/Users/409010855/Documents/GitHub/CHARM/Embedded_Voltmeter/Basic WiFi Source/S
    2843 000014 43B1          MOV.W     #-1,0(SP)             ; [] |595| 
         000016 0000 
    2844 000018 43B1          MOV.W     #-1,2(SP)             ; [] |595| 
         00001a 0002 
    2845                    .dwpsn  file "C:/Users/409010855/Documents/GitHub/CHARM/Embedded_Voltmeter/Basic WiFi Source/S
    2846 00001c 4218          MOV.W     &tSLInformation+6,r8  ; [] |596| 
         00001e 0006!
    2847                    .dwpsn  file "C:/Users/409010855/Documents/GitHub/CHARM/Embedded_Voltmeter/Basic WiFi Source/S
    2848 000020 403C          MOV.W     #9,r12                ; [] |600| 
         000022 0009 
    2849 000024 580C          ADD.W     r8,r12                ; [] |600| 
    2850            $C$DW$243       .dwtag  DW_TAG_TI_branch
    2851                    .dwattr $C$DW$243, DW_AT_low_pc(0x00)
    2852                    .dwattr $C$DW$243, DW_AT_name("UINT32_TO_STREAM_f")
    2853                    .dwattr $C$DW$243, DW_AT_TI_call
    2854 000026 13B0!         CALLA     #UINT32_TO_STREAM_f   ; [] |600| 
         000028 0000 
    2855                                                      ; [] |600| 
    2856                    .dwpsn  file "C:/Users/409010855/Documents/GitHub/CHARM/Embedded_Voltmeter/Basic WiFi Source/S
    2857 00002a 09CD          MOVA      r9,r13                ; [] |601| 
    2858 00002c 0ACE          MOVA      r10,r14               ; [] |601| 
    2859            $C$DW$244       .dwtag  DW_TAG_TI_branch
MSP430 Assembler PC v4.2.1 Fri Mar 21 13:42:39 2014

Tools Copyright (c) 2003-2013 Texas Instruments Incorporated
C:\Users\409010~1\AppData\Local\Temp\0188810                         PAGE   59

    2860                    .dwattr $C$DW$244, DW_AT_low_pc(0x00)
    2861                    .dwattr $C$DW$244, DW_AT_name("UINT32_TO_STREAM_f")
    2862                    .dwattr $C$DW$244, DW_AT_TI_call
    2863 00002e 13B0!         CALLA     #UINT32_TO_STREAM_f   ; [] |601| 
         000030 0000 
    2864                                                      ; [] |601| 
    2865                    .dwpsn  file "C:/Users/409010855/Documents/GitHub/CHARM/Embedded_Voltmeter/Basic WiFi Source/S
    2866 000032 06CD          MOVA      r6,r13                ; [] |602| 
    2867 000034 07CE          MOVA      r7,r14                ; [] |602| 
    2868            $C$DW$245       .dwtag  DW_TAG_TI_branch
    2869                    .dwattr $C$DW$245, DW_AT_low_pc(0x00)
    2870                    .dwattr $C$DW$245, DW_AT_name("UINT32_TO_STREAM_f")
    2871                    .dwattr $C$DW$245, DW_AT_TI_call
    2872 000036 13B0!         CALLA     #UINT32_TO_STREAM_f   ; [] |602| 
         000038 0000 
    2873                                                      ; [] |602| 
    2874                    .dwpsn  file "C:/Users/409010855/Documents/GitHub/CHARM/Embedded_Voltmeter/Basic WiFi Source/S
    2875 00003a 422C          MOV.W     #4,r12                ; [] |605| 
    2876 00003c 08CD          MOVA      r8,r13                ; [] |605| 
    2877 00003e 407E          MOV.B     #12,r14               ; [] |605| 
         000040 000C 
    2878            $C$DW$246       .dwtag  DW_TAG_TI_branch
    2879                    .dwattr $C$DW$246, DW_AT_low_pc(0x00)
    2880                    .dwattr $C$DW$246, DW_AT_name("hci_command_send")
    2881                    .dwattr $C$DW$246, DW_AT_TI_call
    2882 000042 13B0!         CALLA     #hci_command_send     ; [] |605| 
         000044 0000 
    2883                                                      ; [] |605| 
    2884                    .dwpsn  file "C:/Users/409010855/Documents/GitHub/CHARM/Embedded_Voltmeter/Basic WiFi Source/S
    2885 000046 422C          MOV.W     #4,r12                ; [] |609| 
    2886 000048 01CD          MOVA      SP,r13                ; [] |609| 
    2887            $C$DW$247       .dwtag  DW_TAG_TI_branch
    2888                    .dwattr $C$DW$247, DW_AT_low_pc(0x00)
    2889                    .dwattr $C$DW$247, DW_AT_name("SimpleLinkWaitEvent")
    2890                    .dwattr $C$DW$247, DW_AT_TI_call
    2891 00004a 13B0!         CALLA     #SimpleLinkWaitEvent  ; [] |609| 
         00004c 0000 
    2892                                                      ; [] |609| 
    2893                    .dwpsn  file "C:/Users/409010855/Documents/GitHub/CHARM/Embedded_Voltmeter/Basic WiFi Source/S
    2894 00004e 412C          MOV.W     0(SP),r12             ; [] |611| 
    2895 000050 411D          MOV.W     2(SP),r13             ; [] |611| 
         000052 0002 
    2896 000054 5221          ADD.W     #4,SP                 ; [] 
    2897                    .dwcfi  cfa_offset, 24
    2898 000056 1646          POPM.A    #5,r10                ; [] 
    2899                    .dwcfi  restore_reg, 6
    2900                    .dwcfi  restore_reg, 7
    2901                    .dwcfi  restore_reg, 8
    2902                    .dwcfi  restore_reg, 9
    2903                    .dwcfi  restore_reg, 10
    2904                    .dwcfi  cfa_offset, 4
    2905            $C$DW$248       .dwtag  DW_TAG_TI_branch
    2906                    .dwattr $C$DW$248, DW_AT_low_pc(0x00)
    2907                    .dwattr $C$DW$248, DW_AT_TI_return
    2908 000058 0110          RETA      ; [] 
MSP430 Assembler PC v4.2.1 Fri Mar 21 13:42:39 2014

Tools Copyright (c) 2003-2013 Texas Instruments Incorporated
C:\Users\409010~1\AppData\Local\Temp\0188810                         PAGE   60

    2909                    ; [] 
    2910                    .dwattr $C$DW$233, DW_AT_TI_end_file("C:/Users/409010855/Documents/GitHub/CHARM/Embedded_Voltm
    2911                    .dwattr $C$DW$233, DW_AT_TI_end_line(0x264)
    2912                    .dwattr $C$DW$233, DW_AT_TI_end_column(0x01)
    2913                    .dwendentry
    2914                    .dwendtag $C$DW$233
    2915            
    2916 000000               .sect   ".text:wlan_ioctl_get_scan_results"
    2917                    .align  2
    2918                    .clink
    2919                    .global wlan_ioctl_get_scan_results
    2920            
    2921            $C$DW$249       .dwtag  DW_TAG_subprogram, DW_AT_name("wlan_ioctl_get_scan_results")
    2922                    .dwattr $C$DW$249, DW_AT_low_pc(wlan_ioctl_get_scan_results)
    2923                    .dwattr $C$DW$249, DW_AT_high_pc(0x00)
    2924                    .dwattr $C$DW$249, DW_AT_TI_symbol_name("wlan_ioctl_get_scan_results")
    2925                    .dwattr $C$DW$249, DW_AT_external
    2926                    .dwattr $C$DW$249, DW_AT_type(*$C$DW$T$32)
    2927                    .dwattr $C$DW$249, DW_AT_TI_begin_file("C:/Users/409010855/Documents/GitHub/CHARM/Embedded_Vol
    2928                    .dwattr $C$DW$249, DW_AT_TI_begin_line(0x359)
    2929                    .dwattr $C$DW$249, DW_AT_TI_begin_column(0x07)
    2930                    .dwattr $C$DW$249, DW_AT_TI_max_frame_size(0x0c)
    2931                    .dwpsn  file "C:/Users/409010855/Documents/GitHub/CHARM/Embedded_Voltmeter/Basic WiFi Source/S
    2932            
    2933                    .dwfde $C$DW$CIE, wlan_ioctl_get_scan_results
    2934            $C$DW$250       .dwtag  DW_TAG_formal_parameter, DW_AT_name("ulScanTimeout")
    2935                    .dwattr $C$DW$250, DW_AT_TI_symbol_name("ulScanTimeout")
    2936                    .dwattr $C$DW$250, DW_AT_type(*$C$DW$T$25)
    2937                    .dwattr $C$DW$250, DW_AT_location[DW_OP_reg12 DW_OP_piece 2 DW_OP_reg13 DW_OP_piece 2]
    2938            $C$DW$251       .dwtag  DW_TAG_formal_parameter, DW_AT_name("ucResults")
    2939                    .dwattr $C$DW$251, DW_AT_TI_symbol_name("ucResults")
    2940                    .dwattr $C$DW$251, DW_AT_type(*$C$DW$T$21)
    2941                    .dwattr $C$DW$251, DW_AT_location[DW_OP_reg14]
    2942            
    2943            ;*****************************************************************************
    2944            ;* FUNCTION NAME: wlan_ioctl_get_scan_results                                *
    2945            ;*                                                                           *
    2946            ;*   Regs Modified     : SP,SR,r9,r10,r11,r12,r13,r14,r15                    *
    2947            ;*   Regs Used         : SP,SR,r9,r10,r11,r12,r13,r14,r15                    *
    2948            ;*   Local Frame Size  : 0 Args + 0 Auto + 8 Save = 8 byte                   *
    2949            ;*****************************************************************************
    2950            wlan_ioctl_get_scan_results:
    2951            ;* --------------------------------------------------------------------------*
    2952            ;* r13   assigned to ulScanTimeout
    2953            $C$DW$252       .dwtag  DW_TAG_variable, DW_AT_name("ulScanTimeout")
    2954                    .dwattr $C$DW$252, DW_AT_TI_symbol_name("ulScanTimeout")
    2955                    .dwattr $C$DW$252, DW_AT_type(*$C$DW$T$164)
    2956                    .dwattr $C$DW$252, DW_AT_location[DW_OP_reg13 DW_OP_piece 2 DW_OP_reg14 DW_OP_piece 2]
    2957            ;* r10   assigned to ucResults
    2958            $C$DW$253       .dwtag  DW_TAG_variable, DW_AT_name("ucResults")
    2959                    .dwattr $C$DW$253, DW_AT_TI_symbol_name("ucResults")
    2960                    .dwattr $C$DW$253, DW_AT_type(*$C$DW$T$84)
    2961                    .dwattr $C$DW$253, DW_AT_location[DW_OP_reg10]
    2962            ;* r9    assigned to ptr
    2963            $C$DW$254       .dwtag  DW_TAG_variable, DW_AT_name("ptr")
MSP430 Assembler PC v4.2.1 Fri Mar 21 13:42:39 2014

Tools Copyright (c) 2003-2013 Texas Instruments Incorporated
C:\Users\409010~1\AppData\Local\Temp\0188810                         PAGE   61

    2964                    .dwattr $C$DW$254, DW_AT_TI_symbol_name("ptr")
    2965                    .dwattr $C$DW$254, DW_AT_type(*$C$DW$T$21)
    2966                    .dwattr $C$DW$254, DW_AT_location[DW_OP_reg9]
    2967                    .dwcfi  cfa_offset, 4
    2968                    .dwcfi  save_reg_to_mem, 16, -4
    2969 000000 141A          PUSHM.A   #2,r10                ; [] 
    2970                    .dwcfi  save_reg_to_mem, 10, -8
    2971                    .dwcfi  save_reg_to_mem, 9, -12
    2972                    .dwcfi  cfa_offset, 12
    2973 000002 0ECA          MOVA      r14,r10               ; [] |859| 
    2974 000004 0DCE          MOVA      r13,r14               ; [] |859| 
    2975 000006 0CCD          MOVA      r12,r13               ; [] |859| 
    2976                    .dwpsn  file "C:/Users/409010855/Documents/GitHub/CHARM/Embedded_Voltmeter/Basic WiFi Source/S
    2977 000008 4219          MOV.W     &tSLInformation+6,r9  ; [] |863| 
         00000a 0006!
    2978                    .dwpsn  file "C:/Users/409010855/Documents/GitHub/CHARM/Embedded_Voltmeter/Basic WiFi Source/S
    2979 00000c 403C          MOV.W     #9,r12                ; [] |867| 
         00000e 0009 
    2980 000010 590C          ADD.W     r9,r12                ; [] |867| 
    2981            $C$DW$255       .dwtag  DW_TAG_TI_branch
    2982                    .dwattr $C$DW$255, DW_AT_low_pc(0x00)
    2983                    .dwattr $C$DW$255, DW_AT_name("UINT32_TO_STREAM_f")
    2984                    .dwattr $C$DW$255, DW_AT_TI_call
    2985 000012 13B0!         CALLA     #UINT32_TO_STREAM_f   ; [] |867| 
         000014 0000 
    2986                                                      ; [] |867| 
    2987                    .dwpsn  file "C:/Users/409010855/Documents/GitHub/CHARM/Embedded_Voltmeter/Basic WiFi Source/S
    2988 000016 403C          MOV.W     #7,r12                ; [] |870| 
         000018 0007 
    2989 00001a 09CD          MOVA      r9,r13                ; [] |870| 
    2990 00001c 426E          MOV.B     #4,r14                ; [] |870| 
    2991            $C$DW$256       .dwtag  DW_TAG_TI_branch
    2992                    .dwattr $C$DW$256, DW_AT_low_pc(0x00)
    2993                    .dwattr $C$DW$256, DW_AT_name("hci_command_send")
    2994                    .dwattr $C$DW$256, DW_AT_TI_call
    2995 00001e 13B0!         CALLA     #hci_command_send     ; [] |870| 
         000020 0000 
    2996                                                      ; [] |870| 
    2997                    .dwpsn  file "C:/Users/409010855/Documents/GitHub/CHARM/Embedded_Voltmeter/Basic WiFi Source/S
    2998 000022 403C          MOV.W     #7,r12                ; [] |874| 
         000024 0007 
    2999 000026 0ACD          MOVA      r10,r13               ; [] |874| 
    3000            $C$DW$257       .dwtag  DW_TAG_TI_branch
    3001                    .dwattr $C$DW$257, DW_AT_low_pc(0x00)
    3002                    .dwattr $C$DW$257, DW_AT_name("SimpleLinkWaitEvent")
    3003                    .dwattr $C$DW$257, DW_AT_TI_call
    3004 000028 13B0!         CALLA     #SimpleLinkWaitEvent  ; [] |874| 
         00002a 0000 
    3005                                                      ; [] |874| 
    3006                    .dwpsn  file "C:/Users/409010855/Documents/GitHub/CHARM/Embedded_Voltmeter/Basic WiFi Source/S
    3007 00002c 430C          MOV.W     #0,r12                ; [] |876| 
    3008 00002e 430D          MOV.W     #0,r13                ; [] |876| 
    3009 000030 1619          POPM.A    #2,r10                ; [] 
    3010                    .dwcfi  restore_reg, 9
    3011                    .dwcfi  restore_reg, 10
MSP430 Assembler PC v4.2.1 Fri Mar 21 13:42:39 2014

Tools Copyright (c) 2003-2013 Texas Instruments Incorporated
C:\Users\409010~1\AppData\Local\Temp\0188810                         PAGE   62

    3012                    .dwcfi  cfa_offset, 4
    3013            $C$DW$258       .dwtag  DW_TAG_TI_branch
    3014                    .dwattr $C$DW$258, DW_AT_low_pc(0x00)
    3015                    .dwattr $C$DW$258, DW_AT_TI_return
    3016 000032 0110          RETA      ; [] 
    3017                    ; [] 
    3018                    .dwattr $C$DW$249, DW_AT_TI_end_file("C:/Users/409010855/Documents/GitHub/CHARM/Embedded_Voltm
    3019                    .dwattr $C$DW$249, DW_AT_TI_end_line(0x36d)
    3020                    .dwattr $C$DW$249, DW_AT_TI_end_column(0x01)
    3021                    .dwendentry
    3022                    .dwendtag $C$DW$249
    3023            
    3024 000000               .sect   ".text:wlan_ioctl_del_profile"
    3025                    .align  2
    3026                    .clink
    3027                    .global wlan_ioctl_del_profile
    3028            
    3029            $C$DW$259       .dwtag  DW_TAG_subprogram, DW_AT_name("wlan_ioctl_del_profile")
    3030                    .dwattr $C$DW$259, DW_AT_low_pc(wlan_ioctl_del_profile)
    3031                    .dwattr $C$DW$259, DW_AT_high_pc(0x00)
    3032                    .dwattr $C$DW$259, DW_AT_TI_symbol_name("wlan_ioctl_del_profile")
    3033                    .dwattr $C$DW$259, DW_AT_external
    3034                    .dwattr $C$DW$259, DW_AT_type(*$C$DW$T$32)
    3035                    .dwattr $C$DW$259, DW_AT_TI_begin_file("C:/Users/409010855/Documents/GitHub/CHARM/Embedded_Vol
    3036                    .dwattr $C$DW$259, DW_AT_TI_begin_line(0x31f)
    3037                    .dwattr $C$DW$259, DW_AT_TI_begin_column(0x07)
    3038                    .dwattr $C$DW$259, DW_AT_TI_max_frame_size(0x0c)
    3039                    .dwpsn  file "C:/Users/409010855/Documents/GitHub/CHARM/Embedded_Voltmeter/Basic WiFi Source/S
    3040            
    3041                    .dwfde $C$DW$CIE, wlan_ioctl_del_profile
    3042            $C$DW$260       .dwtag  DW_TAG_formal_parameter, DW_AT_name("ulIndex")
    3043                    .dwattr $C$DW$260, DW_AT_TI_symbol_name("ulIndex")
    3044                    .dwattr $C$DW$260, DW_AT_type(*$C$DW$T$25)
    3045                    .dwattr $C$DW$260, DW_AT_location[DW_OP_reg12 DW_OP_piece 2 DW_OP_reg13 DW_OP_piece 2]
    3046            
    3047            ;*****************************************************************************
    3048            ;* FUNCTION NAME: wlan_ioctl_del_profile                                     *
    3049            ;*                                                                           *
    3050            ;*   Regs Modified     : SP,SR,r10,r11,r12,r13,r14,r15                       *
    3051            ;*   Regs Used         : SP,SR,r10,r11,r12,r13,r14,r15                       *
    3052            ;*   Local Frame Size  : 0 Args + 4 Auto + 4 Save = 8 byte                   *
    3053            ;*****************************************************************************
    3054            wlan_ioctl_del_profile:
    3055            ;* --------------------------------------------------------------------------*
    3056            ;* r15   assigned to ulIndex
    3057            $C$DW$261       .dwtag  DW_TAG_variable, DW_AT_name("ulIndex")
    3058                    .dwattr $C$DW$261, DW_AT_TI_symbol_name("ulIndex")
    3059                    .dwattr $C$DW$261, DW_AT_type(*$C$DW$T$164)
    3060                    .dwattr $C$DW$261, DW_AT_location[DW_OP_reg15 DW_OP_piece 2 DW_OP_reg16 DW_OP_piece 2]
    3061            $C$DW$262       .dwtag  DW_TAG_variable, DW_AT_name("ret")
    3062                    .dwattr $C$DW$262, DW_AT_TI_symbol_name("ret")
    3063                    .dwattr $C$DW$262, DW_AT_type(*$C$DW$T$32)
    3064                    .dwattr $C$DW$262, DW_AT_location[DW_OP_breg1 0]
    3065            ;* r10   assigned to ptr
    3066            $C$DW$263       .dwtag  DW_TAG_variable, DW_AT_name("ptr")
MSP430 Assembler PC v4.2.1 Fri Mar 21 13:42:39 2014

Tools Copyright (c) 2003-2013 Texas Instruments Incorporated
C:\Users\409010~1\AppData\Local\Temp\0188810                         PAGE   63

    3067                    .dwattr $C$DW$263, DW_AT_TI_symbol_name("ptr")
    3068                    .dwattr $C$DW$263, DW_AT_type(*$C$DW$T$21)
    3069                    .dwattr $C$DW$263, DW_AT_location[DW_OP_reg10]
    3070                    .dwcfi  cfa_offset, 4
    3071                    .dwcfi  save_reg_to_mem, 16, -4
    3072 000000 140A          PUSHM.A   #1,r10                ; [] 
    3073                    .dwcfi  save_reg_to_mem, 10, -8
    3074                    .dwcfi  cfa_offset, 8
    3075 000002 8221          SUB.W     #4,SP                 ; [] 
    3076                    .dwcfi  cfa_offset, 12
    3077 000004 0DCE          MOVA      r13,r14               ; [] |800| 
    3078 000006 0CCD          MOVA      r12,r13               ; [] |800| 
    3079                    .dwpsn  file "C:/Users/409010855/Documents/GitHub/CHARM/Embedded_Voltmeter/Basic WiFi Source/S
    3080 000008 421A          MOV.W     &tSLInformation+6,r10 ; [] |805| 
         00000a 0006!
    3081                    .dwpsn  file "C:/Users/409010855/Documents/GitHub/CHARM/Embedded_Voltmeter/Basic WiFi Source/S
    3082 00000c 403C          MOV.W     #9,r12                ; [] |809| 
         00000e 0009 
    3083 000010 5A0C          ADD.W     r10,r12               ; [] |809| 
    3084            $C$DW$264       .dwtag  DW_TAG_TI_branch
    3085                    .dwattr $C$DW$264, DW_AT_low_pc(0x00)
    3086                    .dwattr $C$DW$264, DW_AT_name("UINT32_TO_STREAM_f")
    3087                    .dwattr $C$DW$264, DW_AT_TI_call
    3088 000012 13B0!         CALLA     #UINT32_TO_STREAM_f   ; [] |809| 
         000014 0000 
    3089                                                      ; [] |809| 
    3090                    .dwpsn  file "C:/Users/409010855/Documents/GitHub/CHARM/Embedded_Voltmeter/Basic WiFi Source/S
    3091 000016 43B1          MOV.W     #-1,0(SP)             ; [] |810| 
         000018 0000 
    3092 00001a 43B1          MOV.W     #-1,2(SP)             ; [] |810| 
         00001c 0002 
    3093                    .dwpsn  file "C:/Users/409010855/Documents/GitHub/CHARM/Embedded_Voltmeter/Basic WiFi Source/S
    3094 00001e 403C          MOV.W     #6,r12                ; [] |813| 
         000020 0006 
    3095 000022 0ACD          MOVA      r10,r13               ; [] |813| 
    3096 000024 426E          MOV.B     #4,r14                ; [] |813| 
    3097            $C$DW$265       .dwtag  DW_TAG_TI_branch
    3098                    .dwattr $C$DW$265, DW_AT_low_pc(0x00)
    3099                    .dwattr $C$DW$265, DW_AT_name("hci_command_send")
    3100                    .dwattr $C$DW$265, DW_AT_TI_call
    3101 000026 13B0!         CALLA     #hci_command_send     ; [] |813| 
         000028 0000 
    3102                                                      ; [] |813| 
    3103                    .dwpsn  file "C:/Users/409010855/Documents/GitHub/CHARM/Embedded_Voltmeter/Basic WiFi Source/S
    3104 00002a 403C          MOV.W     #6,r12                ; [] |817| 
         00002c 0006 
    3105 00002e 01CD          MOVA      SP,r13                ; [] |817| 
    3106            $C$DW$266       .dwtag  DW_TAG_TI_branch
    3107                    .dwattr $C$DW$266, DW_AT_low_pc(0x00)
    3108                    .dwattr $C$DW$266, DW_AT_name("SimpleLinkWaitEvent")
    3109                    .dwattr $C$DW$266, DW_AT_TI_call
    3110 000030 13B0!         CALLA     #SimpleLinkWaitEvent  ; [] |817| 
         000032 0000 
    3111                                                      ; [] |817| 
    3112                    .dwpsn  file "C:/Users/409010855/Documents/GitHub/CHARM/Embedded_Voltmeter/Basic WiFi Source/S
MSP430 Assembler PC v4.2.1 Fri Mar 21 13:42:39 2014

Tools Copyright (c) 2003-2013 Texas Instruments Incorporated
C:\Users\409010~1\AppData\Local\Temp\0188810                         PAGE   64

    3113 000034 412C          MOV.W     0(SP),r12             ; [] |819| 
    3114 000036 411D          MOV.W     2(SP),r13             ; [] |819| 
         000038 0002 
    3115 00003a 5221          ADD.W     #4,SP                 ; [] 
    3116                    .dwcfi  cfa_offset, 8
    3117 00003c 160A          POPM.A    #1,r10                ; [] 
    3118                    .dwcfi  restore_reg, 10
    3119                    .dwcfi  cfa_offset, 4
    3120            $C$DW$267       .dwtag  DW_TAG_TI_branch
    3121                    .dwattr $C$DW$267, DW_AT_low_pc(0x00)
    3122                    .dwattr $C$DW$267, DW_AT_TI_return
    3123 00003e 0110          RETA      ; [] 
    3124                    ; [] 
    3125                    .dwattr $C$DW$259, DW_AT_TI_end_file("C:/Users/409010855/Documents/GitHub/CHARM/Embedded_Voltm
    3126                    .dwattr $C$DW$259, DW_AT_TI_end_line(0x334)
    3127                    .dwattr $C$DW$259, DW_AT_TI_end_column(0x01)
    3128                    .dwendentry
    3129                    .dwendtag $C$DW$259
    3130            
    3131 000000               .sect   ".text:wlan_init"
    3132                    .align  2
    3133                    .clink
    3134                    .global wlan_init
    3135            
    3136            $C$DW$268       .dwtag  DW_TAG_subprogram, DW_AT_name("wlan_init")
    3137                    .dwattr $C$DW$268, DW_AT_low_pc(wlan_init)
    3138                    .dwattr $C$DW$268, DW_AT_high_pc(0x00)
    3139                    .dwattr $C$DW$268, DW_AT_TI_symbol_name("wlan_init")
    3140                    .dwattr $C$DW$268, DW_AT_external
    3141                    .dwattr $C$DW$268, DW_AT_TI_begin_file("C:/Users/409010855/Documents/GitHub/CHARM/Embedded_Vol
    3142                    .dwattr $C$DW$268, DW_AT_TI_begin_line(0xf5)
    3143                    .dwattr $C$DW$268, DW_AT_TI_begin_column(0x06)
    3144                    .dwattr $C$DW$268, DW_AT_TI_max_frame_size(0x10)
    3145                    .dwpsn  file "C:/Users/409010855/Documents/GitHub/CHARM/Embedded_Voltmeter/Basic WiFi Source/S
    3146            
    3147                    .dwfde $C$DW$CIE, wlan_init
    3148            $C$DW$269       .dwtag  DW_TAG_formal_parameter, DW_AT_name("sWlanCB")
    3149                    .dwattr $C$DW$269, DW_AT_TI_symbol_name("sWlanCB")
    3150                    .dwattr $C$DW$269, DW_AT_type(*$C$DW$T$35)
    3151                    .dwattr $C$DW$269, DW_AT_location[DW_OP_reg12]
    3152            $C$DW$270       .dwtag  DW_TAG_formal_parameter, DW_AT_name("sFWPatches")
    3153                    .dwattr $C$DW$270, DW_AT_TI_symbol_name("sFWPatches")
    3154                    .dwattr $C$DW$270, DW_AT_type(*$C$DW$T$29)
    3155                    .dwattr $C$DW$270, DW_AT_location[DW_OP_reg13]
    3156            $C$DW$271       .dwtag  DW_TAG_formal_parameter, DW_AT_name("sDriverPatches")
    3157                    .dwattr $C$DW$271, DW_AT_TI_symbol_name("sDriverPatches")
    3158                    .dwattr $C$DW$271, DW_AT_type(*$C$DW$T$30)
    3159                    .dwattr $C$DW$271, DW_AT_location[DW_OP_reg14]
    3160            $C$DW$272       .dwtag  DW_TAG_formal_parameter, DW_AT_name("sBootLoaderPatches")
    3161                    .dwattr $C$DW$272, DW_AT_TI_symbol_name("sBootLoaderPatches")
    3162                    .dwattr $C$DW$272, DW_AT_type(*$C$DW$T$31)
    3163                    .dwattr $C$DW$272, DW_AT_location[DW_OP_reg15]
    3164            $C$DW$273       .dwtag  DW_TAG_formal_parameter, DW_AT_name("sReadWlanInterruptPin")
    3165                    .dwattr $C$DW$273, DW_AT_TI_symbol_name("sReadWlanInterruptPin")
    3166                    .dwattr $C$DW$273, DW_AT_type(*$C$DW$T$38)
MSP430 Assembler PC v4.2.1 Fri Mar 21 13:42:39 2014

Tools Copyright (c) 2003-2013 Texas Instruments Incorporated
